
/mywork/github/androidreverse/crash/build/intermediates/cmake/debug/obj/armeabi-v7a/libcrash.so:     file format elf32-littlearm


Disassembly of section .note.android.ident:

00000134 <note_android_ident>:
 134:	00000008 	andeq	r0, r0, r8
 138:	00000084 	andeq	r0, r0, r4, lsl #1
 13c:	00000001 	andeq	r0, r0, r1

00000140 <note_name>:
 140:	72646e41 	rsbvc	r6, r4, #1040	; 0x410
 144:	0064696f 	rsbeq	r6, r4, pc, ror #18

00000148 <note_data>:
 148:	00000013 	andeq	r0, r0, r3, lsl r0

0000014c <ndk_version>:
 14c:	62363172 	eorsvs	r3, r6, #-2147483620	; 0x8000001c
	...

0000018c <ndk_build_number>:
 18c:	39373434 	ldmdbcc	r7!, {r2, r4, r5, sl, ip, sp}
 190:	00393934 	eorseq	r3, r9, r4, lsr r9
	...

Disassembly of section .note.gnu.build-id:

000001cc <.note.gnu.build-id>:
 1cc:	00000004 	andeq	r0, r0, r4
 1d0:	00000014 	andeq	r0, r0, r4, lsl r0
 1d4:	00000003 	andeq	r0, r0, r3
 1d8:	00554e47 	subseq	r4, r5, r7, asr #28
 1dc:	33b5dc64 			; <UNDEFINED> instruction: 0x33b5dc64
 1e0:	dbcfccfa 	blle	ff3f35d0 <_end+0xff3ef5c8>
 1e4:	1ddc3ed6 	ldclne	14, cr3, [ip, #856]	; 0x358
 1e8:	60a74c28 	adcvs	r4, r7, r8, lsr #24
 1ec:	8c430b69 	mcrrhi	11, 6, r0, r3, cr9

Disassembly of section .dynsym:

000001f0 <.dynsym>:
	...
 200:	00000001 	andeq	r0, r0, r1
	...
 20c:	00000012 	andeq	r0, r0, r2, lsl r0
 210:	00000029 	andeq	r0, r0, r9, lsr #32
	...
 21c:	00000012 	andeq	r0, r0, r2, lsl r0
 220:	00000036 	andeq	r0, r0, r6, lsr r0
 224:	00000a5d 	andeq	r0, r0, sp, asr sl
 228:	00000134 	andeq	r0, r0, r4, lsr r1
 22c:	000c0012 	andeq	r0, ip, r2, lsl r0
 230:	00000040 	andeq	r0, r0, r0, asr #32
	...
 23c:	00000012 	andeq	r0, r0, r2, lsl r0
 240:	00000046 	andeq	r0, r0, r6, asr #32
	...
 24c:	00000012 	andeq	r0, r0, r2, lsl r0
 250:	0000004c 	andeq	r0, r0, ip, asr #32
	...
 25c:	00000012 	andeq	r0, r0, r2, lsl r0
 260:	00000060 	andeq	r0, r0, r0, rrx
	...
 26c:	00000012 	andeq	r0, r0, r2, lsl r0
 270:	00000067 	andeq	r0, r0, r7, rrx
	...
 27c:	00000012 	andeq	r0, r0, r2, lsl r0
 280:	00000078 	andeq	r0, r0, r8, ror r0
	...
 28c:	00000011 	andeq	r0, r0, r1, lsl r0
 290:	0000008a 	andeq	r0, r0, sl, lsl #1
 294:	00000b91 	muleq	r0, r1, fp
 298:	00000134 	andeq	r0, r0, r4, lsr r1
 29c:	000c0012 	andeq	r0, ip, r2, lsl r0
 2a0:	00000099 	muleq	r0, r9, r0
	...
 2ac:	00000012 	andeq	r0, r0, r2, lsl r0
 2b0:	000000af 	andeq	r0, r0, pc, lsr #1
	...
 2bc:	00000012 	andeq	r0, r0, r2, lsl r0
 2c0:	000000c6 	andeq	r0, r0, r6, asr #1
	...
 2cc:	00000012 	andeq	r0, r0, r2, lsl r0
 2d0:	000000dd 	ldrdeq	r0, [r0], -sp
 2d4:	00000cc5 	andeq	r0, r0, r5, asr #25
 2d8:	00000044 	andeq	r0, r0, r4, asr #32
 2dc:	000c0012 	andeq	r0, ip, r2, lsl r0
 2e0:	000000e9 	andeq	r0, r0, r9, ror #1
 2e4:	00000d09 	andeq	r0, r0, r9, lsl #26
 2e8:	00000304 	andeq	r0, r0, r4, lsl #6
 2ec:	000c0012 	andeq	r0, ip, r2, lsl r0
 2f0:	000000f7 	strdeq	r0, [r0], -r7
 2f4:	0000100d 	andeq	r1, r0, sp
 2f8:	00000050 	andeq	r0, r0, r0, asr r0
 2fc:	000c0012 	andeq	r0, ip, r2, lsl r0
 300:	00000101 	andeq	r0, r0, r1, lsl #2
 304:	0000105d 	andeq	r1, r0, sp, asr r0
 308:	00000048 	andeq	r0, r0, r8, asr #32
 30c:	000c0012 	andeq	r0, ip, r2, lsl r0
 310:	0000010c 	andeq	r0, r0, ip, lsl #2
 314:	000010a5 	andeq	r1, r0, r5, lsr #1
 318:	00000244 	andeq	r0, r0, r4, asr #4
 31c:	000c0012 	andeq	r0, ip, r2, lsl r0
 320:	00000133 	andeq	r0, r0, r3, lsr r1
	...
 32c:	00000012 	andeq	r0, r0, r2, lsl r0
 330:	0000013a 	andeq	r0, r0, sl, lsr r1
	...
 33c:	00000012 	andeq	r0, r0, r2, lsl r0
 340:	00000141 	andeq	r0, r0, r1, asr #2
	...
 34c:	00000012 	andeq	r0, r0, r2, lsl r0
 350:	00000148 	andeq	r0, r0, r8, asr #2
	...
 35c:	00000012 	andeq	r0, r0, r2, lsl r0
 360:	00000151 	andeq	r0, r0, r1, asr r1
 364:	000012e9 	andeq	r1, r0, r9, ror #5
 368:	00000154 	andeq	r0, r0, r4, asr r1
 36c:	000c0012 	andeq	r0, ip, r2, lsl r0
 370:	0000017c 	andeq	r0, r0, ip, ror r1
 374:	0000143d 	andeq	r1, r0, sp, lsr r4
 378:	00000034 	andeq	r0, r0, r4, lsr r0
 37c:	000c0012 	andeq	r0, ip, r2, lsl r0
 380:	000001aa 	andeq	r0, r0, sl, lsr #3
 384:	000014b1 			; <UNDEFINED> instruction: 0x000014b1
 388:	0000002c 	andeq	r0, r0, ip, lsr #32
 38c:	000c0012 	andeq	r0, ip, r2, lsl r0
 390:	000001b5 			; <UNDEFINED> instruction: 0x000001b5
 394:	00004004 	andeq	r4, r0, r4
 398:	00000004 	andeq	r0, r0, r4
 39c:	00150011 	andseq	r0, r5, r1, lsl r0
 3a0:	000001bc 			; <UNDEFINED> instruction: 0x000001bc
 3a4:	00004004 	andeq	r4, r0, r4
 3a8:	00000000 	andeq	r0, r0, r0
 3ac:	fff10010 			; <UNDEFINED> instruction: 0xfff10010
 3b0:	000001c8 	andeq	r0, r0, r8, asr #3
 3b4:	00004008 	andeq	r4, r0, r8
 3b8:	00000000 	andeq	r0, r0, r0
 3bc:	fff10010 			; <UNDEFINED> instruction: 0xfff10010
 3c0:	000001cd 	andeq	r0, r0, sp, asr #3
 3c4:	00004004 	andeq	r4, r0, r4
 3c8:	00000000 	andeq	r0, r0, r0
 3cc:	fff10010 			; <UNDEFINED> instruction: 0xfff10010
 3d0:	000001d4 	ldrdeq	r0, [r0], -r4
	...
 3dc:	00000012 	andeq	r0, r0, r2, lsl r0
 3e0:	000001db 	ldrdeq	r0, [r0], -fp
	...
 3ec:	00000012 	andeq	r0, r0, r2, lsl r0
 3f0:	000001e1 	andeq	r0, r0, r1, ror #3
	...
 3fc:	00000022 	andeq	r0, r0, r2, lsr #32
 400:	000001f9 	strdeq	r0, [r0], -r9
	...
 40c:	00000020 	andeq	r0, r0, r0, lsr #32
 410:	0000020d 	andeq	r0, r0, sp, lsl #4
	...
 41c:	00000020 	andeq	r0, r0, r0, lsr #32
 420:	0000021e 	andeq	r0, r0, lr, lsl r2
	...
 42c:	00000020 	andeq	r0, r0, r0, lsr #32

Disassembly of section .dynstr:

00000430 <.dynstr>:
 430:	635f5f00 	cmpvs	pc, #0, 30
 434:	665f6178 			; <UNDEFINED> instruction: 0x665f6178
 438:	6c616e69 	stclvs	14, cr6, [r1], #-420	; 0xfffffe5c
 43c:	00657a69 	rsbeq	r7, r5, r9, ror #20
 440:	4342494c 	movtmi	r4, #10572	; 0x294c
 444:	62696c00 	rsbvs	r6, r9, #0, 24
 448:	6f732e63 	svcvs	0x00732e63
 44c:	62696c00 	rsbvs	r6, r9, #0, 24
 450:	73617263 	cmnvc	r1, #805306374	; 0x30000006
 454:	6f732e68 	svcvs	0x00732e68
 458:	635f5f00 	cmpvs	pc, #0, 30
 45c:	615f6178 	cmpvs	pc, r8, ror r1	; <UNPREDICTABLE>
 460:	69786574 	ldmdbvs	r8!, {r2, r4, r5, r6, r8, sl, sp, lr}^
 464:	65740074 	ldrbvs	r0, [r4, #-116]!	; 0xffffff8c
 468:	6f637473 	svcvs	0x00637473
 46c:	00366564 	eorseq	r6, r6, r4, ror #10
 470:	65706f70 	ldrbvs	r6, [r0, #-3952]!	; 0xfffff090
 474:	6766006e 	strbvs	r0, [r6, -lr, rrx]!
 478:	00737465 	rsbseq	r7, r3, r5, ror #8
 47c:	6e615f5f 	mcrvs	15, 3, r5, cr1, cr15, {2}
 480:	696f7264 	stmdbvs	pc!, {r2, r5, r6, r9, ip, sp, lr}^	; <UNPREDICTABLE>
 484:	6f6c5f64 	svcvs	0x006c5f64
 488:	72705f67 	rsbsvc	r5, r0, #412	; 0x19c
 48c:	00746e69 	rsbseq	r6, r4, r9, ror #28
 490:	6f6c6370 	svcvs	0x006c6370
 494:	5f006573 	svcpl	0x00006573
 498:	6174735f 	cmnvs	r4, pc, asr r3
 49c:	635f6b63 	cmpvs	pc, #101376	; 0x18c00
 4a0:	665f6b68 	ldrbvs	r6, [pc], -r8, ror #22
 4a4:	006c6961 	rsbeq	r6, ip, r1, ror #18
 4a8:	74735f5f 	ldrbtvc	r5, [r3], #-3935	; 0xfffff0a1
 4ac:	5f6b6361 	svcpl	0x006b6361
 4b0:	5f6b6863 	svcpl	0x006b6863
 4b4:	72617567 	rsbvc	r7, r1, #432013312	; 0x19c00000
 4b8:	65740064 	ldrbvs	r0, [r4, #-100]!	; 0xffffff9c
 4bc:	72507473 	subsvc	r7, r0, #1929379840	; 0x73000000
 4c0:	7265706f 	rsbvc	r7, r5, #111	; 0x6f
 4c4:	73656974 	cmnvc	r5, #116, 18	; 0x1d0000
 4c8:	735f5f00 	cmpvc	pc, #0, 30
 4cc:	65747379 	ldrbvs	r7, [r4, #-889]!	; 0xfffffc87
 4d0:	72705f6d 	rsbsvc	r5, r0, #436	; 0x1b4
 4d4:	7265706f 	rsbvc	r7, r5, #111	; 0x6f
 4d8:	675f7974 			; <UNDEFINED> instruction: 0x675f7974
 4dc:	5f007465 	svcpl	0x00007465
 4e0:	7379735f 	cmnvc	r9, #2080374785	; 0x7c000001
 4e4:	5f6d6574 	svcpl	0x006d6574
 4e8:	706f7270 	rsbvc	r7, pc, r0, ror r2	; <UNPREDICTABLE>
 4ec:	79747265 	ldmdbvc	r4!, {r0, r2, r5, r6, r9, ip, sp, lr}^
 4f0:	6e69665f 	mcrvs	6, 3, r6, cr9, cr15, {2}
 4f4:	5f5f0064 	svcpl	0x005f0064
 4f8:	74737973 	ldrbtvc	r7, [r3], #-2419	; 0xfffff68d
 4fc:	705f6d65 	subsvc	r6, pc, r5, ror #26
 500:	65706f72 	ldrbvs	r6, [r0, #-3954]!	; 0xfffff08e
 504:	5f797472 	svcpl	0x00797472
 508:	64616572 	strbtvs	r6, [r1], #-1394	; 0xfffffa8e
 50c:	73657400 	cmnvc	r5, #0, 8
 510:	656e4f74 	strbvs	r4, [lr, #-3956]!	; 0xfffff08c
 514:	61726150 	cmnvs	r2, r0, asr r1
 518:	73657400 	cmnvc	r5, #0, 8
 51c:	72615074 	rsbvc	r5, r1, #116	; 0x74
 520:	74656d61 	strbtvc	r6, [r5], #-3425	; 0xfffff29f
 524:	77007265 	strvc	r7, [r0, -r5, ror #4]
 528:	436c6c69 	cmnmi	ip, #26880	; 0x6900
 52c:	68736172 	ldmdavs	r3!, {r1, r4, r5, r6, r8, sp, lr}^
 530:	73657400 	cmnvc	r5, #0, 8
 534:	72745374 	rsbsvc	r5, r4, #116, 6	; 0xd0000001
 538:	00676e69 	rsbeq	r6, r7, r9, ror #28
 53c:	6176614a 	cmnvs	r6, sl, asr #2
 540:	6d6f635f 	stclvs	3, cr6, [pc, #-380]!	; 3cc <note_end+0x200>
 544:	6172635f 	cmnvs	r2, pc, asr r3
 548:	745f6873 	ldrbvc	r6, [pc], #-2163	; 550 <note_end+0x384>
 54c:	5f747365 	svcpl	0x00747365
 550:	6c6c6548 	cfstr64vs	mvdx6, [ip], #-288	; 0xfffffee0
 554:	696e4a6f 	stmdbvs	lr!, {r0, r1, r2, r3, r5, r6, r9, fp, lr}^
 558:	74616e5f 	strbtvc	r6, [r1], #-3679	; 0xfffff1a1
 55c:	4d657669 	stclmi	6, cr7, [r5, #-420]!	; 0xfffffe5c
 560:	73006773 	movwvc	r6, #1907	; 0x773
 564:	65747379 	ldrbvs	r7, [r4, #-889]!	; 0xfffffc87
 568:	6567006d 	strbvs	r0, [r7, #-109]!	; 0xffffff93
 56c:	64697074 	strbtvs	r7, [r9], #-116	; 0xffffff8c
 570:	74656700 	strbtvc	r6, [r5], #-1792	; 0xfffff900
 574:	00646975 	rsbeq	r6, r4, r5, ror r9
 578:	6c746567 	cfldr64vs	mvdx6, [r4], #-412	; 0xfffffe64
 57c:	6e69676f 	cdpvs	7, 6, cr6, cr9, cr15, {3}
 580:	76614a00 	strbtvc	r4, [r1], -r0, lsl #20
 584:	6f635f61 	svcvs	0x00635f61
 588:	72635f6d 	rsbvc	r5, r3, #436	; 0x1b4
 58c:	5f687361 	svcpl	0x00687361
 590:	74736574 	ldrbtvc	r6, [r3], #-1396	; 0xfffffa8c
 594:	6c65485f 	stclvs	8, cr4, [r5], #-380	; 0xfffffe84
 598:	6e4a6f6c 	cdpvs	15, 4, cr6, cr10, cr12, {3}
 59c:	74735f69 	ldrbtvc	r5, [r3], #-3945	; 0xfffff097
 5a0:	676e6972 			; <UNDEFINED> instruction: 0x676e6972
 5a4:	6d6f7246 	sfmvs	f7, 2, [pc, #-280]!	; 494 <note_end+0x2c8>
 5a8:	00494e4a 	subeq	r4, r9, sl, asr #28
 5ac:	6176614a 	cmnvs	r6, sl, asr #2
 5b0:	6d6f635f 	stclvs	3, cr6, [pc, #-380]!	; 43c <note_end+0x270>
 5b4:	6172635f 	cmnvs	r2, pc, asr r3
 5b8:	745f6873 	ldrbvc	r6, [pc], #-2163	; 5c0 <note_end+0x3f4>
 5bc:	5f747365 	svcpl	0x00747365
 5c0:	6c6c6548 	cfstr64vs	mvdx6, [ip], #-288	; 0xfffffee0
 5c4:	696e4a6f 	stmdbvs	lr!, {r0, r1, r2, r3, r5, r6, r9, fp, lr}^
 5c8:	7274735f 	rsbsvc	r7, r4, #2080374785	; 0x7c000001
 5cc:	46676e69 	strbtmi	r6, [r7], -r9, ror #28
 5d0:	4a6d6f72 	bmi	1b5c3a0 <_end+0x1b58398>
 5d4:	315f494e 	cmpcc	pc, lr, asr #18
 5d8:	4e4a0031 	mcrmi	0, 2, r0, cr10, cr1, {1}
 5dc:	6e4f5f49 	cdpvs	15, 4, cr5, cr15, cr9, {2}
 5e0:	64616f4c 	strbtvs	r6, [r1], #-3916	; 0xfffff0b4
 5e4:	5f736700 	svcpl	0x00736700
 5e8:	006d766a 	rsbeq	r7, sp, sl, ror #12
 5ec:	73625f5f 	cmnvc	r2, #380	; 0x17c
 5f0:	74735f73 	ldrbtvc	r5, [r3], #-3955	; 0xfffff08d
 5f4:	00747261 	rsbseq	r7, r4, r1, ror #4
 5f8:	646e655f 	strbtvs	r6, [lr], #-1375	; 0xfffffaa1
 5fc:	64655f00 	strbtvs	r5, [r5], #-3840	; 0xfffff100
 600:	00617461 	rsbeq	r7, r1, r1, ror #8
 604:	636d656d 	cmnvs	sp, #457179136	; 0x1b400000
 608:	61007970 	tstvs	r0, r0, ror r9
 60c:	74726f62 	ldrbtvc	r6, [r2], #-3938	; 0xfffff09e
 610:	675f5f00 	ldrbvs	r5, [pc, -r0, lsl #30]
 614:	555f756e 	ldrbpl	r7, [pc, #-1390]	; ae <note_android_ident-0x86>
 618:	6e69776e 	cdpvs	7, 6, cr7, cr9, cr14, {3}
 61c:	69465f64 	stmdbvs	r6, {r2, r5, r6, r8, r9, sl, fp, ip, lr}^
 620:	655f646e 	ldrbvs	r6, [pc, #-1134]	; 1ba <ndk_build_number+0x2e>
 624:	78646978 	stmdavc	r4!, {r3, r4, r5, r6, r8, fp, sp, lr}^
 628:	635f5f00 	cmpvs	pc, #0, 30
 62c:	625f6178 	subsvs	r6, pc, #120, 2
 630:	6e696765 	cdpvs	7, 6, cr6, cr9, cr5, {3}
 634:	656c635f 	strbvs	r6, [ip, #-863]!	; 0xfffffca1
 638:	70756e61 	rsbsvc	r6, r5, r1, ror #28
 63c:	635f5f00 	cmpvs	pc, #0, 30
 640:	745f6178 	ldrbvc	r6, [pc], #-376	; 648 <note_end+0x47c>
 644:	5f657079 	svcpl	0x00657079
 648:	6374616d 	cmnvs	r4, #1073741851	; 0x4000001b
 64c:	5f5f0068 	svcpl	0x005f0068
 650:	5f617863 	svcpl	0x00617863
 654:	6c6c6163 	stfvse	f6, [ip], #-396	; 0xfffffe74
 658:	656e755f 	strbvs	r7, [lr, #-1375]!	; 0xfffffaa1
 65c:	63657078 	cmnvs	r5, #120	; 0x78
 660:	00646574 	rsbeq	r6, r4, r4, ror r5
 664:	6162696c 	cmnvs	r2, ip, ror #18
 668:	6f72646e 	svcvs	0x0072646e
 66c:	732e6469 			; <UNDEFINED> instruction: 0x732e6469
 670:	696c006f 	stmdbvs	ip!, {r0, r1, r2, r3, r5, r6}^
 674:	676f6c62 	strbvs	r6, [pc, -r2, ror #24]!
 678:	006f732e 	rsbeq	r7, pc, lr, lsr #6
 67c:	6d62696c 			; <UNDEFINED> instruction: 0x6d62696c
 680:	006f732e 	rsbeq	r7, pc, lr, lsr #6
 684:	6462696c 	strbtvs	r6, [r2], #-2412	; 0xfffff694
 688:	6f732e6c 	svcvs	0x00732e6c
	...

Disassembly of section .hash:

00000690 <.hash>:
 690:	00000011 	andeq	r0, r0, r1, lsl r0
 694:	00000024 	andeq	r0, r0, r4, lsr #32
 698:	00000000 	andeq	r0, r0, r0
 69c:	0000001d 	andeq	r0, r0, sp, lsl r0
 6a0:	00000020 	andeq	r0, r0, r0, lsr #32
 6a4:	00000010 	andeq	r0, r0, r0, lsl r0
 6a8:	00000000 	andeq	r0, r0, r0
 6ac:	00000016 	andeq	r0, r0, r6, lsl r0
 6b0:	00000021 	andeq	r0, r0, r1, lsr #32
 6b4:	00000000 	andeq	r0, r0, r0
 6b8:	00000023 	andeq	r0, r0, r3, lsr #32
 6bc:	00000000 	andeq	r0, r0, r0
 6c0:	0000001f 	andeq	r0, r0, pc, lsl r0
 6c4:	0000001b 	andeq	r0, r0, fp, lsl r0
 6c8:	0000000e 	andeq	r0, r0, lr
 6cc:	0000001c 	andeq	r0, r0, ip, lsl r0
 6d0:	0000001a 	andeq	r0, r0, sl, lsl r0
 6d4:	00000013 	andeq	r0, r0, r3, lsl r0
 6d8:	00000022 	andeq	r0, r0, r2, lsr #32
	...
 6f0:	00000002 	andeq	r0, r0, r2
 6f4:	00000000 	andeq	r0, r0, r0
 6f8:	00000003 	andeq	r0, r0, r3
	...
 704:	00000004 	andeq	r0, r0, r4
	...
 710:	00000008 	andeq	r0, r0, r8
 714:	0000000d 	andeq	r0, r0, sp
 718:	00000000 	andeq	r0, r0, r0
 71c:	0000000a 	andeq	r0, r0, sl
 720:	00000009 	andeq	r0, r0, r9
 724:	0000000f 	andeq	r0, r0, pc
 728:	00000000 	andeq	r0, r0, r0
 72c:	00000011 	andeq	r0, r0, r1, lsl r0
 730:	0000000b 	andeq	r0, r0, fp
 734:	00000012 	andeq	r0, r0, r2, lsl r0
 738:	00000005 	andeq	r0, r0, r5
 73c:	00000006 	andeq	r0, r0, r6
 740:	00000015 	andeq	r0, r0, r5, lsl r0
 744:	00000017 	andeq	r0, r0, r7, lsl r0
 748:	00000019 	andeq	r0, r0, r9, lsl r0
 74c:	00000000 	andeq	r0, r0, r0
 750:	00000001 	andeq	r0, r0, r1
 754:	00000018 	andeq	r0, r0, r8, lsl r0
 758:	00000007 	andeq	r0, r0, r7
 75c:	0000000c 	andeq	r0, r0, ip
 760:	00000014 	andeq	r0, r0, r4, lsl r0
 764:	00000000 	andeq	r0, r0, r0
 768:	0000001e 	andeq	r0, r0, lr, lsl r0

Disassembly of section .gnu.version:

0000076c <.gnu.version>:
 76c:	00020000 	andeq	r0, r2, r0
 770:	00010002 	andeq	r0, r1, r2
 774:	00020002 	andeq	r0, r2, r2
 778:	00020000 	andeq	r0, r2, r0
 77c:	00020002 	andeq	r0, r2, r2
 780:	00020001 	andeq	r0, r2, r1
 784:	00020002 	andeq	r0, r2, r2
 788:	00010001 	andeq	r0, r1, r1
 78c:	00010001 	andeq	r0, r1, r1
 790:	00020001 	andeq	r0, r2, r1
 794:	00020002 	andeq	r0, r2, r2
 798:	00010002 	andeq	r0, r1, r2
 79c:	00010001 	andeq	r0, r1, r1
 7a0:	00010001 	andeq	r0, r1, r1
 7a4:	00010001 	andeq	r0, r1, r1
 7a8:	00020002 	andeq	r0, r2, r2
	...

Disassembly of section .gnu.version_d:

000007b4 <.gnu.version_d>:
 7b4:	00010001 	andeq	r0, r1, r1
 7b8:	00010001 	andeq	r0, r1, r1
 7bc:	08fb6d3f 	ldmeq	fp!, {r0, r1, r2, r3, r4, r5, r8, sl, fp, sp, lr}^
 7c0:	00000014 	andeq	r0, r0, r4, lsl r0
 7c4:	00000000 	andeq	r0, r0, r0
 7c8:	0000001d 	andeq	r0, r0, sp, lsl r0
 7cc:	00000000 	andeq	r0, r0, r0

Disassembly of section .gnu.version_r:

000007d0 <.gnu.version_r>:
 7d0:	00010001 	andeq	r0, r1, r1
 7d4:	00000015 	andeq	r0, r0, r5, lsl r0
 7d8:	00000010 	andeq	r0, r0, r0, lsl r0
 7dc:	00000000 	andeq	r0, r0, r0
 7e0:	00050d63 	andeq	r0, r5, r3, ror #26
 7e4:	00020000 	andeq	r0, r2, r0
 7e8:	00000010 	andeq	r0, r0, r0, lsl r0
 7ec:	00000000 	andeq	r0, r0, r0

Disassembly of section .rel.dyn:

000007f0 <.rel.dyn>:
 7f0:	00003e48 	andeq	r3, r0, r8, asr #28
 7f4:	00000017 	andeq	r0, r0, r7, lsl r0
 7f8:	00003f7c 	andeq	r3, r0, ip, ror pc
 7fc:	00000017 	andeq	r0, r0, r7, lsl r0
 800:	00003f80 	andeq	r3, r0, r0, lsl #31
 804:	00000017 	andeq	r0, r0, r7, lsl r0
 808:	00003f84 	andeq	r3, r0, r4, lsl #31
 80c:	00000017 	andeq	r0, r0, r7, lsl r0
 810:	00003f8c 	andeq	r3, r0, ip, lsl #31
 814:	00000017 	andeq	r0, r0, r7, lsl r0
 818:	00003f90 	muleq	r0, r0, pc	; <UNPREDICTABLE>
 81c:	00000017 	andeq	r0, r0, r7, lsl r0
 820:	00003f74 	andeq	r3, r0, r4, ror pc
 824:	00000915 	andeq	r0, r0, r5, lsl r9
 828:	00003f78 	andeq	r3, r0, r8, ror pc
 82c:	00001a15 	andeq	r1, r0, r5, lsl sl
 830:	00003f88 	andeq	r3, r0, r8, lsl #31
 834:	00002015 	andeq	r2, r0, r5, lsl r0
 838:	00003f94 	muleq	r0, r4, pc	; <UNPREDICTABLE>
 83c:	00002315 	andeq	r2, r0, r5, lsl r3

Disassembly of section .rel.plt:

00000840 <.rel.plt>:
 840:	00003fa4 	andeq	r3, r0, r4, lsr #31
 844:	00000216 	andeq	r0, r0, r6, lsl r2
 848:	00003fa8 	andeq	r3, r0, r8, lsr #31
 84c:	00000116 	andeq	r0, r0, r6, lsl r1
 850:	00003fac 	andeq	r3, r0, ip, lsr #31
 854:	00000416 	andeq	r0, r0, r6, lsl r4
 858:	00003fb0 			; <UNDEFINED> instruction: 0x00003fb0
 85c:	00000516 	andeq	r0, r0, r6, lsl r5
 860:	00003fb4 			; <UNDEFINED> instruction: 0x00003fb4
 864:	00000616 	andeq	r0, r0, r6, lsl r6
 868:	00003fb8 			; <UNDEFINED> instruction: 0x00003fb8
 86c:	00000716 	andeq	r0, r0, r6, lsl r7
 870:	00003fbc 			; <UNDEFINED> instruction: 0x00003fbc
 874:	00000816 	andeq	r0, r0, r6, lsl r8
 878:	00003fc0 	andeq	r3, r0, r0, asr #31
 87c:	00000b16 	andeq	r0, r0, r6, lsl fp
 880:	00003fc4 	andeq	r3, r0, r4, asr #31
 884:	00000c16 	andeq	r0, r0, r6, lsl ip
 888:	00003fc8 	andeq	r3, r0, r8, asr #31
 88c:	00000d16 	andeq	r0, r0, r6, lsl sp
 890:	00003fcc 	andeq	r3, r0, ip, asr #31
 894:	00001316 	andeq	r1, r0, r6, lsl r3
 898:	00003fd0 	ldrdeq	r3, [r0], -r0
 89c:	00001116 	andeq	r1, r0, r6, lsl r1
 8a0:	00003fd4 	ldrdeq	r3, [r0], -r4
 8a4:	00001016 	andeq	r1, r0, r6, lsl r0
 8a8:	00003fd8 	ldrdeq	r3, [r0], -r8
 8ac:	00001416 	andeq	r1, r0, r6, lsl r4
 8b0:	00003fdc 	ldrdeq	r3, [r0], -ip
 8b4:	00001516 	andeq	r1, r0, r6, lsl r5
 8b8:	00003fe0 	andeq	r3, r0, r0, ror #31
 8bc:	00000e16 	andeq	r0, r0, r6, lsl lr
 8c0:	00003fe4 	andeq	r3, r0, r4, ror #31
 8c4:	00000f16 	andeq	r0, r0, r6, lsl pc
 8c8:	00003fe8 	andeq	r3, r0, r8, ror #31
 8cc:	00001616 	andeq	r1, r0, r6, lsl r6
 8d0:	00003fec 	andeq	r3, r0, ip, ror #31
 8d4:	00002016 	andeq	r2, r0, r6, lsl r0
 8d8:	00003ff0 	strdeq	r3, [r0], -r0
 8dc:	00001f16 	andeq	r1, r0, r6, lsl pc
 8e0:	00003ff4 	strdeq	r3, [r0], -r4
 8e4:	00001e16 	andeq	r1, r0, r6, lsl lr
 8e8:	00003ff8 	strdeq	r3, [r0], -r8
 8ec:	00002116 	andeq	r2, r0, r6, lsl r1
 8f0:	00003ffc 	strdeq	r3, [r0], -ip
 8f4:	00002216 	andeq	r2, r0, r6, lsl r2

Disassembly of section .plt:

000008f8 <__cxa_atexit@plt-0x14>:
 8f8:	e52de004 	push	{lr}		; (str lr, [sp, #-4]!)
 8fc:	e59fe004 	ldr	lr, [pc, #4]	; 908 <note_end+0x73c>
 900:	e08fe00e 	add	lr, pc, lr
 904:	e5bef008 	ldr	pc, [lr, #8]!
 908:	00003690 	muleq	r0, r0, r6

0000090c <__cxa_atexit@plt>:
 90c:	e28fc600 	add	ip, pc, #0, 12
 910:	e28cca03 	add	ip, ip, #12288	; 0x3000
 914:	e5bcf690 	ldr	pc, [ip, #1680]!	; 0x690

00000918 <__cxa_finalize@plt>:
 918:	e28fc600 	add	ip, pc, #0, 12
 91c:	e28cca03 	add	ip, ip, #12288	; 0x3000
 920:	e5bcf688 	ldr	pc, [ip, #1672]!	; 0x688

00000924 <popen@plt>:
 924:	e28fc600 	add	ip, pc, #0, 12
 928:	e28cca03 	add	ip, ip, #12288	; 0x3000
 92c:	e5bcf680 	ldr	pc, [ip, #1664]!	; 0x680

00000930 <fgets@plt>:
 930:	e28fc600 	add	ip, pc, #0, 12
 934:	e28cca03 	add	ip, ip, #12288	; 0x3000
 938:	e5bcf678 	ldr	pc, [ip, #1656]!	; 0x678

0000093c <__android_log_print@plt>:
 93c:	e28fc600 	add	ip, pc, #0, 12
 940:	e28cca03 	add	ip, ip, #12288	; 0x3000
 944:	e5bcf670 	ldr	pc, [ip, #1648]!	; 0x670

00000948 <pclose@plt>:
 948:	e28fc600 	add	ip, pc, #0, 12
 94c:	e28cca03 	add	ip, ip, #12288	; 0x3000
 950:	e5bcf668 	ldr	pc, [ip, #1640]!	; 0x668

00000954 <__stack_chk_fail@plt>:
 954:	e28fc600 	add	ip, pc, #0, 12
 958:	e28cca03 	add	ip, ip, #12288	; 0x3000
 95c:	e5bcf660 	ldr	pc, [ip, #1632]!	; 0x660

00000960 <__system_property_get@plt>:
 960:	e28fc600 	add	ip, pc, #0, 12
 964:	e28cca03 	add	ip, ip, #12288	; 0x3000
 968:	e5bcf658 	ldr	pc, [ip, #1624]!	; 0x658

0000096c <__system_property_find@plt>:
 96c:	e28fc600 	add	ip, pc, #0, 12
 970:	e28cca03 	add	ip, ip, #12288	; 0x3000
 974:	e5bcf650 	ldr	pc, [ip, #1616]!	; 0x650

00000978 <__system_property_read@plt>:
 978:	e28fc600 	add	ip, pc, #0, 12
 97c:	e28cca03 	add	ip, ip, #12288	; 0x3000
 980:	e5bcf648 	ldr	pc, [ip, #1608]!	; 0x648

00000984 <system@plt>:
 984:	e28fc600 	add	ip, pc, #0, 12
 988:	e28cca03 	add	ip, ip, #12288	; 0x3000
 98c:	e5bcf640 	ldr	pc, [ip, #1600]!	; 0x640

00000990 <testString@plt>:
 990:	e28fc600 	add	ip, pc, #0, 12
 994:	e28cca03 	add	ip, ip, #12288	; 0x3000
 998:	e5bcf638 	ldr	pc, [ip, #1592]!	; 0x638

0000099c <willCrash@plt>:
 99c:	e28fc600 	add	ip, pc, #0, 12
 9a0:	e28cca03 	add	ip, ip, #12288	; 0x3000
 9a4:	e5bcf630 	ldr	pc, [ip, #1584]!	; 0x630

000009a8 <getpid@plt>:
 9a8:	e28fc600 	add	ip, pc, #0, 12
 9ac:	e28cca03 	add	ip, ip, #12288	; 0x3000
 9b0:	e5bcf628 	ldr	pc, [ip, #1576]!	; 0x628

000009b4 <getuid@plt>:
 9b4:	e28fc600 	add	ip, pc, #0, 12
 9b8:	e28cca03 	add	ip, ip, #12288	; 0x3000
 9bc:	e5bcf620 	ldr	pc, [ip, #1568]!	; 0x620

000009c0 <testOnePara@plt>:
 9c0:	e28fc600 	add	ip, pc, #0, 12
 9c4:	e28cca03 	add	ip, ip, #12288	; 0x3000
 9c8:	e5bcf618 	ldr	pc, [ip, #1560]!	; 0x618

000009cc <testParameter@plt>:
 9cc:	e28fc600 	add	ip, pc, #0, 12
 9d0:	e28cca03 	add	ip, ip, #12288	; 0x3000
 9d4:	e5bcf610 	ldr	pc, [ip, #1552]!	; 0x610

000009d8 <getlogin@plt>:
 9d8:	e28fc600 	add	ip, pc, #0, 12
 9dc:	e28cca03 	add	ip, ip, #12288	; 0x3000
 9e0:	e5bcf608 	ldr	pc, [ip, #1544]!	; 0x608

000009e4 <__gnu_Unwind_Find_exidx@plt>:
 9e4:	e28fc600 	add	ip, pc, #0, 12
 9e8:	e28cca03 	add	ip, ip, #12288	; 0x3000
 9ec:	e5bcf600 	ldr	pc, [ip, #1536]!	; 0x600

000009f0 <abort@plt>:
 9f0:	e28fc600 	add	ip, pc, #0, 12
 9f4:	e28cca03 	add	ip, ip, #12288	; 0x3000
 9f8:	e5bcf5f8 	ldr	pc, [ip, #1528]!	; 0x5f8

000009fc <memcpy@plt>:
 9fc:	e28fc600 	add	ip, pc, #0, 12
 a00:	e28cca03 	add	ip, ip, #12288	; 0x3000
 a04:	e5bcf5f0 	ldr	pc, [ip, #1520]!	; 0x5f0

00000a08 <__cxa_begin_cleanup@plt>:
 a08:	e28fc600 	add	ip, pc, #0, 12
 a0c:	e28cca03 	add	ip, ip, #12288	; 0x3000
 a10:	e5bcf5e8 	ldr	pc, [ip, #1512]!	; 0x5e8

00000a14 <__cxa_type_match@plt>:
 a14:	e28fc600 	add	ip, pc, #0, 12
 a18:	e28cca03 	add	ip, ip, #12288	; 0x3000
 a1c:	e5bcf5e0 	ldr	pc, [ip, #1504]!	; 0x5e0

Disassembly of section .text:

00000a20 <__on_dlclose>:
     a20:	e59f0004 	ldr	r0, [pc, #4]	; a2c <__on_dlclose+0xc>
     a24:	e08f0000 	add	r0, pc, r0
     a28:	eaffffba 	b	918 <__cxa_finalize@plt>
     a2c:	000035d4 	ldrdeq	r3, [r0], -r4

00000a30 <__atexit_handler_wrapper>:
     a30:	e3500000 	cmp	r0, #0
     a34:	012fff1e 	bxeq	lr
     a38:	e12fff10 	bx	r0

00000a3c <atexit>:
     a3c:	e1a01000 	mov	r1, r0
     a40:	e59f200c 	ldr	r2, [pc, #12]	; a54 <atexit+0x18>
     a44:	e59f000c 	ldr	r0, [pc, #12]	; a58 <atexit+0x1c>
     a48:	e08f2002 	add	r2, pc, r2
     a4c:	e08f0000 	add	r0, pc, r0
     a50:	eaffffad 	b	90c <__cxa_atexit@plt>
     a54:	000035b0 			; <UNDEFINED> instruction: 0x000035b0
     a58:	ffffffdc 			; <UNDEFINED> instruction: 0xffffffdc

00000a5c <testcode6>:
#define ABI "armeabi-v7a"

extern JavaVM *gs_jvm;

void testcode6()
{
     a5c:	b580      	push	{r7, lr}
     a5e:	466f      	mov	r7, sp
     a60:	f5ad 6d04 	sub.w	sp, sp, #2112	; 0x840
     a64:	483d      	ldr	r0, [pc, #244]	; (b5c <testcode6+0x100>)
     a66:	4478      	add	r0, pc
     a68:	6800      	ldr	r0, [r0, #0]
     a6a:	6800      	ldr	r0, [r0, #0]
     a6c:	f847 0c04 	str.w	r0, [r7, #-4]
    FILE *stream;
    stream = popen("pwd", "r");
     a70:	483b      	ldr	r0, [pc, #236]	; (b60 <testcode6+0x104>)
     a72:	4478      	add	r0, pc
     a74:	493b      	ldr	r1, [pc, #236]	; (b64 <testcode6+0x108>)
     a76:	4479      	add	r1, pc
     a78:	910c      	str	r1, [sp, #48]	; 0x30
     a7a:	f7ff ef54 	blx	924 <popen@plt>
     a7e:	900e      	str	r0, [sp, #56]	; 0x38
    char ch[1024];
    fgets(ch, 1024, stream);
     a80:	9a0e      	ldr	r2, [sp, #56]	; 0x38
     a82:	f20d 403c 	addw	r0, sp, #1084	; 0x43c
     a86:	f44f 6180 	mov.w	r1, #1024	; 0x400
     a8a:	900b      	str	r0, [sp, #44]	; 0x2c
     a8c:	f7ff ef50 	blx	930 <fgets@plt>
    LOGW("pwd: %s",ch);
     a90:	4935      	ldr	r1, [pc, #212]	; (b68 <testcode6+0x10c>)
     a92:	4479      	add	r1, pc
     a94:	4a35      	ldr	r2, [pc, #212]	; (b6c <testcode6+0x110>)
     a96:	447a      	add	r2, pc
     a98:	f04f 0e05 	mov.w	lr, #5
     a9c:	900a      	str	r0, [sp, #40]	; 0x28
     a9e:	4670      	mov	r0, lr
     aa0:	9b0b      	ldr	r3, [sp, #44]	; 0x2c
     aa2:	f7ff ef4c 	blx	93c <__android_log_print@plt>
    pclose(stream);
     aa6:	990e      	ldr	r1, [sp, #56]	; 0x38
     aa8:	9009      	str	r0, [sp, #36]	; 0x24
     aaa:	4608      	mov	r0, r1
     aac:	f7ff ef4c 	blx	948 <pclose@plt>
    stream = popen("ls", "r");
     ab0:	492f      	ldr	r1, [pc, #188]	; (b70 <testcode6+0x114>)
     ab2:	4479      	add	r1, pc
     ab4:	9008      	str	r0, [sp, #32]
     ab6:	4608      	mov	r0, r1
     ab8:	990c      	ldr	r1, [sp, #48]	; 0x30
     aba:	f7ff ef34 	blx	924 <popen@plt>
     abe:	900e      	str	r0, [sp, #56]	; 0x38
    if( NULL == stream )
     ac0:	980e      	ldr	r0, [sp, #56]	; 0x38
     ac2:	2800      	cmp	r0, #0
     ac4:	d10f      	bne.n	ae6 <testcode6+0x8a>
     ac6:	e7ff      	b.n	ac8 <testcode6+0x6c>
    {
        LOGE("Unable to execute the command");
     ac8:	482e      	ldr	r0, [pc, #184]	; (b84 <testcode6+0x128>)
     aca:	4478      	add	r0, pc
     acc:	492e      	ldr	r1, [pc, #184]	; (b88 <testcode6+0x12c>)
     ace:	4479      	add	r1, pc
     ad0:	2206      	movs	r2, #6
     ad2:	9007      	str	r0, [sp, #28]
     ad4:	4610      	mov	r0, r2
     ad6:	9a07      	ldr	r2, [sp, #28]
     ad8:	9106      	str	r1, [sp, #24]
     ada:	4611      	mov	r1, r2
     adc:	9a06      	ldr	r2, [sp, #24]
     ade:	f7ff ef2e 	blx	93c <__android_log_print@plt>
    }
     ae2:	9005      	str	r0, [sp, #20]
     ae4:	e02c      	b.n	b40 <testcode6+0xe4>
    else
    {
        char buffer[1024];
        int status;
        while( NULL != fgets(buffer, 1024, stream))
     ae6:	e7ff      	b.n	ae8 <testcode6+0x8c>
     ae8:	9a0e      	ldr	r2, [sp, #56]	; 0x38
     aea:	a80f      	add	r0, sp, #60	; 0x3c
     aec:	f44f 6180 	mov.w	r1, #1024	; 0x400
     af0:	f7ff ef1e 	blx	930 <fgets@plt>
     af4:	2800      	cmp	r0, #0
     af6:	d010      	beq.n	b1a <testcode6+0xbe>
     af8:	e7ff      	b.n	afa <testcode6+0x9e>
        {
            LOGE("read: %s", buffer);
     afa:	4820      	ldr	r0, [pc, #128]	; (b7c <testcode6+0x120>)
     afc:	4478      	add	r0, pc
     afe:	4920      	ldr	r1, [pc, #128]	; (b80 <testcode6+0x124>)
     b00:	4479      	add	r1, pc
     b02:	2206      	movs	r2, #6
     b04:	ab0f      	add	r3, sp, #60	; 0x3c
     b06:	9004      	str	r0, [sp, #16]
     b08:	4610      	mov	r0, r2
     b0a:	9a04      	ldr	r2, [sp, #16]
     b0c:	9103      	str	r1, [sp, #12]
     b0e:	4611      	mov	r1, r2
     b10:	9a03      	ldr	r2, [sp, #12]
     b12:	f7ff ef14 	blx	93c <__android_log_print@plt>
        while( NULL != fgets(buffer, 1024, stream))
     b16:	9002      	str	r0, [sp, #8]
     b18:	e7e6      	b.n	ae8 <testcode6+0x8c>
        }
        status = pclose(stream);
     b1a:	980e      	ldr	r0, [sp, #56]	; 0x38
     b1c:	f7ff ef14 	blx	948 <pclose@plt>
     b20:	900d      	str	r0, [sp, #52]	; 0x34
        LOGW("process exited with status %d", status);
     b22:	9b0d      	ldr	r3, [sp, #52]	; 0x34
     b24:	4813      	ldr	r0, [pc, #76]	; (b74 <testcode6+0x118>)
     b26:	4478      	add	r0, pc
     b28:	f8df e04c 	ldr.w	lr, [pc, #76]	; b78 <testcode6+0x11c>
     b2c:	44fe      	add	lr, pc
     b2e:	2105      	movs	r1, #5
     b30:	9001      	str	r0, [sp, #4]
     b32:	4608      	mov	r0, r1
     b34:	9901      	ldr	r1, [sp, #4]
     b36:	4672      	mov	r2, lr
     b38:	f7ff ef00 	blx	93c <__android_log_print@plt>
     b3c:	9000      	str	r0, [sp, #0]
     b3e:	e7ff      	b.n	b40 <testcode6+0xe4>
     b40:	4812      	ldr	r0, [pc, #72]	; (b8c <testcode6+0x130>)
     b42:	4478      	add	r0, pc
     b44:	6800      	ldr	r0, [r0, #0]
     b46:	6800      	ldr	r0, [r0, #0]
     b48:	f857 1c04 	ldr.w	r1, [r7, #-4]
     b4c:	4288      	cmp	r0, r1
     b4e:	d103      	bne.n	b58 <testcode6+0xfc>
     b50:	e7ff      	b.n	b52 <testcode6+0xf6>
    }
}
     b52:	f50d 6d04 	add.w	sp, sp, #2112	; 0x840
     b56:	bd80      	pop	{r7, pc}
     b58:	f7ff eefc 	blx	954 <__stack_chk_fail@plt>
     b5c:	0000350a 	andeq	r3, r0, sl, lsl #10
     b60:	000019b2 			; <UNDEFINED> instruction: 0x000019b2
     b64:	000019b2 			; <UNDEFINED> instruction: 0x000019b2
     b68:	00001998 	muleq	r0, r8, r9
     b6c:	00001999 	muleq	r0, r9, r9
     b70:	00001985 	andeq	r1, r0, r5, lsl #19
     b74:	00001904 	andeq	r1, r0, r4, lsl #18
     b78:	00001935 	andeq	r1, r0, r5, lsr r9
     b7c:	0000192e 	andeq	r1, r0, lr, lsr #18
     b80:	00001958 	andeq	r1, r0, r8, asr r9
     b84:	00001960 	andeq	r1, r0, r0, ror #18
     b88:	0000196c 	andeq	r1, r0, ip, ror #18
     b8c:	0000342e 	andeq	r3, r0, lr, lsr #8

00000b90 <testProperties>:

void testProperties()
{
     b90:	b580      	push	{r7, lr}
     b92:	466f      	mov	r7, sp
     b94:	b0c8      	sub	sp, #288	; 0x120
     b96:	483d      	ldr	r0, [pc, #244]	; (c8c <testProperties+0xfc>)
     b98:	4478      	add	r0, pc
     b9a:	6800      	ldr	r0, [r0, #0]
     b9c:	6800      	ldr	r0, [r0, #0]
     b9e:	9047      	str	r0, [sp, #284]	; 0x11c
    char value[PROP_VALUE_MAX];
    if(0 == __system_property_get("ro.product.model", value))
     ba0:	483b      	ldr	r0, [pc, #236]	; (c90 <testProperties+0x100>)
     ba2:	4478      	add	r0, pc
     ba4:	a930      	add	r1, sp, #192	; 0xc0
     ba6:	f7ff eedc 	blx	960 <__system_property_get@plt>
     baa:	2800      	cmp	r0, #0
     bac:	d10f      	bne.n	bce <testProperties+0x3e>
     bae:	e7ff      	b.n	bb0 <testProperties+0x20>
    {
        LOGE("error");
     bb0:	483a      	ldr	r0, [pc, #232]	; (c9c <testProperties+0x10c>)
     bb2:	4478      	add	r0, pc
     bb4:	493a      	ldr	r1, [pc, #232]	; (ca0 <testProperties+0x110>)
     bb6:	4479      	add	r1, pc
     bb8:	2206      	movs	r2, #6
     bba:	900f      	str	r0, [sp, #60]	; 0x3c
     bbc:	4610      	mov	r0, r2
     bbe:	9a0f      	ldr	r2, [sp, #60]	; 0x3c
     bc0:	910e      	str	r1, [sp, #56]	; 0x38
     bc2:	4611      	mov	r1, r2
     bc4:	9a0e      	ldr	r2, [sp, #56]	; 0x38
     bc6:	f7ff eeba 	blx	93c <__android_log_print@plt>
    }
     bca:	900d      	str	r0, [sp, #52]	; 0x34
     bcc:	e00f      	b.n	bee <testProperties+0x5e>
    else
    {
        LOGW("product model: %s", value);
     bce:	4831      	ldr	r0, [pc, #196]	; (c94 <testProperties+0x104>)
     bd0:	4478      	add	r0, pc
     bd2:	4931      	ldr	r1, [pc, #196]	; (c98 <testProperties+0x108>)
     bd4:	4479      	add	r1, pc
     bd6:	2205      	movs	r2, #5
     bd8:	ab30      	add	r3, sp, #192	; 0xc0
     bda:	900c      	str	r0, [sp, #48]	; 0x30
     bdc:	4610      	mov	r0, r2
     bde:	9a0c      	ldr	r2, [sp, #48]	; 0x30
     be0:	910b      	str	r1, [sp, #44]	; 0x2c
     be2:	4611      	mov	r1, r2
     be4:	9a0b      	ldr	r2, [sp, #44]	; 0x2c
     be6:	f7ff eeaa 	blx	93c <__android_log_print@plt>
     bea:	900a      	str	r0, [sp, #40]	; 0x28
     bec:	e7ff      	b.n	bee <testProperties+0x5e>
    }

    const prop_info *property;
    property = __system_property_find("ro.product.model");
     bee:	482d      	ldr	r0, [pc, #180]	; (ca4 <testProperties+0x114>)
     bf0:	4478      	add	r0, pc
     bf2:	f7ff eebc 	blx	96c <__system_property_find@plt>
     bf6:	9010      	str	r0, [sp, #64]	; 0x40
    if( NULL == property )
     bf8:	9810      	ldr	r0, [sp, #64]	; 0x40
     bfa:	2800      	cmp	r0, #0
     bfc:	d10f      	bne.n	c1e <testProperties+0x8e>
     bfe:	e7ff      	b.n	c00 <testProperties+0x70>
    {
        LOGE("error");
     c00:	482d      	ldr	r0, [pc, #180]	; (cb8 <testProperties+0x128>)
     c02:	4478      	add	r0, pc
     c04:	492d      	ldr	r1, [pc, #180]	; (cbc <testProperties+0x12c>)
     c06:	4479      	add	r1, pc
     c08:	2206      	movs	r2, #6
     c0a:	9009      	str	r0, [sp, #36]	; 0x24
     c0c:	4610      	mov	r0, r2
     c0e:	9a09      	ldr	r2, [sp, #36]	; 0x24
     c10:	9108      	str	r1, [sp, #32]
     c12:	4611      	mov	r1, r2
     c14:	9a08      	ldr	r2, [sp, #32]
     c16:	f7ff ee92 	blx	93c <__android_log_print@plt>
    }
     c1a:	9007      	str	r0, [sp, #28]
     c1c:	e02a      	b.n	c74 <testProperties+0xe4>
    else
    {
        char name[PROP_NAME_MAX];
        char value[PROP_VALUE_MAX];
        if( 0 == __system_property_read(property, name, value))
     c1e:	9810      	ldr	r0, [sp, #64]	; 0x40
     c20:	a928      	add	r1, sp, #160	; 0xa0
     c22:	aa11      	add	r2, sp, #68	; 0x44
     c24:	f7ff eea8 	blx	978 <__system_property_read@plt>
     c28:	2800      	cmp	r0, #0
     c2a:	d10f      	bne.n	c4c <testProperties+0xbc>
     c2c:	e7ff      	b.n	c2e <testProperties+0x9e>
        {
            LOGE("is empty");
     c2e:	4820      	ldr	r0, [pc, #128]	; (cb0 <testProperties+0x120>)
     c30:	4478      	add	r0, pc
     c32:	4920      	ldr	r1, [pc, #128]	; (cb4 <testProperties+0x124>)
     c34:	4479      	add	r1, pc
     c36:	2206      	movs	r2, #6
     c38:	9006      	str	r0, [sp, #24]
     c3a:	4610      	mov	r0, r2
     c3c:	9a06      	ldr	r2, [sp, #24]
     c3e:	9105      	str	r1, [sp, #20]
     c40:	4611      	mov	r1, r2
     c42:	9a05      	ldr	r2, [sp, #20]
     c44:	f7ff ee7a 	blx	93c <__android_log_print@plt>
        }
     c48:	9004      	str	r0, [sp, #16]
     c4a:	e012      	b.n	c72 <testProperties+0xe2>
        else
        {
            LOGW("%s, %s", name, value);
     c4c:	4668      	mov	r0, sp
     c4e:	a911      	add	r1, sp, #68	; 0x44
     c50:	6001      	str	r1, [r0, #0]
     c52:	4815      	ldr	r0, [pc, #84]	; (ca8 <testProperties+0x118>)
     c54:	4478      	add	r0, pc
     c56:	4915      	ldr	r1, [pc, #84]	; (cac <testProperties+0x11c>)
     c58:	4479      	add	r1, pc
     c5a:	2205      	movs	r2, #5
     c5c:	ab28      	add	r3, sp, #160	; 0xa0
     c5e:	9003      	str	r0, [sp, #12]
     c60:	4610      	mov	r0, r2
     c62:	9a03      	ldr	r2, [sp, #12]
     c64:	9102      	str	r1, [sp, #8]
     c66:	4611      	mov	r1, r2
     c68:	9a02      	ldr	r2, [sp, #8]
     c6a:	f7ff ee68 	blx	93c <__android_log_print@plt>
     c6e:	9001      	str	r0, [sp, #4]
     c70:	e7ff      	b.n	c72 <testProperties+0xe2>
     c72:	e7ff      	b.n	c74 <testProperties+0xe4>
     c74:	4812      	ldr	r0, [pc, #72]	; (cc0 <testProperties+0x130>)
     c76:	4478      	add	r0, pc
     c78:	6800      	ldr	r0, [r0, #0]
     c7a:	6800      	ldr	r0, [r0, #0]
     c7c:	9947      	ldr	r1, [sp, #284]	; 0x11c
     c7e:	4288      	cmp	r0, r1
     c80:	d102      	bne.n	c88 <testProperties+0xf8>
     c82:	e7ff      	b.n	c84 <testProperties+0xf4>
        }
    }
    return;
     c84:	b048      	add	sp, #288	; 0x120
     c86:	bd80      	pop	{r7, pc}
     c88:	f7ff ee64 	blx	954 <__stack_chk_fail@plt>
     c8c:	000033d8 	ldrdeq	r3, [r0], -r8
     c90:	000018dd 	ldrdeq	r1, [r0], -sp
     c94:	0000185a 	andeq	r1, r0, sl, asr r8
     c98:	000018c2 	andeq	r1, r0, r2, asr #17
     c9c:	00001878 	andeq	r1, r0, r8, ror r8
     ca0:	000018da 	ldrdeq	r1, [r0], -sl
     ca4:	0000188f 	andeq	r1, r0, pc, lsl #17
     ca8:	000017d6 	ldrdeq	r1, [r0], -r6
     cac:	00001859 	andeq	r1, r0, r9, asr r8
     cb0:	000017fa 	strdeq	r1, [r0], -sl
     cb4:	00001874 	andeq	r1, r0, r4, ror r8
     cb8:	00001828 	andeq	r1, r0, r8, lsr #16
     cbc:	0000188a 	andeq	r1, r0, sl, lsl #17
     cc0:	000032fa 	strdeq	r3, [r0], -sl

00000cc4 <testOnePara>:
{
    LOGE(" %s", __FUNCTION__ );
}

void testOnePara(int a1 )
{
     cc4:	b580      	push	{r7, lr}
     cc6:	466f      	mov	r7, sp
     cc8:	b086      	sub	sp, #24
     cca:	4601      	mov	r1, r0
     ccc:	9005      	str	r0, [sp, #20]
    LOGE("%s, %d, ", __FUNCTION__, a1);
     cce:	9805      	ldr	r0, [sp, #20]
     cd0:	466a      	mov	r2, sp
     cd2:	6010      	str	r0, [r2, #0]
     cd4:	4809      	ldr	r0, [pc, #36]	; (cfc <testOnePara+0x38>)
     cd6:	4478      	add	r0, pc
     cd8:	4a09      	ldr	r2, [pc, #36]	; (d00 <testOnePara+0x3c>)
     cda:	447a      	add	r2, pc
     cdc:	4b09      	ldr	r3, [pc, #36]	; (d04 <testOnePara+0x40>)
     cde:	447b      	add	r3, pc
     ce0:	f04f 0c06 	mov.w	ip, #6
     ce4:	9004      	str	r0, [sp, #16]
     ce6:	4660      	mov	r0, ip
     ce8:	f8dd c010 	ldr.w	ip, [sp, #16]
     cec:	9103      	str	r1, [sp, #12]
     cee:	4661      	mov	r1, ip
     cf0:	f7ff ee24 	blx	93c <__android_log_print@plt>
}
     cf4:	9002      	str	r0, [sp, #8]
     cf6:	b006      	add	sp, #24
     cf8:	bd80      	pop	{r7, pc}
     cfa:	bf00      	nop
     cfc:	00001754 	andeq	r1, r0, r4, asr r7
     d00:	000017de 	ldrdeq	r1, [r0], -lr
     d04:	000017e3 	andeq	r1, r0, r3, ror #15

00000d08 <testParameter>:
void testParameter(int a1,  int a2, int a3, int a4, int a5, int a6, int a7, int a8, int a9, int a10,
          int a11,  int a12, int a13, int a14, int a15, int a16, int a17, int a18, int a19, int a20,
          int a21, int a22, int a23, int a24, int a25, int a26, int a27, int a28, int a29, int a30,
          int a31, int a32, int a33, int a34, int a35, int a36, int a37, int a38, int a39, int a40,
          int a41, int a42, int a43, int a44, int a45, int a46, int a47, int a48, int a49, int a50)
{
     d08:	b5f0      	push	{r4, r5, r6, r7, lr}
     d0a:	af03      	add	r7, sp, #12
     d0c:	e92d 0f00 	stmdb	sp!, {r8, r9, sl, fp}
     d10:	f5ad 7d1b 	sub.w	sp, sp, #620	; 0x26c
     d14:	f8d7 c0bc 	ldr.w	ip, [r7, #188]	; 0xbc
     d18:	f8d7 e0b8 	ldr.w	lr, [r7, #184]	; 0xb8
     d1c:	f8d7 40b4 	ldr.w	r4, [r7, #180]	; 0xb4
     d20:	f8d7 50b0 	ldr.w	r5, [r7, #176]	; 0xb0
     d24:	f8d7 60ac 	ldr.w	r6, [r7, #172]	; 0xac
     d28:	f8d7 80a8 	ldr.w	r8, [r7, #168]	; 0xa8
     d2c:	f8d7 90a4 	ldr.w	r9, [r7, #164]	; 0xa4
     d30:	f8d7 a0a0 	ldr.w	sl, [r7, #160]	; 0xa0
     d34:	f8d7 b09c 	ldr.w	fp, [r7, #156]	; 0x9c
     d38:	9096      	str	r0, [sp, #600]	; 0x258
     d3a:	f8d7 0098 	ldr.w	r0, [r7, #152]	; 0x98
     d3e:	9095      	str	r0, [sp, #596]	; 0x254
     d40:	f8d7 0094 	ldr.w	r0, [r7, #148]	; 0x94
     d44:	9094      	str	r0, [sp, #592]	; 0x250
     d46:	f8d7 0090 	ldr.w	r0, [r7, #144]	; 0x90
     d4a:	9093      	str	r0, [sp, #588]	; 0x24c
     d4c:	f8d7 008c 	ldr.w	r0, [r7, #140]	; 0x8c
     d50:	9092      	str	r0, [sp, #584]	; 0x248
     d52:	f8d7 0088 	ldr.w	r0, [r7, #136]	; 0x88
     d56:	9091      	str	r0, [sp, #580]	; 0x244
     d58:	f8d7 0084 	ldr.w	r0, [r7, #132]	; 0x84
     d5c:	9090      	str	r0, [sp, #576]	; 0x240
     d5e:	f8d7 0080 	ldr.w	r0, [r7, #128]	; 0x80
     d62:	908f      	str	r0, [sp, #572]	; 0x23c
     d64:	6ff8      	ldr	r0, [r7, #124]	; 0x7c
     d66:	908e      	str	r0, [sp, #568]	; 0x238
     d68:	6fb8      	ldr	r0, [r7, #120]	; 0x78
     d6a:	908d      	str	r0, [sp, #564]	; 0x234
     d6c:	6f78      	ldr	r0, [r7, #116]	; 0x74
     d6e:	908c      	str	r0, [sp, #560]	; 0x230
     d70:	6f38      	ldr	r0, [r7, #112]	; 0x70
     d72:	908b      	str	r0, [sp, #556]	; 0x22c
     d74:	6ef8      	ldr	r0, [r7, #108]	; 0x6c
     d76:	908a      	str	r0, [sp, #552]	; 0x228
     d78:	6eb8      	ldr	r0, [r7, #104]	; 0x68
     d7a:	9089      	str	r0, [sp, #548]	; 0x224
     d7c:	6e78      	ldr	r0, [r7, #100]	; 0x64
     d7e:	9088      	str	r0, [sp, #544]	; 0x220
     d80:	6e38      	ldr	r0, [r7, #96]	; 0x60
     d82:	9087      	str	r0, [sp, #540]	; 0x21c
     d84:	6df8      	ldr	r0, [r7, #92]	; 0x5c
     d86:	9086      	str	r0, [sp, #536]	; 0x218
     d88:	6db8      	ldr	r0, [r7, #88]	; 0x58
     d8a:	9085      	str	r0, [sp, #532]	; 0x214
     d8c:	6d78      	ldr	r0, [r7, #84]	; 0x54
     d8e:	9084      	str	r0, [sp, #528]	; 0x210
     d90:	6d38      	ldr	r0, [r7, #80]	; 0x50
     d92:	9083      	str	r0, [sp, #524]	; 0x20c
     d94:	6cf8      	ldr	r0, [r7, #76]	; 0x4c
     d96:	9082      	str	r0, [sp, #520]	; 0x208
     d98:	6cb8      	ldr	r0, [r7, #72]	; 0x48
     d9a:	9081      	str	r0, [sp, #516]	; 0x204
     d9c:	6c78      	ldr	r0, [r7, #68]	; 0x44
     d9e:	9080      	str	r0, [sp, #512]	; 0x200
     da0:	6c38      	ldr	r0, [r7, #64]	; 0x40
     da2:	907f      	str	r0, [sp, #508]	; 0x1fc
     da4:	6bf8      	ldr	r0, [r7, #60]	; 0x3c
     da6:	907e      	str	r0, [sp, #504]	; 0x1f8
     da8:	6bb8      	ldr	r0, [r7, #56]	; 0x38
     daa:	907d      	str	r0, [sp, #500]	; 0x1f4
     dac:	6b78      	ldr	r0, [r7, #52]	; 0x34
     dae:	907c      	str	r0, [sp, #496]	; 0x1f0
     db0:	6b38      	ldr	r0, [r7, #48]	; 0x30
     db2:	907b      	str	r0, [sp, #492]	; 0x1ec
     db4:	6af8      	ldr	r0, [r7, #44]	; 0x2c
     db6:	907a      	str	r0, [sp, #488]	; 0x1e8
     db8:	6ab8      	ldr	r0, [r7, #40]	; 0x28
     dba:	9079      	str	r0, [sp, #484]	; 0x1e4
     dbc:	6a78      	ldr	r0, [r7, #36]	; 0x24
     dbe:	9078      	str	r0, [sp, #480]	; 0x1e0
     dc0:	6a38      	ldr	r0, [r7, #32]
     dc2:	9077      	str	r0, [sp, #476]	; 0x1dc
     dc4:	69f8      	ldr	r0, [r7, #28]
     dc6:	9076      	str	r0, [sp, #472]	; 0x1d8
     dc8:	69b8      	ldr	r0, [r7, #24]
     dca:	9075      	str	r0, [sp, #468]	; 0x1d4
     dcc:	6978      	ldr	r0, [r7, #20]
     dce:	9074      	str	r0, [sp, #464]	; 0x1d0
     dd0:	6938      	ldr	r0, [r7, #16]
     dd2:	9073      	str	r0, [sp, #460]	; 0x1cc
     dd4:	68f8      	ldr	r0, [r7, #12]
     dd6:	9072      	str	r0, [sp, #456]	; 0x1c8
     dd8:	68b8      	ldr	r0, [r7, #8]
     dda:	9071      	str	r0, [sp, #452]	; 0x1c4
     ddc:	4618      	mov	r0, r3
     dde:	9070      	str	r0, [sp, #448]	; 0x1c0
     de0:	4610      	mov	r0, r2
     de2:	906f      	str	r0, [sp, #444]	; 0x1bc
     de4:	4608      	mov	r0, r1
     de6:	906e      	str	r0, [sp, #440]	; 0x1b8
     de8:	9896      	ldr	r0, [sp, #600]	; 0x258
     dea:	906d      	str	r0, [sp, #436]	; 0x1b4
     dec:	9896      	ldr	r0, [sp, #600]	; 0x258
     dee:	909a      	str	r0, [sp, #616]	; 0x268
     df0:	9199      	str	r1, [sp, #612]	; 0x264
     df2:	9298      	str	r2, [sp, #608]	; 0x260
     df4:	9397      	str	r3, [sp, #604]	; 0x25c
    LOGE("%d, %d, %d, %d, %d, %d, %d, %d, %d, %d, \
     df6:	9b9a      	ldr	r3, [sp, #616]	; 0x268
     df8:	9999      	ldr	r1, [sp, #612]	; 0x264
     dfa:	9a98      	ldr	r2, [sp, #608]	; 0x260
     dfc:	9897      	ldr	r0, [sp, #604]	; 0x25c
     dfe:	906c      	str	r0, [sp, #432]	; 0x1b0
     e00:	68b8      	ldr	r0, [r7, #8]
     e02:	906b      	str	r0, [sp, #428]	; 0x1ac
     e04:	68f8      	ldr	r0, [r7, #12]
     e06:	906a      	str	r0, [sp, #424]	; 0x1a8
     e08:	6938      	ldr	r0, [r7, #16]
     e0a:	9069      	str	r0, [sp, #420]	; 0x1a4
     e0c:	6978      	ldr	r0, [r7, #20]
     e0e:	9068      	str	r0, [sp, #416]	; 0x1a0
     e10:	69b8      	ldr	r0, [r7, #24]
     e12:	9067      	str	r0, [sp, #412]	; 0x19c
     e14:	69f8      	ldr	r0, [r7, #28]
     e16:	9066      	str	r0, [sp, #408]	; 0x198
     e18:	6a38      	ldr	r0, [r7, #32]
     e1a:	9065      	str	r0, [sp, #404]	; 0x194
     e1c:	6a78      	ldr	r0, [r7, #36]	; 0x24
     e1e:	9064      	str	r0, [sp, #400]	; 0x190
     e20:	6ab8      	ldr	r0, [r7, #40]	; 0x28
     e22:	9063      	str	r0, [sp, #396]	; 0x18c
     e24:	6af8      	ldr	r0, [r7, #44]	; 0x2c
     e26:	9062      	str	r0, [sp, #392]	; 0x188
     e28:	6b38      	ldr	r0, [r7, #48]	; 0x30
     e2a:	9061      	str	r0, [sp, #388]	; 0x184
     e2c:	6b78      	ldr	r0, [r7, #52]	; 0x34
     e2e:	9060      	str	r0, [sp, #384]	; 0x180
     e30:	6bb8      	ldr	r0, [r7, #56]	; 0x38
     e32:	905f      	str	r0, [sp, #380]	; 0x17c
     e34:	6bf8      	ldr	r0, [r7, #60]	; 0x3c
     e36:	905e      	str	r0, [sp, #376]	; 0x178
     e38:	6c38      	ldr	r0, [r7, #64]	; 0x40
     e3a:	905d      	str	r0, [sp, #372]	; 0x174
     e3c:	6c78      	ldr	r0, [r7, #68]	; 0x44
     e3e:	905c      	str	r0, [sp, #368]	; 0x170
     e40:	6cb8      	ldr	r0, [r7, #72]	; 0x48
     e42:	905b      	str	r0, [sp, #364]	; 0x16c
     e44:	6cf8      	ldr	r0, [r7, #76]	; 0x4c
     e46:	905a      	str	r0, [sp, #360]	; 0x168
     e48:	6d38      	ldr	r0, [r7, #80]	; 0x50
     e4a:	9059      	str	r0, [sp, #356]	; 0x164
     e4c:	6d78      	ldr	r0, [r7, #84]	; 0x54
     e4e:	9058      	str	r0, [sp, #352]	; 0x160
     e50:	6db8      	ldr	r0, [r7, #88]	; 0x58
     e52:	9057      	str	r0, [sp, #348]	; 0x15c
     e54:	6df8      	ldr	r0, [r7, #92]	; 0x5c
     e56:	9056      	str	r0, [sp, #344]	; 0x158
     e58:	6e38      	ldr	r0, [r7, #96]	; 0x60
     e5a:	9055      	str	r0, [sp, #340]	; 0x154
     e5c:	6e78      	ldr	r0, [r7, #100]	; 0x64
     e5e:	9054      	str	r0, [sp, #336]	; 0x150
     e60:	6eb8      	ldr	r0, [r7, #104]	; 0x68
     e62:	9053      	str	r0, [sp, #332]	; 0x14c
     e64:	6ef8      	ldr	r0, [r7, #108]	; 0x6c
     e66:	9052      	str	r0, [sp, #328]	; 0x148
     e68:	6f38      	ldr	r0, [r7, #112]	; 0x70
     e6a:	9051      	str	r0, [sp, #324]	; 0x144
     e6c:	6f78      	ldr	r0, [r7, #116]	; 0x74
     e6e:	9050      	str	r0, [sp, #320]	; 0x140
     e70:	6fb8      	ldr	r0, [r7, #120]	; 0x78
     e72:	904f      	str	r0, [sp, #316]	; 0x13c
     e74:	6ff8      	ldr	r0, [r7, #124]	; 0x7c
     e76:	904e      	str	r0, [sp, #312]	; 0x138
     e78:	f8d7 0080 	ldr.w	r0, [r7, #128]	; 0x80
     e7c:	904d      	str	r0, [sp, #308]	; 0x134
     e7e:	f8d7 0084 	ldr.w	r0, [r7, #132]	; 0x84
     e82:	904c      	str	r0, [sp, #304]	; 0x130
     e84:	f8d7 0088 	ldr.w	r0, [r7, #136]	; 0x88
     e88:	904b      	str	r0, [sp, #300]	; 0x12c
     e8a:	f8d7 008c 	ldr.w	r0, [r7, #140]	; 0x8c
     e8e:	904a      	str	r0, [sp, #296]	; 0x128
     e90:	f8d7 0090 	ldr.w	r0, [r7, #144]	; 0x90
     e94:	9049      	str	r0, [sp, #292]	; 0x124
     e96:	f8d7 0094 	ldr.w	r0, [r7, #148]	; 0x94
     e9a:	9048      	str	r0, [sp, #288]	; 0x120
     e9c:	f8d7 0098 	ldr.w	r0, [r7, #152]	; 0x98
     ea0:	9047      	str	r0, [sp, #284]	; 0x11c
     ea2:	f8d7 009c 	ldr.w	r0, [r7, #156]	; 0x9c
     ea6:	9046      	str	r0, [sp, #280]	; 0x118
     ea8:	f8d7 00a0 	ldr.w	r0, [r7, #160]	; 0xa0
     eac:	9045      	str	r0, [sp, #276]	; 0x114
     eae:	f8d7 00a4 	ldr.w	r0, [r7, #164]	; 0xa4
     eb2:	9044      	str	r0, [sp, #272]	; 0x110
     eb4:	f8d7 00a8 	ldr.w	r0, [r7, #168]	; 0xa8
     eb8:	9043      	str	r0, [sp, #268]	; 0x10c
     eba:	f8d7 00ac 	ldr.w	r0, [r7, #172]	; 0xac
     ebe:	9042      	str	r0, [sp, #264]	; 0x108
     ec0:	f8d7 00b0 	ldr.w	r0, [r7, #176]	; 0xb0
     ec4:	9041      	str	r0, [sp, #260]	; 0x104
     ec6:	f8d7 00b4 	ldr.w	r0, [r7, #180]	; 0xb4
     eca:	9040      	str	r0, [sp, #256]	; 0x100
     ecc:	f8d7 00b8 	ldr.w	r0, [r7, #184]	; 0xb8
     ed0:	903f      	str	r0, [sp, #252]	; 0xfc
     ed2:	f8d7 00bc 	ldr.w	r0, [r7, #188]	; 0xbc
     ed6:	903e      	str	r0, [sp, #248]	; 0xf8
     ed8:	4668      	mov	r0, sp
     eda:	903d      	str	r0, [sp, #244]	; 0xf4
     edc:	983e      	ldr	r0, [sp, #248]	; 0xf8
     ede:	913c      	str	r1, [sp, #240]	; 0xf0
     ee0:	993d      	ldr	r1, [sp, #244]	; 0xf4
     ee2:	f8c1 00c0 	str.w	r0, [r1, #192]	; 0xc0
     ee6:	983f      	ldr	r0, [sp, #252]	; 0xfc
     ee8:	f8c1 00bc 	str.w	r0, [r1, #188]	; 0xbc
     eec:	9840      	ldr	r0, [sp, #256]	; 0x100
     eee:	f8c1 00b8 	str.w	r0, [r1, #184]	; 0xb8
     ef2:	9841      	ldr	r0, [sp, #260]	; 0x104
     ef4:	f8c1 00b4 	str.w	r0, [r1, #180]	; 0xb4
     ef8:	9842      	ldr	r0, [sp, #264]	; 0x108
     efa:	f8c1 00b0 	str.w	r0, [r1, #176]	; 0xb0
     efe:	9843      	ldr	r0, [sp, #268]	; 0x10c
     f00:	f8c1 00ac 	str.w	r0, [r1, #172]	; 0xac
     f04:	9844      	ldr	r0, [sp, #272]	; 0x110
     f06:	f8c1 00a8 	str.w	r0, [r1, #168]	; 0xa8
     f0a:	9845      	ldr	r0, [sp, #276]	; 0x114
     f0c:	f8c1 00a4 	str.w	r0, [r1, #164]	; 0xa4
     f10:	9846      	ldr	r0, [sp, #280]	; 0x118
     f12:	f8c1 00a0 	str.w	r0, [r1, #160]	; 0xa0
     f16:	9847      	ldr	r0, [sp, #284]	; 0x11c
     f18:	f8c1 009c 	str.w	r0, [r1, #156]	; 0x9c
     f1c:	9848      	ldr	r0, [sp, #288]	; 0x120
     f1e:	f8c1 0098 	str.w	r0, [r1, #152]	; 0x98
     f22:	9849      	ldr	r0, [sp, #292]	; 0x124
     f24:	f8c1 0094 	str.w	r0, [r1, #148]	; 0x94
     f28:	984a      	ldr	r0, [sp, #296]	; 0x128
     f2a:	f8c1 0090 	str.w	r0, [r1, #144]	; 0x90
     f2e:	984b      	ldr	r0, [sp, #300]	; 0x12c
     f30:	f8c1 008c 	str.w	r0, [r1, #140]	; 0x8c
     f34:	984c      	ldr	r0, [sp, #304]	; 0x130
     f36:	f8c1 0088 	str.w	r0, [r1, #136]	; 0x88
     f3a:	984d      	ldr	r0, [sp, #308]	; 0x134
     f3c:	f8c1 0084 	str.w	r0, [r1, #132]	; 0x84
     f40:	984e      	ldr	r0, [sp, #312]	; 0x138
     f42:	f8c1 0080 	str.w	r0, [r1, #128]	; 0x80
     f46:	984f      	ldr	r0, [sp, #316]	; 0x13c
     f48:	67c8      	str	r0, [r1, #124]	; 0x7c
     f4a:	9850      	ldr	r0, [sp, #320]	; 0x140
     f4c:	6788      	str	r0, [r1, #120]	; 0x78
     f4e:	9851      	ldr	r0, [sp, #324]	; 0x144
     f50:	6748      	str	r0, [r1, #116]	; 0x74
     f52:	9852      	ldr	r0, [sp, #328]	; 0x148
     f54:	6708      	str	r0, [r1, #112]	; 0x70
     f56:	9853      	ldr	r0, [sp, #332]	; 0x14c
     f58:	66c8      	str	r0, [r1, #108]	; 0x6c
     f5a:	9854      	ldr	r0, [sp, #336]	; 0x150
     f5c:	6688      	str	r0, [r1, #104]	; 0x68
     f5e:	9855      	ldr	r0, [sp, #340]	; 0x154
     f60:	6648      	str	r0, [r1, #100]	; 0x64
     f62:	9856      	ldr	r0, [sp, #344]	; 0x158
     f64:	6608      	str	r0, [r1, #96]	; 0x60
     f66:	9857      	ldr	r0, [sp, #348]	; 0x15c
     f68:	65c8      	str	r0, [r1, #92]	; 0x5c
     f6a:	9858      	ldr	r0, [sp, #352]	; 0x160
     f6c:	6588      	str	r0, [r1, #88]	; 0x58
     f6e:	9859      	ldr	r0, [sp, #356]	; 0x164
     f70:	6548      	str	r0, [r1, #84]	; 0x54
     f72:	985a      	ldr	r0, [sp, #360]	; 0x168
     f74:	6508      	str	r0, [r1, #80]	; 0x50
     f76:	985b      	ldr	r0, [sp, #364]	; 0x16c
     f78:	64c8      	str	r0, [r1, #76]	; 0x4c
     f7a:	985c      	ldr	r0, [sp, #368]	; 0x170
     f7c:	6488      	str	r0, [r1, #72]	; 0x48
     f7e:	985d      	ldr	r0, [sp, #372]	; 0x174
     f80:	6448      	str	r0, [r1, #68]	; 0x44
     f82:	985e      	ldr	r0, [sp, #376]	; 0x178
     f84:	6408      	str	r0, [r1, #64]	; 0x40
     f86:	985f      	ldr	r0, [sp, #380]	; 0x17c
     f88:	63c8      	str	r0, [r1, #60]	; 0x3c
     f8a:	9860      	ldr	r0, [sp, #384]	; 0x180
     f8c:	6388      	str	r0, [r1, #56]	; 0x38
     f8e:	9861      	ldr	r0, [sp, #388]	; 0x184
     f90:	6348      	str	r0, [r1, #52]	; 0x34
     f92:	9862      	ldr	r0, [sp, #392]	; 0x188
     f94:	6308      	str	r0, [r1, #48]	; 0x30
     f96:	9863      	ldr	r0, [sp, #396]	; 0x18c
     f98:	62c8      	str	r0, [r1, #44]	; 0x2c
     f9a:	9864      	ldr	r0, [sp, #400]	; 0x190
     f9c:	6288      	str	r0, [r1, #40]	; 0x28
     f9e:	9865      	ldr	r0, [sp, #404]	; 0x194
     fa0:	6248      	str	r0, [r1, #36]	; 0x24
     fa2:	9866      	ldr	r0, [sp, #408]	; 0x198
     fa4:	6208      	str	r0, [r1, #32]
     fa6:	9867      	ldr	r0, [sp, #412]	; 0x19c
     fa8:	61c8      	str	r0, [r1, #28]
     faa:	9868      	ldr	r0, [sp, #416]	; 0x1a0
     fac:	6188      	str	r0, [r1, #24]
     fae:	9869      	ldr	r0, [sp, #420]	; 0x1a4
     fb0:	6148      	str	r0, [r1, #20]
     fb2:	986a      	ldr	r0, [sp, #424]	; 0x1a8
     fb4:	6108      	str	r0, [r1, #16]
     fb6:	986b      	ldr	r0, [sp, #428]	; 0x1ac
     fb8:	60c8      	str	r0, [r1, #12]
     fba:	986c      	ldr	r0, [sp, #432]	; 0x1b0
     fbc:	6088      	str	r0, [r1, #8]
     fbe:	604a      	str	r2, [r1, #4]
     fc0:	983c      	ldr	r0, [sp, #240]	; 0xf0
     fc2:	6008      	str	r0, [r1, #0]
     fc4:	480f      	ldr	r0, [pc, #60]	; (1004 <testParameter+0x2fc>)
     fc6:	4478      	add	r0, pc
     fc8:	4a0f      	ldr	r2, [pc, #60]	; (1008 <testParameter+0x300>)
     fca:	447a      	add	r2, pc
     fcc:	2106      	movs	r1, #6
     fce:	903b      	str	r0, [sp, #236]	; 0xec
     fd0:	4608      	mov	r0, r1
     fd2:	993b      	ldr	r1, [sp, #236]	; 0xec
     fd4:	f8cd 90e8 	str.w	r9, [sp, #232]	; 0xe8
     fd8:	f8cd a0e4 	str.w	sl, [sp, #228]	; 0xe4
     fdc:	f8cd b0e0 	str.w	fp, [sp, #224]	; 0xe0
     fe0:	f8cd 80dc 	str.w	r8, [sp, #220]	; 0xdc
     fe4:	f8cd c0d8 	str.w	ip, [sp, #216]	; 0xd8
     fe8:	f8cd e0d4 	str.w	lr, [sp, #212]	; 0xd4
     fec:	9434      	str	r4, [sp, #208]	; 0xd0
     fee:	9533      	str	r5, [sp, #204]	; 0xcc
     ff0:	9632      	str	r6, [sp, #200]	; 0xc8
     ff2:	f7ff eca4 	blx	93c <__android_log_print@plt>
         a1,   a2, a3,  a4,  a5,  a6,  a7,  a8,  a9,  a10,
         a11,  a12, a13,  a14,  a15,  a16,  a17,  a18,  a19,  a20,
         a21,  a22, a23,  a24,  a25,  a26,  a27,  a28,  a29,  a30,
         a31,  a32, a33,  a34,  a35,  a36,  a37,  a38,  a39,  a40,
         a41,  a42, a43,  a44,  a45,  a46,  a47,  a48,  a49,  a50);
    return;
     ff6:	9031      	str	r0, [sp, #196]	; 0xc4
     ff8:	f50d 7d1b 	add.w	sp, sp, #620	; 0x26c
     ffc:	e8bd 0f00 	ldmia.w	sp!, {r8, r9, sl, fp}
    1000:	bdf0      	pop	{r4, r5, r6, r7, pc}
    1002:	bf00      	nop
    1004:	00001464 	andeq	r1, r0, r4, ror #8
    1008:	00001503 	andeq	r1, r0, r3, lsl #10

0000100c <willCrash>:
//    LOGE("Fun : %s, ai : %d", __FUNCTION__, i );
//}


void willCrash()
{
    100c:	b580      	push	{r7, lr}
    100e:	466f      	mov	r7, sp
    1010:	b086      	sub	sp, #24
    1012:	2000      	movs	r0, #0
    int *p = NULL;
    1014:	9005      	str	r0, [sp, #20]
    *p = 10;
    1016:	9805      	ldr	r0, [sp, #20]
    1018:	210a      	movs	r1, #10
    101a:	6001      	str	r1, [r0, #0]
    LOGE("Fun : %s, Line : %d", __FUNCTION__, __LINE__ );
    101c:	4668      	mov	r0, sp
    101e:	2188      	movs	r1, #136	; 0x88
    1020:	6001      	str	r1, [r0, #0]
    1022:	480b      	ldr	r0, [pc, #44]	; (1050 <willCrash+0x44>)
    1024:	4478      	add	r0, pc
    1026:	490b      	ldr	r1, [pc, #44]	; (1054 <willCrash+0x48>)
    1028:	4479      	add	r1, pc
    102a:	4a0b      	ldr	r2, [pc, #44]	; (1058 <willCrash+0x4c>)
    102c:	447a      	add	r2, pc
    102e:	2306      	movs	r3, #6
    1030:	9004      	str	r0, [sp, #16]
    1032:	4618      	mov	r0, r3
    1034:	9b04      	ldr	r3, [sp, #16]
    1036:	9103      	str	r1, [sp, #12]
    1038:	4619      	mov	r1, r3
    103a:	f8dd c00c 	ldr.w	ip, [sp, #12]
    103e:	9202      	str	r2, [sp, #8]
    1040:	4662      	mov	r2, ip
    1042:	9b02      	ldr	r3, [sp, #8]
    1044:	f7ff ec7a 	blx	93c <__android_log_print@plt>
}
    1048:	9001      	str	r0, [sp, #4]
    104a:	b006      	add	sp, #24
    104c:	bd80      	pop	{r7, pc}
    104e:	bf00      	nop
    1050:	00001406 	andeq	r1, r0, r6, lsl #8
    1054:	000015b0 			; <UNDEFINED> instruction: 0x000015b0
    1058:	000015c0 	andeq	r1, r0, r0, asr #11

0000105c <testString>:

void testString(char *pdata )
{
    105c:	b580      	push	{r7, lr}
    105e:	466f      	mov	r7, sp
    1060:	b086      	sub	sp, #24
    1062:	4601      	mov	r1, r0
    1064:	9005      	str	r0, [sp, #20]
    pdata[0] = 'a';
    1066:	9805      	ldr	r0, [sp, #20]
    1068:	2261      	movs	r2, #97	; 0x61
    106a:	7002      	strb	r2, [r0, #0]
    LOGE("Fun : %s, Line : %d", __FUNCTION__, __LINE__ );
    106c:	4668      	mov	r0, sp
    106e:	228e      	movs	r2, #142	; 0x8e
    1070:	6002      	str	r2, [r0, #0]
    1072:	4809      	ldr	r0, [pc, #36]	; (1098 <testString+0x3c>)
    1074:	4478      	add	r0, pc
    1076:	4a09      	ldr	r2, [pc, #36]	; (109c <testString+0x40>)
    1078:	447a      	add	r2, pc
    107a:	4b09      	ldr	r3, [pc, #36]	; (10a0 <testString+0x44>)
    107c:	447b      	add	r3, pc
    107e:	f04f 0c06 	mov.w	ip, #6
    1082:	9004      	str	r0, [sp, #16]
    1084:	4660      	mov	r0, ip
    1086:	f8dd c010 	ldr.w	ip, [sp, #16]
    108a:	9103      	str	r1, [sp, #12]
    108c:	4661      	mov	r1, ip
    108e:	f7ff ec56 	blx	93c <__android_log_print@plt>
}
    1092:	9002      	str	r0, [sp, #8]
    1094:	b006      	add	sp, #24
    1096:	bd80      	pop	{r7, pc}
    1098:	000013b6 			; <UNDEFINED> instruction: 0x000013b6
    109c:	00001560 	andeq	r1, r0, r0, ror #10
    10a0:	0000157a 	andeq	r1, r0, sl, ror r5

000010a4 <Java_com_crash_test_HelloJni_nativeMsg>:

JNIEXPORT void JNICALL
Java_com_crash_test_HelloJni_nativeMsg(JNIEnv* env, jobject thiz)
{
    10a4:	b580      	push	{r7, lr}
    10a6:	466f      	mov	r7, sp
    10a8:	b0c0      	sub	sp, #256	; 0x100
    10aa:	460a      	mov	r2, r1
    10ac:	4603      	mov	r3, r0
    10ae:	903f      	str	r0, [sp, #252]	; 0xfc
    10b0:	913e      	str	r1, [sp, #248]	; 0xf8
    10b2:	2000      	movs	r0, #0
    int result = 0;
    10b4:	903d      	str	r0, [sp, #244]	; 0xf4
//    system("pwd");
    result = system("mkdir /data/data/com.bar.hellojni/temp");
    10b6:	4886      	ldr	r0, [pc, #536]	; (12d0 <Java_com_crash_test_HelloJni_nativeMsg+0x22c>)
    10b8:	4478      	add	r0, pc
    10ba:	9239      	str	r2, [sp, #228]	; 0xe4
    10bc:	9338      	str	r3, [sp, #224]	; 0xe0
    10be:	f7ff ec62 	blx	984 <system@plt>
    10c2:	903d      	str	r0, [sp, #244]	; 0xf4
    if( -1 == result || 127 == result )
    10c4:	983d      	ldr	r0, [sp, #244]	; 0xf4
    10c6:	3001      	adds	r0, #1
    10c8:	2800      	cmp	r0, #0
    10ca:	d004      	beq.n	10d6 <Java_com_crash_test_HelloJni_nativeMsg+0x32>
    10cc:	e7ff      	b.n	10ce <Java_com_crash_test_HelloJni_nativeMsg+0x2a>
    10ce:	983d      	ldr	r0, [sp, #244]	; 0xf4
    10d0:	287f      	cmp	r0, #127	; 0x7f
    10d2:	d10f      	bne.n	10f4 <Java_com_crash_test_HelloJni_nativeMsg+0x50>
    10d4:	e7ff      	b.n	10d6 <Java_com_crash_test_HelloJni_nativeMsg+0x32>
    {
        LOGE("error");
    10d6:	487f      	ldr	r0, [pc, #508]	; (12d4 <Java_com_crash_test_HelloJni_nativeMsg+0x230>)
    10d8:	4478      	add	r0, pc
    10da:	497f      	ldr	r1, [pc, #508]	; (12d8 <Java_com_crash_test_HelloJni_nativeMsg+0x234>)
    10dc:	4479      	add	r1, pc
    10de:	2206      	movs	r2, #6
    10e0:	9037      	str	r0, [sp, #220]	; 0xdc
    10e2:	4610      	mov	r0, r2
    10e4:	9a37      	ldr	r2, [sp, #220]	; 0xdc
    10e6:	9136      	str	r1, [sp, #216]	; 0xd8
    10e8:	4611      	mov	r1, r2
    10ea:	9a36      	ldr	r2, [sp, #216]	; 0xd8
    10ec:	f7ff ec26 	blx	93c <__android_log_print@plt>
    }
    10f0:	9035      	str	r0, [sp, #212]	; 0xd4
    10f2:	e7ff      	b.n	10f4 <Java_com_crash_test_HelloJni_nativeMsg+0x50>
    10f4:	2000      	movs	r0, #0

    testString(NULL);
    10f6:	f7ff ec4c 	blx	990 <testString@plt>
    willCrash();
    10fa:	f7ff ec50 	blx	99c <willCrash@plt>

//    testparam( 5);

    pid_t pid = getpid();
    10fe:	f7ff ec54 	blx	9a8 <getpid@plt>
    1102:	903c      	str	r0, [sp, #240]	; 0xf0
    uid_t uid = getuid();
    1104:	f7ff ec56 	blx	9b4 <getuid@plt>
    1108:	903b      	str	r0, [sp, #236]	; 0xec

    testNoPara();
    110a:	f000 f9b1 	bl	1470 <testNoPara>
    testOnePara(2);
    110e:	2002      	movs	r0, #2
    1110:	9034      	str	r0, [sp, #208]	; 0xd0
    1112:	f7ff ec56 	blx	9c0 <testOnePara@plt>
    testParameter(1, 2, 3, 4, 5, 6, 7, 8, 9, 10,
    1116:	4668      	mov	r0, sp
    1118:	f04f 0e32 	mov.w	lr, #50	; 0x32
    111c:	f8c0 e0b4 	str.w	lr, [r0, #180]	; 0xb4
    1120:	f04f 0e31 	mov.w	lr, #49	; 0x31
    1124:	f8c0 e0b0 	str.w	lr, [r0, #176]	; 0xb0
    1128:	f04f 0e30 	mov.w	lr, #48	; 0x30
    112c:	f8c0 e0ac 	str.w	lr, [r0, #172]	; 0xac
    1130:	f04f 0e2f 	mov.w	lr, #47	; 0x2f
    1134:	f8c0 e0a8 	str.w	lr, [r0, #168]	; 0xa8
    1138:	f04f 0e2e 	mov.w	lr, #46	; 0x2e
    113c:	f8c0 e0a4 	str.w	lr, [r0, #164]	; 0xa4
    1140:	f04f 0e2d 	mov.w	lr, #45	; 0x2d
    1144:	f8c0 e0a0 	str.w	lr, [r0, #160]	; 0xa0
    1148:	f04f 0e2c 	mov.w	lr, #44	; 0x2c
    114c:	f8c0 e09c 	str.w	lr, [r0, #156]	; 0x9c
    1150:	f04f 0e2b 	mov.w	lr, #43	; 0x2b
    1154:	f8c0 e098 	str.w	lr, [r0, #152]	; 0x98
    1158:	f04f 0e2a 	mov.w	lr, #42	; 0x2a
    115c:	f8c0 e094 	str.w	lr, [r0, #148]	; 0x94
    1160:	f04f 0e29 	mov.w	lr, #41	; 0x29
    1164:	f8c0 e090 	str.w	lr, [r0, #144]	; 0x90
    1168:	f04f 0e28 	mov.w	lr, #40	; 0x28
    116c:	f8c0 e08c 	str.w	lr, [r0, #140]	; 0x8c
    1170:	f04f 0e27 	mov.w	lr, #39	; 0x27
    1174:	f8c0 e088 	str.w	lr, [r0, #136]	; 0x88
    1178:	f04f 0e26 	mov.w	lr, #38	; 0x26
    117c:	f8c0 e084 	str.w	lr, [r0, #132]	; 0x84
    1180:	f04f 0e25 	mov.w	lr, #37	; 0x25
    1184:	f8c0 e080 	str.w	lr, [r0, #128]	; 0x80
    1188:	f04f 0e24 	mov.w	lr, #36	; 0x24
    118c:	f8c0 e07c 	str.w	lr, [r0, #124]	; 0x7c
    1190:	f04f 0e23 	mov.w	lr, #35	; 0x23
    1194:	f8c0 e078 	str.w	lr, [r0, #120]	; 0x78
    1198:	f04f 0e22 	mov.w	lr, #34	; 0x22
    119c:	f8c0 e074 	str.w	lr, [r0, #116]	; 0x74
    11a0:	f04f 0e21 	mov.w	lr, #33	; 0x21
    11a4:	f8c0 e070 	str.w	lr, [r0, #112]	; 0x70
    11a8:	f04f 0e20 	mov.w	lr, #32
    11ac:	f8c0 e06c 	str.w	lr, [r0, #108]	; 0x6c
    11b0:	f04f 0e1f 	mov.w	lr, #31
    11b4:	f8c0 e068 	str.w	lr, [r0, #104]	; 0x68
    11b8:	f04f 0e1e 	mov.w	lr, #30
    11bc:	f8c0 e064 	str.w	lr, [r0, #100]	; 0x64
    11c0:	f04f 0e1d 	mov.w	lr, #29
    11c4:	f8c0 e060 	str.w	lr, [r0, #96]	; 0x60
    11c8:	f04f 0e1c 	mov.w	lr, #28
    11cc:	f8c0 e05c 	str.w	lr, [r0, #92]	; 0x5c
    11d0:	f04f 0e1b 	mov.w	lr, #27
    11d4:	f8c0 e058 	str.w	lr, [r0, #88]	; 0x58
    11d8:	f04f 0e1a 	mov.w	lr, #26
    11dc:	f8c0 e054 	str.w	lr, [r0, #84]	; 0x54
    11e0:	f04f 0e19 	mov.w	lr, #25
    11e4:	f8c0 e050 	str.w	lr, [r0, #80]	; 0x50
    11e8:	f04f 0e18 	mov.w	lr, #24
    11ec:	f8c0 e04c 	str.w	lr, [r0, #76]	; 0x4c
    11f0:	f04f 0e17 	mov.w	lr, #23
    11f4:	f8c0 e048 	str.w	lr, [r0, #72]	; 0x48
    11f8:	f04f 0e16 	mov.w	lr, #22
    11fc:	f8c0 e044 	str.w	lr, [r0, #68]	; 0x44
    1200:	f04f 0e15 	mov.w	lr, #21
    1204:	f8c0 e040 	str.w	lr, [r0, #64]	; 0x40
    1208:	f04f 0e14 	mov.w	lr, #20
    120c:	f8c0 e03c 	str.w	lr, [r0, #60]	; 0x3c
    1210:	f04f 0e13 	mov.w	lr, #19
    1214:	f8c0 e038 	str.w	lr, [r0, #56]	; 0x38
    1218:	f04f 0e12 	mov.w	lr, #18
    121c:	f8c0 e034 	str.w	lr, [r0, #52]	; 0x34
    1220:	f04f 0e11 	mov.w	lr, #17
    1224:	f8c0 e030 	str.w	lr, [r0, #48]	; 0x30
    1228:	f04f 0e10 	mov.w	lr, #16
    122c:	f8c0 e02c 	str.w	lr, [r0, #44]	; 0x2c
    1230:	f04f 0e0f 	mov.w	lr, #15
    1234:	f8c0 e028 	str.w	lr, [r0, #40]	; 0x28
    1238:	f04f 0e0e 	mov.w	lr, #14
    123c:	f8c0 e024 	str.w	lr, [r0, #36]	; 0x24
    1240:	f04f 0e0d 	mov.w	lr, #13
    1244:	f8c0 e020 	str.w	lr, [r0, #32]
    1248:	f04f 0e0c 	mov.w	lr, #12
    124c:	f8c0 e01c 	str.w	lr, [r0, #28]
    1250:	f04f 0e0b 	mov.w	lr, #11
    1254:	f8c0 e018 	str.w	lr, [r0, #24]
    1258:	f04f 0e0a 	mov.w	lr, #10
    125c:	f8c0 e014 	str.w	lr, [r0, #20]
    1260:	f04f 0e09 	mov.w	lr, #9
    1264:	f8c0 e010 	str.w	lr, [r0, #16]
    1268:	f04f 0e08 	mov.w	lr, #8
    126c:	f8c0 e00c 	str.w	lr, [r0, #12]
    1270:	f04f 0e07 	mov.w	lr, #7
    1274:	f8c0 e008 	str.w	lr, [r0, #8]
    1278:	f04f 0e06 	mov.w	lr, #6
    127c:	f8c0 e004 	str.w	lr, [r0, #4]
    1280:	2105      	movs	r1, #5
    1282:	6001      	str	r1, [r0, #0]
    1284:	2001      	movs	r0, #1
    1286:	2203      	movs	r2, #3
    1288:	2304      	movs	r3, #4
    128a:	9934      	ldr	r1, [sp, #208]	; 0xd0
    128c:	f8cd e0cc 	str.w	lr, [sp, #204]	; 0xcc
    1290:	f7ff eb9c 	blx	9cc <testParameter@plt>
                  11, 12, 13, 14, 15, 16, 17, 18, 19, 20,
                  21, 22, 23, 24, 25, 26, 27, 28, 29, 30,
                  31, 32, 33, 34, 35, 36, 37, 38, 39, 40,
                  41, 42, 43, 44, 45, 46, 47, 48, 49 ,50);

    char *username = getlogin();
    1294:	f7ff eba0 	blx	9d8 <getlogin@plt>
    1298:	903a      	str	r0, [sp, #232]	; 0xe8
    LOGE("F:%s,%s", __FUNCTION__, username);
    129a:	983a      	ldr	r0, [sp, #232]	; 0xe8
    129c:	4669      	mov	r1, sp
    129e:	6008      	str	r0, [r1, #0]
    12a0:	480e      	ldr	r0, [pc, #56]	; (12dc <Java_com_crash_test_HelloJni_nativeMsg+0x238>)
    12a2:	4478      	add	r0, pc
    12a4:	490e      	ldr	r1, [pc, #56]	; (12e0 <Java_com_crash_test_HelloJni_nativeMsg+0x23c>)
    12a6:	4479      	add	r1, pc
    12a8:	4a0e      	ldr	r2, [pc, #56]	; (12e4 <Java_com_crash_test_HelloJni_nativeMsg+0x240>)
    12aa:	447a      	add	r2, pc
    12ac:	9b33      	ldr	r3, [sp, #204]	; 0xcc
    12ae:	9032      	str	r0, [sp, #200]	; 0xc8
    12b0:	4618      	mov	r0, r3
    12b2:	f8dd e0c8 	ldr.w	lr, [sp, #200]	; 0xc8
    12b6:	9131      	str	r1, [sp, #196]	; 0xc4
    12b8:	4671      	mov	r1, lr
    12ba:	f8dd c0c4 	ldr.w	ip, [sp, #196]	; 0xc4
    12be:	9230      	str	r2, [sp, #192]	; 0xc0
    12c0:	4662      	mov	r2, ip
    12c2:	9b30      	ldr	r3, [sp, #192]	; 0xc0
    12c4:	f7ff eb3a 	blx	93c <__android_log_print@plt>
}
    12c8:	902f      	str	r0, [sp, #188]	; 0xbc
    12ca:	b040      	add	sp, #256	; 0x100
    12cc:	bd80      	pop	{r7, pc}
    12ce:	bf00      	nop
    12d0:	00001549 	andeq	r1, r0, r9, asr #10
    12d4:	00001352 	andeq	r1, r0, r2, asr r3
    12d8:	000013b4 			; <UNDEFINED> instruction: 0x000013b4
    12dc:	00001188 	andeq	r1, r0, r8, lsl #3
    12e0:	00001382 	andeq	r1, r0, r2, lsl #7
    12e4:	00001386 	andeq	r1, r0, r6, lsl #7

000012e8 <Java_com_crash_test_HelloJni_stringFromJNI>:

JNIEXPORT jstring JNICALL
Java_com_crash_test_HelloJni_stringFromJNI( JNIEnv* env, jobject thiz )
{
    12e8:	b580      	push	{r7, lr}
    12ea:	466f      	mov	r7, sp
    12ec:	b098      	sub	sp, #96	; 0x60
    12ee:	460a      	mov	r2, r1
    12f0:	4603      	mov	r3, r0
    12f2:	9017      	str	r0, [sp, #92]	; 0x5c
    12f4:	9116      	str	r1, [sp, #88]	; 0x58

    LOGE(__FUNCTION__);
    12f6:	4845      	ldr	r0, [pc, #276]	; (140c <Java_com_crash_test_HelloJni_stringFromJNI+0x124>)
    12f8:	4478      	add	r0, pc
    12fa:	4945      	ldr	r1, [pc, #276]	; (1410 <Java_com_crash_test_HelloJni_stringFromJNI+0x128>)
    12fc:	4479      	add	r1, pc
    12fe:	f04f 0c06 	mov.w	ip, #6
    1302:	9011      	str	r0, [sp, #68]	; 0x44
    1304:	4660      	mov	r0, ip
    1306:	f8dd c044 	ldr.w	ip, [sp, #68]	; 0x44
    130a:	9110      	str	r1, [sp, #64]	; 0x40
    130c:	4661      	mov	r1, ip
    130e:	f8dd e040 	ldr.w	lr, [sp, #64]	; 0x40
    1312:	920f      	str	r2, [sp, #60]	; 0x3c
    1314:	4672      	mov	r2, lr
    1316:	930e      	str	r3, [sp, #56]	; 0x38
    1318:	f7ff eb10 	blx	93c <__android_log_print@plt>
//    MY_LOG_DEBUG("env=%p thiz=%p", env, thiz);
//    MY_LOG_DEBUG("%s", "=========>test");
//    MY_LOG_ASSERT(0!=env, "JNIEnv cannot be NULL");
//    MY_LOG_INFO("REturning a new string");

    if( JNI_OK == (*env)->MonitorEnter(env, thiz)){
    131c:	9917      	ldr	r1, [sp, #92]	; 0x5c
    131e:	680a      	ldr	r2, [r1, #0]
    1320:	f8d2 2364 	ldr.w	r2, [r2, #868]	; 0x364
    1324:	9b16      	ldr	r3, [sp, #88]	; 0x58
    1326:	900d      	str	r0, [sp, #52]	; 0x34
    1328:	4608      	mov	r0, r1
    132a:	4619      	mov	r1, r3
    132c:	4790      	blx	r2
    132e:	2800      	cmp	r0, #0
    1330:	d10f      	bne.n	1352 <Java_com_crash_test_HelloJni_stringFromJNI+0x6a>
    1332:	e7ff      	b.n	1334 <Java_com_crash_test_HelloJni_stringFromJNI+0x4c>
        LOGE("MonitorEnterr");
    1334:	4837      	ldr	r0, [pc, #220]	; (1414 <Java_com_crash_test_HelloJni_stringFromJNI+0x12c>)
    1336:	4478      	add	r0, pc
    1338:	4937      	ldr	r1, [pc, #220]	; (1418 <Java_com_crash_test_HelloJni_stringFromJNI+0x130>)
    133a:	4479      	add	r1, pc
    133c:	2206      	movs	r2, #6
    133e:	900c      	str	r0, [sp, #48]	; 0x30
    1340:	4610      	mov	r0, r2
    1342:	9a0c      	ldr	r2, [sp, #48]	; 0x30
    1344:	910b      	str	r1, [sp, #44]	; 0x2c
    1346:	4611      	mov	r1, r2
    1348:	9a0b      	ldr	r2, [sp, #44]	; 0x2c
    134a:	f7ff eaf8 	blx	93c <__android_log_print@plt>
    }
    134e:	900a      	str	r0, [sp, #40]	; 0x28
    1350:	e7ff      	b.n	1352 <Java_com_crash_test_HelloJni_stringFromJNI+0x6a>
    1352:	2000      	movs	r0, #0

    int result = 0;
    1354:	9015      	str	r0, [sp, #84]	; 0x54
//    system("pwd");
    result = system("mkdir /data/data/com.bar.hellojni/temp");
    1356:	4831      	ldr	r0, [pc, #196]	; (141c <Java_com_crash_test_HelloJni_stringFromJNI+0x134>)
    1358:	4478      	add	r0, pc
    135a:	f7ff eb14 	blx	984 <system@plt>
    135e:	9015      	str	r0, [sp, #84]	; 0x54
    if( -1 == result || 127 == result )
    1360:	9815      	ldr	r0, [sp, #84]	; 0x54
    1362:	3001      	adds	r0, #1
    1364:	2800      	cmp	r0, #0
    1366:	d004      	beq.n	1372 <Java_com_crash_test_HelloJni_stringFromJNI+0x8a>
    1368:	e7ff      	b.n	136a <Java_com_crash_test_HelloJni_stringFromJNI+0x82>
    136a:	9815      	ldr	r0, [sp, #84]	; 0x54
    136c:	287f      	cmp	r0, #127	; 0x7f
    136e:	d10f      	bne.n	1390 <Java_com_crash_test_HelloJni_stringFromJNI+0xa8>
    1370:	e7ff      	b.n	1372 <Java_com_crash_test_HelloJni_stringFromJNI+0x8a>
    {
        LOGE("error");
    1372:	482b      	ldr	r0, [pc, #172]	; (1420 <Java_com_crash_test_HelloJni_stringFromJNI+0x138>)
    1374:	4478      	add	r0, pc
    1376:	492b      	ldr	r1, [pc, #172]	; (1424 <Java_com_crash_test_HelloJni_stringFromJNI+0x13c>)
    1378:	4479      	add	r1, pc
    137a:	2206      	movs	r2, #6
    137c:	9009      	str	r0, [sp, #36]	; 0x24
    137e:	4610      	mov	r0, r2
    1380:	9a09      	ldr	r2, [sp, #36]	; 0x24
    1382:	9108      	str	r1, [sp, #32]
    1384:	4611      	mov	r1, r2
    1386:	9a08      	ldr	r2, [sp, #32]
    1388:	f7ff ead8 	blx	93c <__android_log_print@plt>
    }
    138c:	9007      	str	r0, [sp, #28]
    138e:	e7ff      	b.n	1390 <Java_com_crash_test_HelloJni_stringFromJNI+0xa8>

    pid_t pid = getpid();
    1390:	f7ff eb0a 	blx	9a8 <getpid@plt>
    1394:	9014      	str	r0, [sp, #80]	; 0x50
    uid_t uid = getuid();
    1396:	f7ff eb0e 	blx	9b4 <getuid@plt>
    139a:	9013      	str	r0, [sp, #76]	; 0x4c

    char *username = getlogin();
    139c:	f7ff eb1c 	blx	9d8 <getlogin@plt>
    13a0:	9012      	str	r0, [sp, #72]	; 0x48
    LOGE("%s", username);
    13a2:	9b12      	ldr	r3, [sp, #72]	; 0x48
    13a4:	4820      	ldr	r0, [pc, #128]	; (1428 <Java_com_crash_test_HelloJni_stringFromJNI+0x140>)
    13a6:	4478      	add	r0, pc
    13a8:	f8df e080 	ldr.w	lr, [pc, #128]	; 142c <Java_com_crash_test_HelloJni_stringFromJNI+0x144>
    13ac:	44fe      	add	lr, pc
    13ae:	2106      	movs	r1, #6
    13b0:	9006      	str	r0, [sp, #24]
    13b2:	4608      	mov	r0, r1
    13b4:	9906      	ldr	r1, [sp, #24]
    13b6:	4672      	mov	r2, lr
    13b8:	f7ff eac0 	blx	93c <__android_log_print@plt>
//    if( 0 != errno )
//    {
//        __android_log_assert("0!=errno","hello-jni", "There is an error.");
//    }

    if(JNI_OK == (*env)->MonitorExit(env, thiz)){
    13bc:	9917      	ldr	r1, [sp, #92]	; 0x5c
    13be:	680a      	ldr	r2, [r1, #0]
    13c0:	f8d2 2368 	ldr.w	r2, [r2, #872]	; 0x368
    13c4:	9b16      	ldr	r3, [sp, #88]	; 0x58
    13c6:	9005      	str	r0, [sp, #20]
    13c8:	4608      	mov	r0, r1
    13ca:	4619      	mov	r1, r3
    13cc:	4790      	blx	r2
    13ce:	2800      	cmp	r0, #0
    13d0:	d10f      	bne.n	13f2 <Java_com_crash_test_HelloJni_stringFromJNI+0x10a>
    13d2:	e7ff      	b.n	13d4 <Java_com_crash_test_HelloJni_stringFromJNI+0xec>
        LOGE("MonitorExit");
    13d4:	4816      	ldr	r0, [pc, #88]	; (1430 <Java_com_crash_test_HelloJni_stringFromJNI+0x148>)
    13d6:	4478      	add	r0, pc
    13d8:	4916      	ldr	r1, [pc, #88]	; (1434 <Java_com_crash_test_HelloJni_stringFromJNI+0x14c>)
    13da:	4479      	add	r1, pc
    13dc:	2206      	movs	r2, #6
    13de:	9004      	str	r0, [sp, #16]
    13e0:	4610      	mov	r0, r2
    13e2:	9a04      	ldr	r2, [sp, #16]
    13e4:	9103      	str	r1, [sp, #12]
    13e6:	4611      	mov	r1, r2
    13e8:	9a03      	ldr	r2, [sp, #12]
    13ea:	f7ff eaa8 	blx	93c <__android_log_print@plt>
    }
    13ee:	9002      	str	r0, [sp, #8]
    13f0:	e7ff      	b.n	13f2 <Java_com_crash_test_HelloJni_stringFromJNI+0x10a>
//    (*env)->ExceptionClear(env);
    return (*env)->NewStringUTF(env, "Hello from JNI !  Compiled with ABI " ABI ".");
    13f2:	9817      	ldr	r0, [sp, #92]	; 0x5c
    13f4:	6801      	ldr	r1, [r0, #0]
    13f6:	f8d1 129c 	ldr.w	r1, [r1, #668]	; 0x29c
    13fa:	4a0f      	ldr	r2, [pc, #60]	; (1438 <Java_com_crash_test_HelloJni_stringFromJNI+0x150>)
    13fc:	447a      	add	r2, pc
    13fe:	9101      	str	r1, [sp, #4]
    1400:	4611      	mov	r1, r2
    1402:	9a01      	ldr	r2, [sp, #4]
    1404:	4790      	blx	r2
    1406:	b018      	add	sp, #96	; 0x60
    1408:	bd80      	pop	{r7, pc}
    140a:	bf00      	nop
    140c:	00001132 	andeq	r1, r0, r2, lsr r1
    1410:	0000135b 	andeq	r1, r0, fp, asr r3
    1414:	000010f4 	strdeq	r1, [r0], -r4
    1418:	00001348 	andeq	r1, r0, r8, asr #6
    141c:	000012a9 	andeq	r1, r0, r9, lsr #5
    1420:	000010b6 	strheq	r1, [r0], -r6
    1424:	00001118 	andeq	r1, r0, r8, lsl r1
    1428:	00001084 	andeq	r1, r0, r4, lsl #1
    142c:	000012e4 	andeq	r1, r0, r4, ror #5
    1430:	00001054 	andeq	r1, r0, r4, asr r0
    1434:	000012b9 			; <UNDEFINED> instruction: 0x000012b9
    1438:	000012a3 	andeq	r1, r0, r3, lsr #5

0000143c <Java_com_crash_test_HelloJni_stringFromJNI_11>:
}

JNIEXPORT jstring JNICALL
Java_com_crash_test_HelloJni_stringFromJNI_11(JNIEnv* env, jobject thiz )
{
    143c:	b580      	push	{r7, lr}
    143e:	466f      	mov	r7, sp
    1440:	b086      	sub	sp, #24
    1442:	460a      	mov	r2, r1
    1444:	4603      	mov	r3, r0
    1446:	9005      	str	r0, [sp, #20]
    1448:	9104      	str	r1, [sp, #16]
    return (*env)->NewStringUTF(env, "stringFromJNI_11");
    144a:	9805      	ldr	r0, [sp, #20]
    144c:	6801      	ldr	r1, [r0, #0]
    144e:	f8d1 129c 	ldr.w	r1, [r1, #668]	; 0x29c
    1452:	f8df c018 	ldr.w	ip, [pc, #24]	; 146c <Java_com_crash_test_HelloJni_stringFromJNI_11+0x30>
    1456:	44fc      	add	ip, pc
    1458:	9103      	str	r1, [sp, #12]
    145a:	4661      	mov	r1, ip
    145c:	f8dd c00c 	ldr.w	ip, [sp, #12]
    1460:	9202      	str	r2, [sp, #8]
    1462:	9301      	str	r3, [sp, #4]
    1464:	47e0      	blx	ip
    1466:	b006      	add	sp, #24
    1468:	bd80      	pop	{r7, pc}
    146a:	bf00      	nop
    146c:	0000127a 	andeq	r1, r0, sl, ror r2

00001470 <testNoPara>:
{
    1470:	b580      	push	{r7, lr}
    1472:	466f      	mov	r7, sp
    1474:	b084      	sub	sp, #16
    LOGE(" %s", __FUNCTION__ );
    1476:	480b      	ldr	r0, [pc, #44]	; (14a4 <testNoPara+0x34>)
    1478:	4478      	add	r0, pc
    147a:	490b      	ldr	r1, [pc, #44]	; (14a8 <testNoPara+0x38>)
    147c:	4479      	add	r1, pc
    147e:	4a0b      	ldr	r2, [pc, #44]	; (14ac <testNoPara+0x3c>)
    1480:	447a      	add	r2, pc
    1482:	2306      	movs	r3, #6
    1484:	9003      	str	r0, [sp, #12]
    1486:	4618      	mov	r0, r3
    1488:	9b03      	ldr	r3, [sp, #12]
    148a:	9102      	str	r1, [sp, #8]
    148c:	4619      	mov	r1, r3
    148e:	f8dd c008 	ldr.w	ip, [sp, #8]
    1492:	9201      	str	r2, [sp, #4]
    1494:	4662      	mov	r2, ip
    1496:	9b01      	ldr	r3, [sp, #4]
    1498:	f7ff ea50 	blx	93c <__android_log_print@plt>
}
    149c:	9000      	str	r0, [sp, #0]
    149e:	b004      	add	sp, #16
    14a0:	bd80      	pop	{r7, pc}
    14a2:	bf00      	nop
    14a4:	00000fb2 			; <UNDEFINED> instruction: 0x00000fb2
    14a8:	00001265 	andeq	r1, r0, r5, ror #4
    14ac:	00001265 	andeq	r1, r0, r5, ror #4

000014b0 <JNI_OnLoad>:

#include <jni.h>
#include <android/log.h>

JavaVM *gs_jvm=0;
jint JNI_OnLoad( JavaVM* vm, void *reserved){
    14b0:	b085      	sub	sp, #20
    14b2:	460a      	mov	r2, r1
    14b4:	4603      	mov	r3, r0
    14b6:	9004      	str	r0, [sp, #16]
    14b8:	9103      	str	r1, [sp, #12]
    gs_jvm = vm;
    14ba:	9804      	ldr	r0, [sp, #16]
    14bc:	4906      	ldr	r1, [pc, #24]	; (14d8 <JNI_OnLoad+0x28>)
    14be:	4479      	add	r1, pc
    14c0:	6809      	ldr	r1, [r1, #0]
    14c2:	6008      	str	r0, [r1, #0]

    jint result = JNI_VERSION_1_4;
    14c4:	2004      	movs	r0, #4
    14c6:	f2c0 0001 	movt	r0, #1
    14ca:	9002      	str	r0, [sp, #8]
    return  result;
    14cc:	9802      	ldr	r0, [sp, #8]
    14ce:	9201      	str	r2, [sp, #4]
    14d0:	9300      	str	r3, [sp, #0]
    14d2:	b005      	add	sp, #20
    14d4:	4770      	bx	lr
    14d6:	bf00      	nop
    14d8:	00002ab6 			; <UNDEFINED> instruction: 0x00002ab6

000014dc <selfrel_offset31>:
    14dc:	6803      	ldr	r3, [r0, #0]
    14de:	005a      	lsls	r2, r3, #1
    14e0:	bf4c      	ite	mi
    14e2:	f043 4300 	orrmi.w	r3, r3, #2147483648	; 0x80000000
    14e6:	f023 4300 	bicpl.w	r3, r3, #2147483648	; 0x80000000
    14ea:	4418      	add	r0, r3
    14ec:	4770      	bx	lr

000014ee <search_EIT_table>:
    14ee:	e92d 4ff7 	stmdb	sp!, {r0, r1, r2, r4, r5, r6, r7, r8, r9, sl, fp, lr}
    14f2:	4680      	mov	r8, r0
    14f4:	4692      	mov	sl, r2
    14f6:	b321      	cbz	r1, 1542 <search_EIT_table+0x54>
    14f8:	1e4f      	subs	r7, r1, #1
    14fa:	f04f 0b00 	mov.w	fp, #0
    14fe:	46b9      	mov	r9, r7
    1500:	eb0b 0409 	add.w	r4, fp, r9
    1504:	eb04 74d4 	add.w	r4, r4, r4, lsr #31
    1508:	1064      	asrs	r4, r4, #1
    150a:	00e6      	lsls	r6, r4, #3
    150c:	eb08 0506 	add.w	r5, r8, r6
    1510:	4628      	mov	r0, r5
    1512:	f7ff ffe3 	bl	14dc <selfrel_offset31>
    1516:	42bc      	cmp	r4, r7
    1518:	d017      	beq.n	154a <search_EIT_table+0x5c>
    151a:	9001      	str	r0, [sp, #4]
    151c:	f106 0008 	add.w	r0, r6, #8
    1520:	4440      	add	r0, r8
    1522:	f7ff ffdb 	bl	14dc <selfrel_offset31>
    1526:	9b01      	ldr	r3, [sp, #4]
    1528:	459a      	cmp	sl, r3
    152a:	d204      	bcs.n	1536 <search_EIT_table+0x48>
    152c:	455c      	cmp	r4, fp
    152e:	d00a      	beq.n	1546 <search_EIT_table+0x58>
    1530:	f104 39ff 	add.w	r9, r4, #4294967295	; 0xffffffff
    1534:	e7e4      	b.n	1500 <search_EIT_table+0x12>
    1536:	3801      	subs	r0, #1
    1538:	4582      	cmp	sl, r0
    153a:	d908      	bls.n	154e <search_EIT_table+0x60>
    153c:	f104 0b01 	add.w	fp, r4, #1
    1540:	e7de      	b.n	1500 <search_EIT_table+0x12>
    1542:	460d      	mov	r5, r1
    1544:	e003      	b.n	154e <search_EIT_table+0x60>
    1546:	2500      	movs	r5, #0
    1548:	e001      	b.n	154e <search_EIT_table+0x60>
    154a:	4582      	cmp	sl, r0
    154c:	d3ee      	bcc.n	152c <search_EIT_table+0x3e>
    154e:	4628      	mov	r0, r5
    1550:	b003      	add	sp, #12
    1552:	e8bd 8ff0 	ldmia.w	sp!, {r4, r5, r6, r7, r8, r9, sl, fp, pc}

00001556 <__gnu_unwind_get_pr_addr>:
    1556:	2801      	cmp	r0, #1
    1558:	d006      	beq.n	1568 <__gnu_unwind_get_pr_addr+0x12>
    155a:	2802      	cmp	r0, #2
    155c:	d008      	beq.n	1570 <__gnu_unwind_get_pr_addr+0x1a>
    155e:	b958      	cbnz	r0, 1578 <__gnu_unwind_get_pr_addr+0x22>
    1560:	4806      	ldr	r0, [pc, #24]	; (157c <__gnu_unwind_get_pr_addr+0x26>)
    1562:	4478      	add	r0, pc
    1564:	6800      	ldr	r0, [r0, #0]
    1566:	4770      	bx	lr
    1568:	4805      	ldr	r0, [pc, #20]	; (1580 <__gnu_unwind_get_pr_addr+0x2a>)
    156a:	4478      	add	r0, pc
    156c:	6800      	ldr	r0, [r0, #0]
    156e:	4770      	bx	lr
    1570:	4804      	ldr	r0, [pc, #16]	; (1584 <__gnu_unwind_get_pr_addr+0x2e>)
    1572:	4478      	add	r0, pc
    1574:	6800      	ldr	r0, [r0, #0]
    1576:	4770      	bx	lr
    1578:	2000      	movs	r0, #0
    157a:	4770      	bx	lr
    157c:	00002a16 	andeq	r2, r0, r6, lsl sl
    1580:	00002a12 	andeq	r2, r0, r2, lsl sl
    1584:	00002a0e 	andeq	r2, r0, lr, lsl #20

00001588 <get_eit_entry>:
    1588:	4b24      	ldr	r3, [pc, #144]	; (161c <get_eit_entry+0x94>)
    158a:	b537      	push	{r0, r1, r2, r4, r5, lr}
    158c:	447b      	add	r3, pc
    158e:	681b      	ldr	r3, [r3, #0]
    1590:	4604      	mov	r4, r0
    1592:	1e8d      	subs	r5, r1, #2
    1594:	b143      	cbz	r3, 15a8 <get_eit_entry+0x20>
    1596:	4628      	mov	r0, r5
    1598:	a901      	add	r1, sp, #4
    159a:	f7ff ea24 	blx	9e4 <__gnu_Unwind_Find_exidx@plt>
    159e:	b960      	cbnz	r0, 15ba <get_eit_entry+0x32>
    15a0:	2300      	movs	r3, #0
    15a2:	2009      	movs	r0, #9
    15a4:	6123      	str	r3, [r4, #16]
    15a6:	e037      	b.n	1618 <get_eit_entry+0x90>
    15a8:	4b1d      	ldr	r3, [pc, #116]	; (1620 <get_eit_entry+0x98>)
    15aa:	481e      	ldr	r0, [pc, #120]	; (1624 <get_eit_entry+0x9c>)
    15ac:	447b      	add	r3, pc
    15ae:	681b      	ldr	r3, [r3, #0]
    15b0:	4478      	add	r0, pc
    15b2:	6800      	ldr	r0, [r0, #0]
    15b4:	1a1b      	subs	r3, r3, r0
    15b6:	10db      	asrs	r3, r3, #3
    15b8:	9301      	str	r3, [sp, #4]
    15ba:	462a      	mov	r2, r5
    15bc:	9901      	ldr	r1, [sp, #4]
    15be:	f7ff ff96 	bl	14ee <search_EIT_table>
    15c2:	4605      	mov	r5, r0
    15c4:	2800      	cmp	r0, #0
    15c6:	d0eb      	beq.n	15a0 <get_eit_entry+0x18>
    15c8:	f7ff ff88 	bl	14dc <selfrel_offset31>
    15cc:	686b      	ldr	r3, [r5, #4]
    15ce:	2b01      	cmp	r3, #1
    15d0:	64a0      	str	r0, [r4, #72]	; 0x48
    15d2:	d103      	bne.n	15dc <get_eit_entry+0x54>
    15d4:	2300      	movs	r3, #0
    15d6:	2005      	movs	r0, #5
    15d8:	6123      	str	r3, [r4, #16]
    15da:	e01d      	b.n	1618 <get_eit_entry+0x90>
    15dc:	2b00      	cmp	r3, #0
    15de:	f105 0004 	add.w	r0, r5, #4
    15e2:	da02      	bge.n	15ea <get_eit_entry+0x62>
    15e4:	64e0      	str	r0, [r4, #76]	; 0x4c
    15e6:	2301      	movs	r3, #1
    15e8:	e003      	b.n	15f2 <get_eit_entry+0x6a>
    15ea:	f7ff ff77 	bl	14dc <selfrel_offset31>
    15ee:	2300      	movs	r3, #0
    15f0:	64e0      	str	r0, [r4, #76]	; 0x4c
    15f2:	6ce0      	ldr	r0, [r4, #76]	; 0x4c
    15f4:	6523      	str	r3, [r4, #80]	; 0x50
    15f6:	6803      	ldr	r3, [r0, #0]
    15f8:	2b00      	cmp	r3, #0
    15fa:	da09      	bge.n	1610 <get_eit_entry+0x88>
    15fc:	f3c3 6003 	ubfx	r0, r3, #24, #4
    1600:	f7ff ffa9 	bl	1556 <__gnu_unwind_get_pr_addr>
    1604:	2800      	cmp	r0, #0
    1606:	6120      	str	r0, [r4, #16]
    1608:	bf0c      	ite	eq
    160a:	2009      	moveq	r0, #9
    160c:	2000      	movne	r0, #0
    160e:	e003      	b.n	1618 <get_eit_entry+0x90>
    1610:	f7ff ff64 	bl	14dc <selfrel_offset31>
    1614:	6120      	str	r0, [r4, #16]
    1616:	2000      	movs	r0, #0
    1618:	b003      	add	sp, #12
    161a:	bd30      	pop	{r4, r5, pc}
    161c:	000029f8 	strdeq	r2, [r0], -r8
    1620:	000029dc 	ldrdeq	r2, [r0], -ip
    1624:	000029dc 	ldrdeq	r2, [r0], -ip

00001628 <restore_non_core_regs>:
    1628:	6803      	ldr	r3, [r0, #0]
    162a:	b510      	push	{r4, lr}
    162c:	4604      	mov	r4, r0
    162e:	07d8      	lsls	r0, r3, #31
    1630:	d409      	bmi.n	1646 <restore_non_core_regs+0x1e>
    1632:	f013 0f02 	tst.w	r3, #2
    1636:	f104 0048 	add.w	r0, r4, #72	; 0x48
    163a:	d002      	beq.n	1642 <restore_non_core_regs+0x1a>
    163c:	f000 fbf8 	bl	1e30 <__gnu_Unwind_Restore_VFP_D>
    1640:	e001      	b.n	1646 <restore_non_core_regs+0x1e>
    1642:	f000 fbed 	bl	1e20 <__gnu_Unwind_Restore_VFP>
    1646:	6823      	ldr	r3, [r4, #0]
    1648:	0759      	lsls	r1, r3, #29
    164a:	d403      	bmi.n	1654 <restore_non_core_regs+0x2c>
    164c:	f104 00d0 	add.w	r0, r4, #208	; 0xd0
    1650:	f000 fbf6 	bl	1e40 <__gnu_Unwind_Restore_VFP_D_16_to_31>
    1654:	6823      	ldr	r3, [r4, #0]
    1656:	071a      	lsls	r2, r3, #28
    1658:	d403      	bmi.n	1662 <restore_non_core_regs+0x3a>
    165a:	f504 70a8 	add.w	r0, r4, #336	; 0x150
    165e:	f000 fbf7 	bl	1e50 <__gnu_Unwind_Restore_WMMXD>
    1662:	6823      	ldr	r3, [r4, #0]
    1664:	06db      	lsls	r3, r3, #27
    1666:	d405      	bmi.n	1674 <restore_non_core_regs+0x4c>
    1668:	f504 70e8 	add.w	r0, r4, #464	; 0x1d0
    166c:	e8bd 4010 	ldmia.w	sp!, {r4, lr}
    1670:	f000 bc32 	b.w	1ed8 <__gnu_Unwind_Restore_WMMXC>
    1674:	bd10      	pop	{r4, pc}

00001676 <_Unwind_decode_typeinfo_ptr.isra.0>:
    1676:	6803      	ldr	r3, [r0, #0]
    1678:	b10b      	cbz	r3, 167e <_Unwind_decode_typeinfo_ptr.isra.0+0x8>
    167a:	5818      	ldr	r0, [r3, r0]
    167c:	4770      	bx	lr
    167e:	4618      	mov	r0, r3
    1680:	4770      	bx	lr

00001682 <__gnu_unwind_24bit.isra.1>:
    1682:	2009      	movs	r0, #9
    1684:	4770      	bx	lr

00001686 <_Unwind_DebugHook>:
    1686:	4770      	bx	lr

00001688 <unwind_phase2>:
    1688:	b570      	push	{r4, r5, r6, lr}
    168a:	4605      	mov	r5, r0
    168c:	460c      	mov	r4, r1
    168e:	4628      	mov	r0, r5
    1690:	6c21      	ldr	r1, [r4, #64]	; 0x40
    1692:	f7ff ff79 	bl	1588 <get_eit_entry>
    1696:	4606      	mov	r6, r0
    1698:	b108      	cbz	r0, 169e <unwind_phase2+0x16>
    169a:	f7ff e9aa 	blx	9f0 <abort@plt>
    169e:	6c23      	ldr	r3, [r4, #64]	; 0x40
    16a0:	2001      	movs	r0, #1
    16a2:	4629      	mov	r1, r5
    16a4:	4622      	mov	r2, r4
    16a6:	616b      	str	r3, [r5, #20]
    16a8:	692b      	ldr	r3, [r5, #16]
    16aa:	4798      	blx	r3
    16ac:	2808      	cmp	r0, #8
    16ae:	d0ee      	beq.n	168e <unwind_phase2+0x6>
    16b0:	2807      	cmp	r0, #7
    16b2:	d1f2      	bne.n	169a <unwind_phase2+0x12>
    16b4:	4630      	mov	r0, r6
    16b6:	6c21      	ldr	r1, [r4, #64]	; 0x40
    16b8:	f7ff ffe5 	bl	1686 <_Unwind_DebugHook>
    16bc:	1d20      	adds	r0, r4, #4
    16be:	f000 fba3 	bl	1e08 <__restore_core_regs>

000016c2 <unwind_phase2_forced>:
    16c2:	e92d 4ff0 	stmdb	sp!, {r4, r5, r6, r7, r8, r9, sl, fp, lr}
    16c6:	1d0d      	adds	r5, r1, #4
    16c8:	f8d0 800c 	ldr.w	r8, [r0, #12]
    16cc:	4607      	mov	r7, r0
    16ce:	f8d0 9018 	ldr.w	r9, [r0, #24]
    16d2:	4692      	mov	sl, r2
    16d4:	cd0f      	ldmia	r5!, {r0, r1, r2, r3}
    16d6:	f5ad 7d73 	sub.w	sp, sp, #972	; 0x3cc
    16da:	ac03      	add	r4, sp, #12
    16dc:	ae02      	add	r6, sp, #8
    16de:	f50d 7bf4 	add.w	fp, sp, #488	; 0x1e8
    16e2:	c40f      	stmia	r4!, {r0, r1, r2, r3}
    16e4:	cd0f      	ldmia	r5!, {r0, r1, r2, r3}
    16e6:	c40f      	stmia	r4!, {r0, r1, r2, r3}
    16e8:	cd0f      	ldmia	r5!, {r0, r1, r2, r3}
    16ea:	c40f      	stmia	r4!, {r0, r1, r2, r3}
    16ec:	e895 000f 	ldmia.w	r5, {r0, r1, r2, r3}
    16f0:	2500      	movs	r5, #0
    16f2:	e884 000f 	stmia.w	r4, {r0, r1, r2, r3}
    16f6:	6035      	str	r5, [r6, #0]
    16f8:	4638      	mov	r0, r7
    16fa:	6c31      	ldr	r1, [r6, #64]	; 0x40
    16fc:	f7ff ff44 	bl	1588 <get_eit_entry>
    1700:	f1ba 0f00 	cmp.w	sl, #0
    1704:	bf0c      	ite	eq
    1706:	f04f 0a09 	moveq.w	sl, #9
    170a:	f04f 0a0a 	movne.w	sl, #10
    170e:	4604      	mov	r4, r0
    1710:	b980      	cbnz	r0, 1734 <unwind_phase2_forced+0x72>
    1712:	6c33      	ldr	r3, [r6, #64]	; 0x40
    1714:	4631      	mov	r1, r6
    1716:	f44f 72f0 	mov.w	r2, #480	; 0x1e0
    171a:	4658      	mov	r0, fp
    171c:	617b      	str	r3, [r7, #20]
    171e:	f7ff e96e 	blx	9fc <memcpy@plt>
    1722:	693b      	ldr	r3, [r7, #16]
    1724:	4650      	mov	r0, sl
    1726:	4639      	mov	r1, r7
    1728:	465a      	mov	r2, fp
    172a:	4798      	blx	r3
    172c:	f8db 3038 	ldr.w	r3, [fp, #56]	; 0x38
    1730:	4605      	mov	r5, r0
    1732:	e002      	b.n	173a <unwind_phase2_forced+0x78>
    1734:	6bb3      	ldr	r3, [r6, #56]	; 0x38
    1736:	f04a 0a10 	orr.w	sl, sl, #16
    173a:	6473      	str	r3, [r6, #68]	; 0x44
    173c:	2001      	movs	r0, #1
    173e:	e88d 0240 	stmia.w	sp, {r6, r9}
    1742:	4651      	mov	r1, sl
    1744:	463a      	mov	r2, r7
    1746:	463b      	mov	r3, r7
    1748:	47c0      	blx	r8
    174a:	b990      	cbnz	r0, 1772 <unwind_phase2_forced+0xb0>
    174c:	b99c      	cbnz	r4, 1776 <unwind_phase2_forced+0xb4>
    174e:	4630      	mov	r0, r6
    1750:	4659      	mov	r1, fp
    1752:	f44f 72f0 	mov.w	r2, #480	; 0x1e0
    1756:	46a2      	mov	sl, r4
    1758:	f7ff e950 	blx	9fc <memcpy@plt>
    175c:	2d08      	cmp	r5, #8
    175e:	d0cb      	beq.n	16f8 <unwind_phase2_forced+0x36>
    1760:	2d07      	cmp	r5, #7
    1762:	d106      	bne.n	1772 <unwind_phase2_forced+0xb0>
    1764:	4620      	mov	r0, r4
    1766:	6c31      	ldr	r1, [r6, #64]	; 0x40
    1768:	f7ff ff8d 	bl	1686 <_Unwind_DebugHook>
    176c:	a803      	add	r0, sp, #12
    176e:	f000 fb4b 	bl	1e08 <__restore_core_regs>
    1772:	2009      	movs	r0, #9
    1774:	e000      	b.n	1778 <unwind_phase2_forced+0xb6>
    1776:	4620      	mov	r0, r4
    1778:	f50d 7d73 	add.w	sp, sp, #972	; 0x3cc
    177c:	e8bd 8ff0 	ldmia.w	sp!, {r4, r5, r6, r7, r8, r9, sl, fp, pc}

00001780 <_Unwind_GetCFA>:
    1780:	6c40      	ldr	r0, [r0, #68]	; 0x44
    1782:	4770      	bx	lr

00001784 <__gnu_Unwind_RaiseException>:
    1784:	6bcb      	ldr	r3, [r1, #60]	; 0x3c
    1786:	e92d 41f0 	stmdb	sp!, {r4, r5, r6, r7, r8, lr}
    178a:	1d0d      	adds	r5, r1, #4
    178c:	640b      	str	r3, [r1, #64]	; 0x40
    178e:	4607      	mov	r7, r0
    1790:	460e      	mov	r6, r1
    1792:	b0f8      	sub	sp, #480	; 0x1e0
    1794:	cd0f      	ldmia	r5!, {r0, r1, r2, r3}
    1796:	ac01      	add	r4, sp, #4
    1798:	46e8      	mov	r8, sp
    179a:	c40f      	stmia	r4!, {r0, r1, r2, r3}
    179c:	cd0f      	ldmia	r5!, {r0, r1, r2, r3}
    179e:	c40f      	stmia	r4!, {r0, r1, r2, r3}
    17a0:	cd0f      	ldmia	r5!, {r0, r1, r2, r3}
    17a2:	c40f      	stmia	r4!, {r0, r1, r2, r3}
    17a4:	e895 000f 	ldmia.w	r5, {r0, r1, r2, r3}
    17a8:	e884 000f 	stmia.w	r4, {r0, r1, r2, r3}
    17ac:	f04f 33ff 	mov.w	r3, #4294967295	; 0xffffffff
    17b0:	9300      	str	r3, [sp, #0]
    17b2:	4638      	mov	r0, r7
    17b4:	f8d8 1040 	ldr.w	r1, [r8, #64]	; 0x40
    17b8:	f7ff fee6 	bl	1588 <get_eit_entry>
    17bc:	b978      	cbnz	r0, 17de <__gnu_Unwind_RaiseException+0x5a>
    17be:	693b      	ldr	r3, [r7, #16]
    17c0:	4639      	mov	r1, r7
    17c2:	4642      	mov	r2, r8
    17c4:	4798      	blx	r3
    17c6:	2808      	cmp	r0, #8
    17c8:	4604      	mov	r4, r0
    17ca:	d0f2      	beq.n	17b2 <__gnu_Unwind_RaiseException+0x2e>
    17cc:	4640      	mov	r0, r8
    17ce:	f7ff ff2b 	bl	1628 <restore_non_core_regs>
    17d2:	2c06      	cmp	r4, #6
    17d4:	d103      	bne.n	17de <__gnu_Unwind_RaiseException+0x5a>
    17d6:	4638      	mov	r0, r7
    17d8:	4631      	mov	r1, r6
    17da:	f7ff ff55 	bl	1688 <unwind_phase2>
    17de:	2009      	movs	r0, #9
    17e0:	b078      	add	sp, #480	; 0x1e0
    17e2:	e8bd 81f0 	ldmia.w	sp!, {r4, r5, r6, r7, r8, pc}

000017e6 <__gnu_Unwind_ForcedUnwind>:
    17e6:	b510      	push	{r4, lr}
    17e8:	6182      	str	r2, [r0, #24]
    17ea:	6bda      	ldr	r2, [r3, #60]	; 0x3c
    17ec:	60c1      	str	r1, [r0, #12]
    17ee:	4619      	mov	r1, r3
    17f0:	e8bd 4010 	ldmia.w	sp!, {r4, lr}
    17f4:	641a      	str	r2, [r3, #64]	; 0x40
    17f6:	2200      	movs	r2, #0
    17f8:	e763      	b.n	16c2 <unwind_phase2_forced>

000017fa <__gnu_Unwind_Resume>:
    17fa:	b570      	push	{r4, r5, r6, lr}
    17fc:	4605      	mov	r5, r0
    17fe:	6943      	ldr	r3, [r0, #20]
    1800:	460c      	mov	r4, r1
    1802:	68c6      	ldr	r6, [r0, #12]
    1804:	640b      	str	r3, [r1, #64]	; 0x40
    1806:	b11e      	cbz	r6, 1810 <__gnu_Unwind_Resume+0x16>
    1808:	2201      	movs	r2, #1
    180a:	f7ff ff5a 	bl	16c2 <unwind_phase2_forced>
    180e:	e013      	b.n	1838 <__gnu_Unwind_Resume+0x3e>
    1810:	6903      	ldr	r3, [r0, #16]
    1812:	4629      	mov	r1, r5
    1814:	2002      	movs	r0, #2
    1816:	4622      	mov	r2, r4
    1818:	4798      	blx	r3
    181a:	2807      	cmp	r0, #7
    181c:	d005      	beq.n	182a <__gnu_Unwind_Resume+0x30>
    181e:	2808      	cmp	r0, #8
    1820:	d10a      	bne.n	1838 <__gnu_Unwind_Resume+0x3e>
    1822:	4628      	mov	r0, r5
    1824:	4621      	mov	r1, r4
    1826:	f7ff ff2f 	bl	1688 <unwind_phase2>
    182a:	4630      	mov	r0, r6
    182c:	6c21      	ldr	r1, [r4, #64]	; 0x40
    182e:	f7ff ff2a 	bl	1686 <_Unwind_DebugHook>
    1832:	1d20      	adds	r0, r4, #4
    1834:	f000 fae8 	bl	1e08 <__restore_core_regs>
    1838:	f7ff e8da 	blx	9f0 <abort@plt>

0000183c <__gnu_Unwind_Resume_or_Rethrow>:
    183c:	68c2      	ldr	r2, [r0, #12]
    183e:	b90a      	cbnz	r2, 1844 <__gnu_Unwind_Resume_or_Rethrow+0x8>
    1840:	f7ff bfa0 	b.w	1784 <__gnu_Unwind_RaiseException>
    1844:	6bca      	ldr	r2, [r1, #60]	; 0x3c
    1846:	640a      	str	r2, [r1, #64]	; 0x40
    1848:	2200      	movs	r2, #0
    184a:	e73a      	b.n	16c2 <unwind_phase2_forced>

0000184c <_Unwind_Complete>:
    184c:	4770      	bx	lr

0000184e <_Unwind_DeleteException>:
    184e:	6883      	ldr	r3, [r0, #8]
    1850:	4601      	mov	r1, r0
    1852:	b10b      	cbz	r3, 1858 <_Unwind_DeleteException+0xa>
    1854:	2001      	movs	r0, #1
    1856:	4718      	bx	r3
    1858:	4770      	bx	lr

0000185a <_Unwind_VRS_Get>:
    185a:	b500      	push	{lr}
    185c:	2904      	cmp	r1, #4
    185e:	d810      	bhi.n	1882 <_Unwind_VRS_Get+0x28>
    1860:	e8df f001 	tbb	[pc, r1]
    1864:	0d0f0d03 	stceq	13, cr0, [pc, #-12]	; 1860 <_Unwind_VRS_Get+0x6>
    1868:	b953000d 	ldmdblt	r3, {r0, r2, r3}^
    186c:	2a0f      	cmp	r2, #15
    186e:	d808      	bhi.n	1882 <_Unwind_VRS_Get+0x28>
    1870:	eb00 0082 	add.w	r0, r0, r2, lsl #2
    1874:	9a01      	ldr	r2, [sp, #4]
    1876:	6841      	ldr	r1, [r0, #4]
    1878:	4618      	mov	r0, r3
    187a:	6011      	str	r1, [r2, #0]
    187c:	e002      	b.n	1884 <_Unwind_VRS_Get+0x2a>
    187e:	2001      	movs	r0, #1
    1880:	e000      	b.n	1884 <_Unwind_VRS_Get+0x2a>
    1882:	2002      	movs	r0, #2
    1884:	f85d fb04 	ldr.w	pc, [sp], #4

00001888 <_Unwind_GetGR>:
    1888:	b51f      	push	{r0, r1, r2, r3, r4, lr}
    188a:	460a      	mov	r2, r1
    188c:	2100      	movs	r1, #0
    188e:	ab03      	add	r3, sp, #12
    1890:	9300      	str	r3, [sp, #0]
    1892:	460b      	mov	r3, r1
    1894:	f7ff ffe1 	bl	185a <_Unwind_VRS_Get>
    1898:	9803      	ldr	r0, [sp, #12]
    189a:	b005      	add	sp, #20
    189c:	f85d fb04 	ldr.w	pc, [sp], #4

000018a0 <_Unwind_VRS_Set>:
    18a0:	b500      	push	{lr}
    18a2:	2904      	cmp	r1, #4
    18a4:	d810      	bhi.n	18c8 <_Unwind_VRS_Set+0x28>
    18a6:	e8df f001 	tbb	[pc, r1]
    18aa:	0d0f0d03 	stceq	13, cr0, [pc, #-12]	; 18a4 <_Unwind_VRS_Set+0x4>
    18ae:	b953000d 	ldmdblt	r3, {r0, r2, r3}^
    18b2:	2a0f      	cmp	r2, #15
    18b4:	d808      	bhi.n	18c8 <_Unwind_VRS_Set+0x28>
    18b6:	9901      	ldr	r1, [sp, #4]
    18b8:	eb00 0082 	add.w	r0, r0, r2, lsl #2
    18bc:	6809      	ldr	r1, [r1, #0]
    18be:	6041      	str	r1, [r0, #4]
    18c0:	4618      	mov	r0, r3
    18c2:	e002      	b.n	18ca <_Unwind_VRS_Set+0x2a>
    18c4:	2001      	movs	r0, #1
    18c6:	e000      	b.n	18ca <_Unwind_VRS_Set+0x2a>
    18c8:	2002      	movs	r0, #2
    18ca:	f85d fb04 	ldr.w	pc, [sp], #4

000018ce <_Unwind_SetGR>:
    18ce:	b51f      	push	{r0, r1, r2, r3, r4, lr}
    18d0:	460c      	mov	r4, r1
    18d2:	ab04      	add	r3, sp, #16
    18d4:	2100      	movs	r1, #0
    18d6:	f843 2d04 	str.w	r2, [r3, #-4]!
    18da:	4622      	mov	r2, r4
    18dc:	9300      	str	r3, [sp, #0]
    18de:	460b      	mov	r3, r1
    18e0:	f7ff ffde 	bl	18a0 <_Unwind_VRS_Set>
    18e4:	b004      	add	sp, #16
    18e6:	bd10      	pop	{r4, pc}

000018e8 <__gnu_Unwind_Backtrace>:
    18e8:	6bd3      	ldr	r3, [r2, #60]	; 0x3c
    18ea:	e92d 41f0 	stmdb	sp!, {r4, r5, r6, r7, r8, lr}
    18ee:	1d14      	adds	r4, r2, #4
    18f0:	6413      	str	r3, [r2, #64]	; 0x40
    18f2:	4607      	mov	r7, r0
    18f4:	4688      	mov	r8, r1
    18f6:	f5ad 7d0e 	sub.w	sp, sp, #568	; 0x238
    18fa:	cc0f      	ldmia	r4!, {r0, r1, r2, r3}
    18fc:	ad17      	add	r5, sp, #92	; 0x5c
    18fe:	ae16      	add	r6, sp, #88	; 0x58
    1900:	c50f      	stmia	r5!, {r0, r1, r2, r3}
    1902:	cc0f      	ldmia	r4!, {r0, r1, r2, r3}
    1904:	c50f      	stmia	r5!, {r0, r1, r2, r3}
    1906:	cc0f      	ldmia	r4!, {r0, r1, r2, r3}
    1908:	c50f      	stmia	r5!, {r0, r1, r2, r3}
    190a:	e894 000f 	ldmia.w	r4, {r0, r1, r2, r3}
    190e:	e885 000f 	stmia.w	r5, {r0, r1, r2, r3}
    1912:	466d      	mov	r5, sp
    1914:	f04f 33ff 	mov.w	r3, #4294967295	; 0xffffffff
    1918:	6033      	str	r3, [r6, #0]
    191a:	4628      	mov	r0, r5
    191c:	6c31      	ldr	r1, [r6, #64]	; 0x40
    191e:	f7ff fe33 	bl	1588 <get_eit_entry>
    1922:	b108      	cbz	r0, 1928 <__gnu_Unwind_Backtrace+0x40>
    1924:	2409      	movs	r4, #9
    1926:	e014      	b.n	1952 <__gnu_Unwind_Backtrace+0x6a>
    1928:	4630      	mov	r0, r6
    192a:	210c      	movs	r1, #12
    192c:	462a      	mov	r2, r5
    192e:	f7ff ffce 	bl	18ce <_Unwind_SetGR>
    1932:	4630      	mov	r0, r6
    1934:	4641      	mov	r1, r8
    1936:	47b8      	blx	r7
    1938:	2800      	cmp	r0, #0
    193a:	d1f3      	bne.n	1924 <__gnu_Unwind_Backtrace+0x3c>
    193c:	692b      	ldr	r3, [r5, #16]
    193e:	2008      	movs	r0, #8
    1940:	4629      	mov	r1, r5
    1942:	4632      	mov	r2, r6
    1944:	4798      	blx	r3
    1946:	2805      	cmp	r0, #5
    1948:	4604      	mov	r4, r0
    194a:	d002      	beq.n	1952 <__gnu_Unwind_Backtrace+0x6a>
    194c:	2809      	cmp	r0, #9
    194e:	d1e4      	bne.n	191a <__gnu_Unwind_Backtrace+0x32>
    1950:	e7e8      	b.n	1924 <__gnu_Unwind_Backtrace+0x3c>
    1952:	4630      	mov	r0, r6
    1954:	f7ff fe68 	bl	1628 <restore_non_core_regs>
    1958:	4620      	mov	r0, r4
    195a:	f50d 7d0e 	add.w	sp, sp, #568	; 0x238
    195e:	e8bd 81f0 	ldmia.w	sp!, {r4, r5, r6, r7, r8, pc}

00001962 <__gnu_unwind_pr_common>:
    1962:	e92d 4ff0 	stmdb	sp!, {r4, r5, r6, r7, r8, r9, sl, fp, lr}
    1966:	4617      	mov	r7, r2
    1968:	6cca      	ldr	r2, [r1, #76]	; 0x4c
    196a:	b089      	sub	sp, #36	; 0x24
    196c:	460d      	mov	r5, r1
    196e:	f000 0803 	and.w	r8, r0, #3
    1972:	1d14      	adds	r4, r2, #4
    1974:	9002      	str	r0, [sp, #8]
    1976:	6812      	ldr	r2, [r2, #0]
    1978:	4699      	mov	r9, r3
    197a:	9406      	str	r4, [sp, #24]
    197c:	9205      	str	r2, [sp, #20]
    197e:	b93b      	cbnz	r3, 1990 <__gnu_unwind_pr_common+0x2e>
    1980:	0212      	lsls	r2, r2, #8
    1982:	f88d 301d 	strb.w	r3, [sp, #29]
    1986:	9205      	str	r2, [sp, #20]
    1988:	2303      	movs	r3, #3
    198a:	f88d 301c 	strb.w	r3, [sp, #28]
    198e:	e00c      	b.n	19aa <__gnu_unwind_pr_common+0x48>
    1990:	2b02      	cmp	r3, #2
    1992:	dc0a      	bgt.n	19aa <__gnu_unwind_pr_common+0x48>
    1994:	0c13      	lsrs	r3, r2, #16
    1996:	f88d 301d 	strb.w	r3, [sp, #29]
    199a:	0412      	lsls	r2, r2, #16
    199c:	9205      	str	r2, [sp, #20]
    199e:	b2db      	uxtb	r3, r3
    19a0:	2202      	movs	r2, #2
    19a2:	f88d 201c 	strb.w	r2, [sp, #28]
    19a6:	eb04 0483 	add.w	r4, r4, r3, lsl #2
    19aa:	f1b8 0f02 	cmp.w	r8, #2
    19ae:	6d2b      	ldr	r3, [r5, #80]	; 0x50
    19b0:	bf08      	it	eq
    19b2:	6bac      	ldreq	r4, [r5, #56]	; 0x38
    19b4:	f013 0301 	ands.w	r3, r3, #1
    19b8:	f040 80d4 	bne.w	1b64 <__gnu_unwind_pr_common+0x202>
    19bc:	9301      	str	r3, [sp, #4]
    19be:	f8d4 a000 	ldr.w	sl, [r4]
    19c2:	f1ba 0f00 	cmp.w	sl, #0
    19c6:	f000 80cf 	beq.w	1b68 <__gnu_unwind_pr_common+0x206>
    19ca:	f1b9 0f02 	cmp.w	r9, #2
    19ce:	6ca8      	ldr	r0, [r5, #72]	; 0x48
    19d0:	bf0a      	itet	eq
    19d2:	f104 0608 	addeq.w	r6, r4, #8
    19d6:	1d26      	addne	r6, r4, #4
    19d8:	f8d4 b004 	ldreq.w	fp, [r4, #4]
    19dc:	f04f 010f 	mov.w	r1, #15
    19e0:	bf1c      	itt	ne
    19e2:	f8b4 b002 	ldrhne.w	fp, [r4, #2]
    19e6:	f8b4 a000 	ldrhne.w	sl, [r4]
    19ea:	f02b 0401 	bic.w	r4, fp, #1
    19ee:	4404      	add	r4, r0
    19f0:	4638      	mov	r0, r7
    19f2:	f7ff ff49 	bl	1888 <_Unwind_GetGR>
    19f6:	4284      	cmp	r4, r0
    19f8:	d807      	bhi.n	1a0a <__gnu_unwind_pr_common+0xa8>
    19fa:	f02a 0301 	bic.w	r3, sl, #1
    19fe:	4423      	add	r3, r4
    1a00:	4298      	cmp	r0, r3
    1a02:	bf2c      	ite	cs
    1a04:	2000      	movcs	r0, #0
    1a06:	2001      	movcc	r0, #1
    1a08:	e000      	b.n	1a0c <__gnu_unwind_pr_common+0xaa>
    1a0a:	2000      	movs	r0, #0
    1a0c:	f00b 0b01 	and.w	fp, fp, #1
    1a10:	f00a 0401 	and.w	r4, sl, #1
    1a14:	ea44 044b 	orr.w	r4, r4, fp, lsl #1
    1a18:	2c01      	cmp	r4, #1
    1a1a:	d018      	beq.n	1a4e <__gnu_unwind_pr_common+0xec>
    1a1c:	d302      	bcc.n	1a24 <__gnu_unwind_pr_common+0xc2>
    1a1e:	2c02      	cmp	r4, #2
    1a20:	d04d      	beq.n	1abe <__gnu_unwind_pr_common+0x15c>
    1a22:	e0c2      	b.n	1baa <__gnu_unwind_pr_common+0x248>
    1a24:	1d34      	adds	r4, r6, #4
    1a26:	f1b8 0f00 	cmp.w	r8, #0
    1a2a:	d0c8      	beq.n	19be <__gnu_unwind_pr_common+0x5c>
    1a2c:	2800      	cmp	r0, #0
    1a2e:	d0c6      	beq.n	19be <__gnu_unwind_pr_common+0x5c>
    1a30:	4630      	mov	r0, r6
    1a32:	f7ff fd53 	bl	14dc <selfrel_offset31>
    1a36:	63ac      	str	r4, [r5, #56]	; 0x38
    1a38:	4606      	mov	r6, r0
    1a3a:	4628      	mov	r0, r5
    1a3c:	f7fe efe4 	blx	a08 <__cxa_begin_cleanup@plt>
    1a40:	2800      	cmp	r0, #0
    1a42:	f000 80b2 	beq.w	1baa <__gnu_unwind_pr_common+0x248>
    1a46:	4638      	mov	r0, r7
    1a48:	210f      	movs	r1, #15
    1a4a:	4632      	mov	r2, r6
    1a4c:	e0a9      	b.n	1ba2 <__gnu_unwind_pr_common+0x240>
    1a4e:	f1b8 0f00 	cmp.w	r8, #0
    1a52:	d125      	bne.n	1aa0 <__gnu_unwind_pr_common+0x13e>
    1a54:	b380      	cbz	r0, 1ab8 <__gnu_unwind_pr_common+0x156>
    1a56:	6832      	ldr	r2, [r6, #0]
    1a58:	6873      	ldr	r3, [r6, #4]
    1a5a:	ea4f 7ad2 	mov.w	sl, r2, lsr #31
    1a5e:	1c9a      	adds	r2, r3, #2
    1a60:	f000 80a3 	beq.w	1baa <__gnu_unwind_pr_common+0x248>
    1a64:	3301      	adds	r3, #1
    1a66:	f105 0258 	add.w	r2, r5, #88	; 0x58
    1a6a:	9204      	str	r2, [sp, #16]
    1a6c:	d00a      	beq.n	1a84 <__gnu_unwind_pr_common+0x122>
    1a6e:	1d30      	adds	r0, r6, #4
    1a70:	f7ff fe01 	bl	1676 <_Unwind_decode_typeinfo_ptr.isra.0>
    1a74:	4652      	mov	r2, sl
    1a76:	ab04      	add	r3, sp, #16
    1a78:	4601      	mov	r1, r0
    1a7a:	4628      	mov	r0, r5
    1a7c:	f7fe efca 	blx	a14 <__cxa_type_match@plt>
    1a80:	4604      	mov	r4, r0
    1a82:	b1c8      	cbz	r0, 1ab8 <__gnu_unwind_pr_common+0x156>
    1a84:	4638      	mov	r0, r7
    1a86:	210d      	movs	r1, #13
    1a88:	f7ff fefe 	bl	1888 <_Unwind_GetGR>
    1a8c:	2c02      	cmp	r4, #2
    1a8e:	9a04      	ldr	r2, [sp, #16]
    1a90:	bf0c      	ite	eq
    1a92:	462b      	moveq	r3, r5
    1a94:	4613      	movne	r3, r2
    1a96:	6228      	str	r0, [r5, #32]
    1a98:	bf08      	it	eq
    1a9a:	f843 2f2c 	streq.w	r2, [r3, #44]!
    1a9e:	e08c      	b.n	1bba <__gnu_unwind_pr_common+0x258>
    1aa0:	4638      	mov	r0, r7
    1aa2:	210d      	movs	r1, #13
    1aa4:	6a2c      	ldr	r4, [r5, #32]
    1aa6:	f7ff feef 	bl	1888 <_Unwind_GetGR>
    1aaa:	4284      	cmp	r4, r0
    1aac:	d104      	bne.n	1ab8 <__gnu_unwind_pr_common+0x156>
    1aae:	6aab      	ldr	r3, [r5, #40]	; 0x28
    1ab0:	429e      	cmp	r6, r3
    1ab2:	d101      	bne.n	1ab8 <__gnu_unwind_pr_common+0x156>
    1ab4:	4630      	mov	r0, r6
    1ab6:	e040      	b.n	1b3a <__gnu_unwind_pr_common+0x1d8>
    1ab8:	f106 0408 	add.w	r4, r6, #8
    1abc:	e77f      	b.n	19be <__gnu_unwind_pr_common+0x5c>
    1abe:	6834      	ldr	r4, [r6, #0]
    1ac0:	f024 4400 	bic.w	r4, r4, #2147483648	; 0x80000000
    1ac4:	f1b8 0f00 	cmp.w	r8, #0
    1ac8:	d11f      	bne.n	1b0a <__gnu_unwind_pr_common+0x1a8>
    1aca:	2800      	cmp	r0, #0
    1acc:	d042      	beq.n	1b54 <__gnu_unwind_pr_common+0x1f2>
    1ace:	9b02      	ldr	r3, [sp, #8]
    1ad0:	071b      	lsls	r3, r3, #28
    1ad2:	d501      	bpl.n	1ad8 <__gnu_unwind_pr_common+0x176>
    1ad4:	2c00      	cmp	r4, #0
    1ad6:	d13d      	bne.n	1b54 <__gnu_unwind_pr_common+0x1f2>
    1ad8:	f10d 0b10 	add.w	fp, sp, #16
    1adc:	46c2      	mov	sl, r8
    1ade:	f105 0358 	add.w	r3, r5, #88	; 0x58
    1ae2:	9303      	str	r3, [sp, #12]
    1ae4:	45a2      	cmp	sl, r4
    1ae6:	d062      	beq.n	1bae <__gnu_unwind_pr_common+0x24c>
    1ae8:	9b03      	ldr	r3, [sp, #12]
    1aea:	f10a 0a01 	add.w	sl, sl, #1
    1aee:	eb06 008a 	add.w	r0, r6, sl, lsl #2
    1af2:	9304      	str	r3, [sp, #16]
    1af4:	f7ff fdbf 	bl	1676 <_Unwind_decode_typeinfo_ptr.isra.0>
    1af8:	2200      	movs	r2, #0
    1afa:	465b      	mov	r3, fp
    1afc:	4601      	mov	r1, r0
    1afe:	4628      	mov	r0, r5
    1b00:	f7fe ef88 	blx	a14 <__cxa_type_match@plt>
    1b04:	2800      	cmp	r0, #0
    1b06:	d0ed      	beq.n	1ae4 <__gnu_unwind_pr_common+0x182>
    1b08:	e024      	b.n	1b54 <__gnu_unwind_pr_common+0x1f2>
    1b0a:	4638      	mov	r0, r7
    1b0c:	210d      	movs	r1, #13
    1b0e:	f8d5 a020 	ldr.w	sl, [r5, #32]
    1b12:	f7ff feb9 	bl	1888 <_Unwind_GetGR>
    1b16:	4582      	cmp	sl, r0
    1b18:	d11c      	bne.n	1b54 <__gnu_unwind_pr_common+0x1f2>
    1b1a:	6aab      	ldr	r3, [r5, #40]	; 0x28
    1b1c:	429e      	cmp	r6, r3
    1b1e:	d119      	bne.n	1b54 <__gnu_unwind_pr_common+0x1f2>
    1b20:	2300      	movs	r3, #0
    1b22:	62eb      	str	r3, [r5, #44]	; 0x2c
    1b24:	2304      	movs	r3, #4
    1b26:	62ac      	str	r4, [r5, #40]	; 0x28
    1b28:	632b      	str	r3, [r5, #48]	; 0x30
    1b2a:	18f3      	adds	r3, r6, r3
    1b2c:	636b      	str	r3, [r5, #52]	; 0x34
    1b2e:	6833      	ldr	r3, [r6, #0]
    1b30:	2b00      	cmp	r3, #0
    1b32:	da0d      	bge.n	1b50 <__gnu_unwind_pr_common+0x1ee>
    1b34:	1c60      	adds	r0, r4, #1
    1b36:	eb06 0080 	add.w	r0, r6, r0, lsl #2
    1b3a:	f7ff fccf 	bl	14dc <selfrel_offset31>
    1b3e:	210f      	movs	r1, #15
    1b40:	4602      	mov	r2, r0
    1b42:	4638      	mov	r0, r7
    1b44:	f7ff fec3 	bl	18ce <_Unwind_SetGR>
    1b48:	4638      	mov	r0, r7
    1b4a:	2100      	movs	r1, #0
    1b4c:	462a      	mov	r2, r5
    1b4e:	e028      	b.n	1ba2 <__gnu_unwind_pr_common+0x240>
    1b50:	2301      	movs	r3, #1
    1b52:	9301      	str	r3, [sp, #4]
    1b54:	6833      	ldr	r3, [r6, #0]
    1b56:	3401      	adds	r4, #1
    1b58:	2b00      	cmp	r3, #0
    1b5a:	bfb8      	it	lt
    1b5c:	3604      	addlt	r6, #4
    1b5e:	eb06 0484 	add.w	r4, r6, r4, lsl #2
    1b62:	e72c      	b.n	19be <__gnu_unwind_pr_common+0x5c>
    1b64:	2300      	movs	r3, #0
    1b66:	9301      	str	r3, [sp, #4]
    1b68:	f1b9 0f02 	cmp.w	r9, #2
    1b6c:	dd02      	ble.n	1b74 <__gnu_unwind_pr_common+0x212>
    1b6e:	f7ff fd88 	bl	1682 <__gnu_unwind_24bit.isra.1>
    1b72:	e003      	b.n	1b7c <__gnu_unwind_pr_common+0x21a>
    1b74:	4638      	mov	r0, r7
    1b76:	a905      	add	r1, sp, #20
    1b78:	f000 fa3f 	bl	1ffa <__gnu_unwind_execute>
    1b7c:	b9a8      	cbnz	r0, 1baa <__gnu_unwind_pr_common+0x248>
    1b7e:	9b01      	ldr	r3, [sp, #4]
    1b80:	b90b      	cbnz	r3, 1b86 <__gnu_unwind_pr_common+0x224>
    1b82:	2008      	movs	r0, #8
    1b84:	e01c      	b.n	1bc0 <__gnu_unwind_pr_common+0x25e>
    1b86:	210f      	movs	r1, #15
    1b88:	4638      	mov	r0, r7
    1b8a:	f7ff fe7d 	bl	1888 <_Unwind_GetGR>
    1b8e:	210e      	movs	r1, #14
    1b90:	4602      	mov	r2, r0
    1b92:	4638      	mov	r0, r7
    1b94:	f7ff fe9b 	bl	18ce <_Unwind_SetGR>
    1b98:	4a0b      	ldr	r2, [pc, #44]	; (1bc8 <__gnu_unwind_pr_common+0x266>)
    1b9a:	210f      	movs	r1, #15
    1b9c:	4638      	mov	r0, r7
    1b9e:	447a      	add	r2, pc
    1ba0:	6812      	ldr	r2, [r2, #0]
    1ba2:	f7ff fe94 	bl	18ce <_Unwind_SetGR>
    1ba6:	2007      	movs	r0, #7
    1ba8:	e00a      	b.n	1bc0 <__gnu_unwind_pr_common+0x25e>
    1baa:	2009      	movs	r0, #9
    1bac:	e008      	b.n	1bc0 <__gnu_unwind_pr_common+0x25e>
    1bae:	4638      	mov	r0, r7
    1bb0:	210d      	movs	r1, #13
    1bb2:	f7ff fe69 	bl	1888 <_Unwind_GetGR>
    1bb6:	9b04      	ldr	r3, [sp, #16]
    1bb8:	6228      	str	r0, [r5, #32]
    1bba:	2006      	movs	r0, #6
    1bbc:	626b      	str	r3, [r5, #36]	; 0x24
    1bbe:	62ae      	str	r6, [r5, #40]	; 0x28
    1bc0:	b009      	add	sp, #36	; 0x24
    1bc2:	e8bd 8ff0 	ldmia.w	sp!, {r4, r5, r6, r7, r8, r9, sl, fp, pc}
    1bc6:	bf00      	nop
    1bc8:	000023f2 	strdeq	r2, [r0], -r2	; <UNPREDICTABLE>

00001bcc <__aeabi_unwind_cpp_pr0>:
    1bcc:	2300      	movs	r3, #0
    1bce:	e6c8      	b.n	1962 <__gnu_unwind_pr_common>

00001bd0 <__aeabi_unwind_cpp_pr1>:
    1bd0:	2301      	movs	r3, #1
    1bd2:	e6c6      	b.n	1962 <__gnu_unwind_pr_common>

00001bd4 <__aeabi_unwind_cpp_pr2>:
    1bd4:	2302      	movs	r3, #2
    1bd6:	e6c4      	b.n	1962 <__gnu_unwind_pr_common>

00001bd8 <_Unwind_VRS_Pop>:
    1bd8:	e92d 41f0 	stmdb	sp!, {r4, r5, r6, r7, r8, lr}
    1bdc:	4605      	mov	r5, r0
    1bde:	b0c2      	sub	sp, #264	; 0x108
    1be0:	4614      	mov	r4, r2
    1be2:	461f      	mov	r7, r3
    1be4:	2904      	cmp	r1, #4
    1be6:	d877      	bhi.n	1cd8 <_Unwind_VRS_Pop+0x100>
    1be8:	e8df f001 	tbb	[pc, r1]
    1bec:	26761a03 	ldrbtcs	r1, [r6], -r3, lsl #20
    1bf0:	2f00004d 	svccs	0x0000004d
    1bf4:	d170      	bne.n	1cd8 <_Unwind_VRS_Pop+0x100>
    1bf6:	2301      	movs	r3, #1
    1bf8:	b2a1      	uxth	r1, r4
    1bfa:	6b82      	ldr	r2, [r0, #56]	; 0x38
    1bfc:	4618      	mov	r0, r3
    1bfe:	1e5e      	subs	r6, r3, #1
    1c00:	fa00 f606 	lsl.w	r6, r0, r6
    1c04:	420e      	tst	r6, r1
    1c06:	bf1e      	ittt	ne
    1c08:	6816      	ldrne	r6, [r2, #0]
    1c0a:	3204      	addne	r2, #4
    1c0c:	f845 6023 	strne.w	r6, [r5, r3, lsl #2]
    1c10:	3301      	adds	r3, #1
    1c12:	2b11      	cmp	r3, #17
    1c14:	d1f3      	bne.n	1bfe <_Unwind_VRS_Pop+0x26>
    1c16:	f414 5000 	ands.w	r0, r4, #8192	; 0x2000
    1c1a:	d168      	bne.n	1cee <_Unwind_VRS_Pop+0x116>
    1c1c:	63aa      	str	r2, [r5, #56]	; 0x38
    1c1e:	e0ef      	b.n	1e00 <_Unwind_VRS_Pop+0x228>
    1c20:	f027 0304 	bic.w	r3, r7, #4
    1c24:	2b01      	cmp	r3, #1
    1c26:	d157      	bne.n	1cd8 <_Unwind_VRS_Pop+0x100>
    1c28:	2f01      	cmp	r7, #1
    1c2a:	ea4f 4814 	mov.w	r8, r4, lsr #16
    1c2e:	b2a4      	uxth	r4, r4
    1c30:	eb04 0608 	add.w	r6, r4, r8
    1c34:	d15d      	bne.n	1cf2 <_Unwind_VRS_Pop+0x11a>
    1c36:	e04a      	b.n	1cce <_Unwind_VRS_Pop+0xf6>
    1c38:	2f03      	cmp	r7, #3
    1c3a:	d14d      	bne.n	1cd8 <_Unwind_VRS_Pop+0x100>
    1c3c:	0c26      	lsrs	r6, r4, #16
    1c3e:	b2a4      	uxth	r4, r4
    1c40:	19a3      	adds	r3, r4, r6
    1c42:	2b10      	cmp	r3, #16
    1c44:	d848      	bhi.n	1cd8 <_Unwind_VRS_Pop+0x100>
    1c46:	6803      	ldr	r3, [r0, #0]
    1c48:	0719      	lsls	r1, r3, #28
    1c4a:	d506      	bpl.n	1c5a <_Unwind_VRS_Pop+0x82>
    1c4c:	f023 0308 	bic.w	r3, r3, #8
    1c50:	6003      	str	r3, [r0, #0]
    1c52:	f500 70a8 	add.w	r0, r0, #336	; 0x150
    1c56:	f000 f91d 	bl	1e94 <__gnu_Unwind_Save_WMMXD>
    1c5a:	af20      	add	r7, sp, #128	; 0x80
    1c5c:	eb07 06c6 	add.w	r6, r7, r6, lsl #3
    1c60:	4638      	mov	r0, r7
    1c62:	3e04      	subs	r6, #4
    1c64:	f000 f916 	bl	1e94 <__gnu_Unwind_Save_WMMXD>
    1c68:	6bab      	ldr	r3, [r5, #56]	; 0x38
    1c6a:	eb03 04c4 	add.w	r4, r3, r4, lsl #3
    1c6e:	42a3      	cmp	r3, r4
    1c70:	d004      	beq.n	1c7c <_Unwind_VRS_Pop+0xa4>
    1c72:	f853 2b04 	ldr.w	r2, [r3], #4
    1c76:	f846 2f04 	str.w	r2, [r6, #4]!
    1c7a:	e7f8      	b.n	1c6e <_Unwind_VRS_Pop+0x96>
    1c7c:	63ab      	str	r3, [r5, #56]	; 0x38
    1c7e:	4638      	mov	r0, r7
    1c80:	f000 f8e6 	bl	1e50 <__gnu_Unwind_Restore_WMMXD>
    1c84:	e033      	b.n	1cee <_Unwind_VRS_Pop+0x116>
    1c86:	bb3f      	cbnz	r7, 1cd8 <_Unwind_VRS_Pop+0x100>
    1c88:	2c10      	cmp	r4, #16
    1c8a:	d825      	bhi.n	1cd8 <_Unwind_VRS_Pop+0x100>
    1c8c:	6803      	ldr	r3, [r0, #0]
    1c8e:	06da      	lsls	r2, r3, #27
    1c90:	d506      	bpl.n	1ca0 <_Unwind_VRS_Pop+0xc8>
    1c92:	f023 0310 	bic.w	r3, r3, #16
    1c96:	6003      	str	r3, [r0, #0]
    1c98:	f500 70e8 	add.w	r0, r0, #464	; 0x1d0
    1c9c:	f000 f926 	bl	1eec <__gnu_Unwind_Save_WMMXC>
    1ca0:	ae20      	add	r6, sp, #128	; 0x80
    1ca2:	4630      	mov	r0, r6
    1ca4:	f000 f922 	bl	1eec <__gnu_Unwind_Save_WMMXC>
    1ca8:	6baa      	ldr	r2, [r5, #56]	; 0x38
    1caa:	2300      	movs	r3, #0
    1cac:	2101      	movs	r1, #1
    1cae:	fa01 f003 	lsl.w	r0, r1, r3
    1cb2:	4220      	tst	r0, r4
    1cb4:	bf1e      	ittt	ne
    1cb6:	6810      	ldrne	r0, [r2, #0]
    1cb8:	3204      	addne	r2, #4
    1cba:	f846 0023 	strne.w	r0, [r6, r3, lsl #2]
    1cbe:	3301      	adds	r3, #1
    1cc0:	2b04      	cmp	r3, #4
    1cc2:	d1f4      	bne.n	1cae <_Unwind_VRS_Pop+0xd6>
    1cc4:	63aa      	str	r2, [r5, #56]	; 0x38
    1cc6:	4630      	mov	r0, r6
    1cc8:	f000 f906 	bl	1ed8 <__gnu_Unwind_Restore_WMMXC>
    1ccc:	e00f      	b.n	1cee <_Unwind_VRS_Pop+0x116>
    1cce:	2e10      	cmp	r6, #16
    1cd0:	d802      	bhi.n	1cd8 <_Unwind_VRS_Pop+0x100>
    1cd2:	f1b8 0f0f 	cmp.w	r8, #15
    1cd6:	d97e      	bls.n	1dd6 <_Unwind_VRS_Pop+0x1fe>
    1cd8:	2002      	movs	r0, #2
    1cda:	e091      	b.n	1e00 <_Unwind_VRS_Pop+0x228>
    1cdc:	2f01      	cmp	r7, #1
    1cde:	bf08      	it	eq
    1ce0:	3304      	addeq	r3, #4
    1ce2:	2f01      	cmp	r7, #1
    1ce4:	63ab      	str	r3, [r5, #56]	; 0x38
    1ce6:	d14f      	bne.n	1d88 <_Unwind_VRS_Pop+0x1b0>
    1ce8:	a820      	add	r0, sp, #128	; 0x80
    1cea:	f000 f899 	bl	1e20 <__gnu_Unwind_Restore_VFP>
    1cee:	2000      	movs	r0, #0
    1cf0:	e086      	b.n	1e00 <_Unwind_VRS_Pop+0x228>
    1cf2:	2e20      	cmp	r6, #32
    1cf4:	d8f0      	bhi.n	1cd8 <_Unwind_VRS_Pop+0x100>
    1cf6:	f1b8 0f0f 	cmp.w	r8, #15
    1cfa:	d902      	bls.n	1d02 <_Unwind_VRS_Pop+0x12a>
    1cfc:	2c00      	cmp	r4, #0
    1cfe:	d16c      	bne.n	1dda <_Unwind_VRS_Pop+0x202>
    1d00:	e01a      	b.n	1d38 <_Unwind_VRS_Pop+0x160>
    1d02:	2e10      	cmp	r6, #16
    1d04:	d967      	bls.n	1dd6 <_Unwind_VRS_Pop+0x1fe>
    1d06:	2f05      	cmp	r7, #5
    1d08:	d1e6      	bne.n	1cd8 <_Unwind_VRS_Pop+0x100>
    1d0a:	3e10      	subs	r6, #16
    1d0c:	682b      	ldr	r3, [r5, #0]
    1d0e:	07da      	lsls	r2, r3, #31
    1d10:	d54b      	bpl.n	1daa <_Unwind_VRS_Pop+0x1d2>
    1d12:	2f05      	cmp	r7, #5
    1d14:	4628      	mov	r0, r5
    1d16:	f023 0201 	bic.w	r2, r3, #1
    1d1a:	f840 2b48 	str.w	r2, [r0], #72
    1d1e:	d13f      	bne.n	1da0 <_Unwind_VRS_Pop+0x1c8>
    1d20:	f042 0202 	orr.w	r2, r2, #2
    1d24:	602a      	str	r2, [r5, #0]
    1d26:	f000 f887 	bl	1e38 <__gnu_Unwind_Save_VFP_D>
    1d2a:	2e00      	cmp	r6, #0
    1d2c:	d13e      	bne.n	1dac <_Unwind_VRS_Pop+0x1d4>
    1d2e:	a820      	add	r0, sp, #128	; 0x80
    1d30:	f000 f882 	bl	1e38 <__gnu_Unwind_Save_VFP_D>
    1d34:	2e00      	cmp	r6, #0
    1d36:	d148      	bne.n	1dca <_Unwind_VRS_Pop+0x1f2>
    1d38:	2600      	movs	r6, #0
    1d3a:	6baa      	ldr	r2, [r5, #56]	; 0x38
    1d3c:	2c00      	cmp	r4, #0
    1d3e:	4613      	mov	r3, r2
    1d40:	dd0e      	ble.n	1d60 <_Unwind_VRS_Pop+0x188>
    1d42:	a820      	add	r0, sp, #128	; 0x80
    1d44:	0064      	lsls	r4, r4, #1
    1d46:	eb00 00c8 	add.w	r0, r0, r8, lsl #3
    1d4a:	2300      	movs	r3, #0
    1d4c:	42a3      	cmp	r3, r4
    1d4e:	d005      	beq.n	1d5c <_Unwind_VRS_Pop+0x184>
    1d50:	f852 1023 	ldr.w	r1, [r2, r3, lsl #2]
    1d54:	f840 1023 	str.w	r1, [r0, r3, lsl #2]
    1d58:	3301      	adds	r3, #1
    1d5a:	e7f7      	b.n	1d4c <_Unwind_VRS_Pop+0x174>
    1d5c:	eb02 0383 	add.w	r3, r2, r3, lsl #2
    1d60:	2e00      	cmp	r6, #0
    1d62:	d0bb      	beq.n	1cdc <_Unwind_VRS_Pop+0x104>
    1d64:	4642      	mov	r2, r8
    1d66:	2a10      	cmp	r2, #16
    1d68:	bf38      	it	cc
    1d6a:	2210      	movcc	r2, #16
    1d6c:	a942      	add	r1, sp, #264	; 0x108
    1d6e:	eb01 02c2 	add.w	r2, r1, r2, lsl #3
    1d72:	eb03 01c6 	add.w	r1, r3, r6, lsl #3
    1d76:	f5a2 72c6 	sub.w	r2, r2, #396	; 0x18c
    1d7a:	428b      	cmp	r3, r1
    1d7c:	d0ae      	beq.n	1cdc <_Unwind_VRS_Pop+0x104>
    1d7e:	f853 0b04 	ldr.w	r0, [r3], #4
    1d82:	f842 0f04 	str.w	r0, [r2, #4]!
    1d86:	e7f8      	b.n	1d7a <_Unwind_VRS_Pop+0x1a2>
    1d88:	f1b8 0f0f 	cmp.w	r8, #15
    1d8c:	d802      	bhi.n	1d94 <_Unwind_VRS_Pop+0x1bc>
    1d8e:	a820      	add	r0, sp, #128	; 0x80
    1d90:	f000 f84e 	bl	1e30 <__gnu_Unwind_Restore_VFP_D>
    1d94:	2e00      	cmp	r6, #0
    1d96:	d0aa      	beq.n	1cee <_Unwind_VRS_Pop+0x116>
    1d98:	4668      	mov	r0, sp
    1d9a:	f000 f851 	bl	1e40 <__gnu_Unwind_Restore_VFP_D_16_to_31>
    1d9e:	e7a6      	b.n	1cee <_Unwind_VRS_Pop+0x116>
    1da0:	f023 0303 	bic.w	r3, r3, #3
    1da4:	602b      	str	r3, [r5, #0]
    1da6:	f000 f83f 	bl	1e28 <__gnu_Unwind_Save_VFP>
    1daa:	b1fe      	cbz	r6, 1dec <_Unwind_VRS_Pop+0x214>
    1dac:	682b      	ldr	r3, [r5, #0]
    1dae:	0758      	lsls	r0, r3, #29
    1db0:	d506      	bpl.n	1dc0 <_Unwind_VRS_Pop+0x1e8>
    1db2:	4628      	mov	r0, r5
    1db4:	f023 0304 	bic.w	r3, r3, #4
    1db8:	f840 3bd0 	str.w	r3, [r0], #208
    1dbc:	f000 f844 	bl	1e48 <__gnu_Unwind_Save_VFP_D_16_to_31>
    1dc0:	2f01      	cmp	r7, #1
    1dc2:	d00f      	beq.n	1de4 <_Unwind_VRS_Pop+0x20c>
    1dc4:	f1b8 0f0f 	cmp.w	r8, #15
    1dc8:	d9b1      	bls.n	1d2e <_Unwind_VRS_Pop+0x156>
    1dca:	4668      	mov	r0, sp
    1dcc:	f000 f83c 	bl	1e48 <__gnu_Unwind_Save_VFP_D_16_to_31>
    1dd0:	f1c8 0410 	rsb	r4, r8, #16
    1dd4:	e7b1      	b.n	1d3a <_Unwind_VRS_Pop+0x162>
    1dd6:	2600      	movs	r6, #0
    1dd8:	e798      	b.n	1d0c <_Unwind_VRS_Pop+0x134>
    1dda:	2f05      	cmp	r7, #5
    1ddc:	f47f af7c 	bne.w	1cd8 <_Unwind_VRS_Pop+0x100>
    1de0:	4626      	mov	r6, r4
    1de2:	e7e3      	b.n	1dac <_Unwind_VRS_Pop+0x1d4>
    1de4:	a820      	add	r0, sp, #128	; 0x80
    1de6:	f000 f81f 	bl	1e28 <__gnu_Unwind_Save_VFP>
    1dea:	e7f1      	b.n	1dd0 <_Unwind_VRS_Pop+0x1f8>
    1dec:	2f01      	cmp	r7, #1
    1dee:	d103      	bne.n	1df8 <_Unwind_VRS_Pop+0x220>
    1df0:	a820      	add	r0, sp, #128	; 0x80
    1df2:	f000 f819 	bl	1e28 <__gnu_Unwind_Save_VFP>
    1df6:	e79f      	b.n	1d38 <_Unwind_VRS_Pop+0x160>
    1df8:	f1b8 0f0f 	cmp.w	r8, #15
    1dfc:	d997      	bls.n	1d2e <_Unwind_VRS_Pop+0x156>
    1dfe:	e79b      	b.n	1d38 <_Unwind_VRS_Pop+0x160>
    1e00:	b042      	add	sp, #264	; 0x108
    1e02:	e8bd 81f0 	ldmia.w	sp!, {r4, r5, r6, r7, r8, pc}
    1e06:	bf00      	nop

00001e08 <__restore_core_regs>:
    1e08:	f100 0134 	add.w	r1, r0, #52	; 0x34
    1e0c:	e891 0038 	ldmia.w	r1, {r3, r4, r5}
    1e10:	469c      	mov	ip, r3
    1e12:	46a6      	mov	lr, r4
    1e14:	f84c 5d04 	str.w	r5, [ip, #-4]!
    1e18:	e890 0fff 	ldmia.w	r0, {r0, r1, r2, r3, r4, r5, r6, r7, r8, r9, sl, fp}
    1e1c:	46e5      	mov	sp, ip
    1e1e:	bd00      	pop	{pc}

00001e20 <__gnu_Unwind_Restore_VFP>:
    1e20:	ec90 0b21 	fldmiax	r0, {d0-d15}	;@ Deprecated
    1e24:	4770      	bx	lr
    1e26:	bf00      	nop

00001e28 <__gnu_Unwind_Save_VFP>:
    1e28:	ec80 0b21 	fstmiax	r0, {d0-d15}	;@ Deprecated
    1e2c:	4770      	bx	lr
    1e2e:	bf00      	nop

00001e30 <__gnu_Unwind_Restore_VFP_D>:
    1e30:	ec90 0b20 	vldmia	r0, {d0-d15}
    1e34:	4770      	bx	lr
    1e36:	bf00      	nop

00001e38 <__gnu_Unwind_Save_VFP_D>:
    1e38:	ec80 0b20 	vstmia	r0, {d0-d15}
    1e3c:	4770      	bx	lr
    1e3e:	bf00      	nop

00001e40 <__gnu_Unwind_Restore_VFP_D_16_to_31>:
    1e40:	ecd0 0b20 	vldmia	r0, {d16-d31}
    1e44:	4770      	bx	lr
    1e46:	bf00      	nop

00001e48 <__gnu_Unwind_Save_VFP_D_16_to_31>:
    1e48:	ecc0 0b20 	vstmia	r0, {d16-d31}
    1e4c:	4770      	bx	lr
    1e4e:	bf00      	nop

00001e50 <__gnu_Unwind_Restore_WMMXD>:
    1e50:	ecf0 0102 	ldfe	f0, [r0], #8
    1e54:	ecf0 1102 	ldfe	f1, [r0], #8
    1e58:	ecf0 2102 	ldfe	f2, [r0], #8
    1e5c:	ecf0 3102 	ldfe	f3, [r0], #8
    1e60:	ecf0 4102 	ldfe	f4, [r0], #8
    1e64:	ecf0 5102 	ldfe	f5, [r0], #8
    1e68:	ecf0 6102 	ldfe	f6, [r0], #8
    1e6c:	ecf0 7102 	ldfe	f7, [r0], #8
    1e70:	ecf0 8102 	ldfp	f0, [r0], #8
    1e74:	ecf0 9102 	ldfp	f1, [r0], #8
    1e78:	ecf0 a102 	ldfp	f2, [r0], #8
    1e7c:	ecf0 b102 	ldfp	f3, [r0], #8
    1e80:	ecf0 c102 	ldfp	f4, [r0], #8
    1e84:	ecf0 d102 	ldfp	f5, [r0], #8
    1e88:	ecf0 e102 	ldfp	f6, [r0], #8
    1e8c:	ecf0 f102 	ldfp	f7, [r0], #8
    1e90:	4770      	bx	lr
    1e92:	bf00      	nop

00001e94 <__gnu_Unwind_Save_WMMXD>:
    1e94:	ece0 0102 	stfe	f0, [r0], #8
    1e98:	ece0 1102 	stfe	f1, [r0], #8
    1e9c:	ece0 2102 	stfe	f2, [r0], #8
    1ea0:	ece0 3102 	stfe	f3, [r0], #8
    1ea4:	ece0 4102 	stfe	f4, [r0], #8
    1ea8:	ece0 5102 	stfe	f5, [r0], #8
    1eac:	ece0 6102 	stfe	f6, [r0], #8
    1eb0:	ece0 7102 	stfe	f7, [r0], #8
    1eb4:	ece0 8102 	stfp	f0, [r0], #8
    1eb8:	ece0 9102 	stfp	f1, [r0], #8
    1ebc:	ece0 a102 	stfp	f2, [r0], #8
    1ec0:	ece0 b102 	stfp	f3, [r0], #8
    1ec4:	ece0 c102 	stfp	f4, [r0], #8
    1ec8:	ece0 d102 	stfp	f5, [r0], #8
    1ecc:	ece0 e102 	stfp	f6, [r0], #8
    1ed0:	ece0 f102 	stfp	f7, [r0], #8
    1ed4:	4770      	bx	lr
    1ed6:	bf00      	nop

00001ed8 <__gnu_Unwind_Restore_WMMXC>:
    1ed8:	fcb0 8101 	ldc2	1, cr8, [r0], #4
    1edc:	fcb0 9101 	ldc2	1, cr9, [r0], #4
    1ee0:	fcb0 a101 	ldc2	1, cr10, [r0], #4
    1ee4:	fcb0 b101 	ldc2	1, cr11, [r0], #4
    1ee8:	4770      	bx	lr
    1eea:	bf00      	nop

00001eec <__gnu_Unwind_Save_WMMXC>:
    1eec:	fca0 8101 	stc2	1, cr8, [r0], #4
    1ef0:	fca0 9101 	stc2	1, cr9, [r0], #4
    1ef4:	fca0 a101 	stc2	1, cr10, [r0], #4
    1ef8:	fca0 b101 	stc2	1, cr11, [r0], #4
    1efc:	4770      	bx	lr
    1efe:	bf00      	nop

00001f00 <_Unwind_RaiseException>:
    1f00:	46ec      	mov	ip, sp
    1f02:	b500      	push	{lr}
    1f04:	e92d 5000 	stmdb	sp!, {ip, lr}
    1f08:	e92d 1fff 	stmdb	sp!, {r0, r1, r2, r3, r4, r5, r6, r7, r8, r9, sl, fp, ip}
    1f0c:	f04f 0300 	mov.w	r3, #0
    1f10:	e92d 000c 	stmdb	sp!, {r2, r3}
    1f14:	a901      	add	r1, sp, #4
    1f16:	f7ff fc35 	bl	1784 <__gnu_Unwind_RaiseException>
    1f1a:	f8dd e040 	ldr.w	lr, [sp, #64]	; 0x40
    1f1e:	b012      	add	sp, #72	; 0x48
    1f20:	4770      	bx	lr
    1f22:	bf00      	nop

00001f24 <_Unwind_Resume>:
    1f24:	46ec      	mov	ip, sp
    1f26:	b500      	push	{lr}
    1f28:	e92d 5000 	stmdb	sp!, {ip, lr}
    1f2c:	e92d 1fff 	stmdb	sp!, {r0, r1, r2, r3, r4, r5, r6, r7, r8, r9, sl, fp, ip}
    1f30:	f04f 0300 	mov.w	r3, #0
    1f34:	e92d 000c 	stmdb	sp!, {r2, r3}
    1f38:	a901      	add	r1, sp, #4
    1f3a:	f7ff fc5e 	bl	17fa <__gnu_Unwind_Resume>
    1f3e:	f8dd e040 	ldr.w	lr, [sp, #64]	; 0x40
    1f42:	b012      	add	sp, #72	; 0x48
    1f44:	4770      	bx	lr
    1f46:	bf00      	nop

00001f48 <_Unwind_Resume_or_Rethrow>:
    1f48:	46ec      	mov	ip, sp
    1f4a:	b500      	push	{lr}
    1f4c:	e92d 5000 	stmdb	sp!, {ip, lr}
    1f50:	e92d 1fff 	stmdb	sp!, {r0, r1, r2, r3, r4, r5, r6, r7, r8, r9, sl, fp, ip}
    1f54:	f04f 0300 	mov.w	r3, #0
    1f58:	e92d 000c 	stmdb	sp!, {r2, r3}
    1f5c:	a901      	add	r1, sp, #4
    1f5e:	f7ff fc6d 	bl	183c <__gnu_Unwind_Resume_or_Rethrow>
    1f62:	f8dd e040 	ldr.w	lr, [sp, #64]	; 0x40
    1f66:	b012      	add	sp, #72	; 0x48
    1f68:	4770      	bx	lr
    1f6a:	bf00      	nop

00001f6c <_Unwind_ForcedUnwind>:
    1f6c:	46ec      	mov	ip, sp
    1f6e:	b500      	push	{lr}
    1f70:	e92d 5000 	stmdb	sp!, {ip, lr}
    1f74:	e92d 1fff 	stmdb	sp!, {r0, r1, r2, r3, r4, r5, r6, r7, r8, r9, sl, fp, ip}
    1f78:	f04f 0300 	mov.w	r3, #0
    1f7c:	e92d 000c 	stmdb	sp!, {r2, r3}
    1f80:	ab01      	add	r3, sp, #4
    1f82:	f7ff fc30 	bl	17e6 <__gnu_Unwind_ForcedUnwind>
    1f86:	f8dd e040 	ldr.w	lr, [sp, #64]	; 0x40
    1f8a:	b012      	add	sp, #72	; 0x48
    1f8c:	4770      	bx	lr
    1f8e:	bf00      	nop

00001f90 <_Unwind_Backtrace>:
    1f90:	46ec      	mov	ip, sp
    1f92:	b500      	push	{lr}
    1f94:	e92d 5000 	stmdb	sp!, {ip, lr}
    1f98:	e92d 1fff 	stmdb	sp!, {r0, r1, r2, r3, r4, r5, r6, r7, r8, r9, sl, fp, ip}
    1f9c:	f04f 0300 	mov.w	r3, #0
    1fa0:	e92d 000c 	stmdb	sp!, {r2, r3}
    1fa4:	aa01      	add	r2, sp, #4
    1fa6:	f7ff fc9f 	bl	18e8 <__gnu_Unwind_Backtrace>
    1faa:	f8dd e040 	ldr.w	lr, [sp, #64]	; 0x40
    1fae:	b012      	add	sp, #72	; 0x48
    1fb0:	4770      	bx	lr
    1fb2:	bf00      	nop

00001fb4 <next_unwind_byte>:
    1fb4:	7a03      	ldrb	r3, [r0, #8]
    1fb6:	b953      	cbnz	r3, 1fce <next_unwind_byte+0x1a>
    1fb8:	7a43      	ldrb	r3, [r0, #9]
    1fba:	b17b      	cbz	r3, 1fdc <next_unwind_byte+0x28>
    1fbc:	3b01      	subs	r3, #1
    1fbe:	7243      	strb	r3, [r0, #9]
    1fc0:	6843      	ldr	r3, [r0, #4]
    1fc2:	1d1a      	adds	r2, r3, #4
    1fc4:	6042      	str	r2, [r0, #4]
    1fc6:	681b      	ldr	r3, [r3, #0]
    1fc8:	6003      	str	r3, [r0, #0]
    1fca:	2303      	movs	r3, #3
    1fcc:	e000      	b.n	1fd0 <next_unwind_byte+0x1c>
    1fce:	3b01      	subs	r3, #1
    1fd0:	7203      	strb	r3, [r0, #8]
    1fd2:	6803      	ldr	r3, [r0, #0]
    1fd4:	021a      	lsls	r2, r3, #8
    1fd6:	6002      	str	r2, [r0, #0]
    1fd8:	0e18      	lsrs	r0, r3, #24
    1fda:	4770      	bx	lr
    1fdc:	20b0      	movs	r0, #176	; 0xb0
    1fde:	4770      	bx	lr

00001fe0 <_Unwind_GetGR.constprop.0>:
    1fe0:	b51f      	push	{r0, r1, r2, r3, r4, lr}
    1fe2:	2100      	movs	r1, #0
    1fe4:	ab03      	add	r3, sp, #12
    1fe6:	220c      	movs	r2, #12
    1fe8:	9300      	str	r3, [sp, #0]
    1fea:	460b      	mov	r3, r1
    1fec:	f7ff fc35 	bl	185a <_Unwind_VRS_Get>
    1ff0:	9803      	ldr	r0, [sp, #12]
    1ff2:	b005      	add	sp, #20
    1ff4:	f85d fb04 	ldr.w	pc, [sp], #4

00001ff8 <unwind_UCB_from_context>:
    1ff8:	e7f2      	b.n	1fe0 <_Unwind_GetGR.constprop.0>

00001ffa <__gnu_unwind_execute>:
    1ffa:	e92d 43f0 	stmdb	sp!, {r4, r5, r6, r7, r8, r9, lr}
    1ffe:	2600      	movs	r6, #0
    2000:	b085      	sub	sp, #20
    2002:	4605      	mov	r5, r0
    2004:	460f      	mov	r7, r1
    2006:	4638      	mov	r0, r7
    2008:	f7ff ffd4 	bl	1fb4 <next_unwind_byte>
    200c:	28b0      	cmp	r0, #176	; 0xb0
    200e:	4604      	mov	r4, r0
    2010:	d112      	bne.n	2038 <__gnu_unwind_execute+0x3e>
    2012:	2e00      	cmp	r6, #0
    2014:	f040 8128 	bne.w	2268 <__gnu_unwind_execute+0x26e>
    2018:	ac03      	add	r4, sp, #12
    201a:	4631      	mov	r1, r6
    201c:	4633      	mov	r3, r6
    201e:	9400      	str	r4, [sp, #0]
    2020:	4628      	mov	r0, r5
    2022:	220e      	movs	r2, #14
    2024:	f7ff fc19 	bl	185a <_Unwind_VRS_Get>
    2028:	9400      	str	r4, [sp, #0]
    202a:	4628      	mov	r0, r5
    202c:	4631      	mov	r1, r6
    202e:	220f      	movs	r2, #15
    2030:	4633      	mov	r3, r6
    2032:	f7ff fc35 	bl	18a0 <_Unwind_VRS_Set>
    2036:	e117      	b.n	2268 <__gnu_unwind_execute+0x26e>
    2038:	f020 017f 	bic.w	r1, r0, #127	; 0x7f
    203c:	f011 01ff 	ands.w	r1, r1, #255	; 0xff
    2040:	d119      	bne.n	2076 <__gnu_unwind_execute+0x7c>
    2042:	ea4f 0880 	mov.w	r8, r0, lsl #2
    2046:	f10d 090c 	add.w	r9, sp, #12
    204a:	460b      	mov	r3, r1
    204c:	f8cd 9000 	str.w	r9, [sp]
    2050:	4628      	mov	r0, r5
    2052:	220d      	movs	r2, #13
    2054:	f7ff fc01 	bl	185a <_Unwind_VRS_Get>
    2058:	9b03      	ldr	r3, [sp, #12]
    205a:	fa5f f888 	uxtb.w	r8, r8
    205e:	f014 0f40 	tst.w	r4, #64	; 0x40
    2062:	f108 0804 	add.w	r8, r8, #4
    2066:	f8cd 9000 	str.w	r9, [sp]
    206a:	bf14      	ite	ne
    206c:	ebc8 0303 	rsbne	r3, r8, r3
    2070:	4443      	addeq	r3, r8
    2072:	9303      	str	r3, [sp, #12]
    2074:	e02e      	b.n	20d4 <__gnu_unwind_execute+0xda>
    2076:	f000 03f0 	and.w	r3, r0, #240	; 0xf0
    207a:	2b80      	cmp	r3, #128	; 0x80
    207c:	d117      	bne.n	20ae <__gnu_unwind_execute+0xb4>
    207e:	0204      	lsls	r4, r0, #8
    2080:	4638      	mov	r0, r7
    2082:	f7ff ff97 	bl	1fb4 <next_unwind_byte>
    2086:	4320      	orrs	r0, r4
    2088:	f5b0 4f00 	cmp.w	r0, #32768	; 0x8000
    208c:	d101      	bne.n	2092 <__gnu_unwind_execute+0x98>
    208e:	2009      	movs	r0, #9
    2090:	e0eb      	b.n	226a <__gnu_unwind_execute+0x270>
    2092:	0104      	lsls	r4, r0, #4
    2094:	2100      	movs	r1, #0
    2096:	4628      	mov	r0, r5
    2098:	b2a2      	uxth	r2, r4
    209a:	460b      	mov	r3, r1
    209c:	f7ff fd9c 	bl	1bd8 <_Unwind_VRS_Pop>
    20a0:	2800      	cmp	r0, #0
    20a2:	d1f4      	bne.n	208e <__gnu_unwind_execute+0x94>
    20a4:	f414 4f00 	tst.w	r4, #32768	; 0x8000
    20a8:	bf18      	it	ne
    20aa:	2601      	movne	r6, #1
    20ac:	e7ab      	b.n	2006 <__gnu_unwind_execute+0xc>
    20ae:	2b90      	cmp	r3, #144	; 0x90
    20b0:	d117      	bne.n	20e2 <__gnu_unwind_execute+0xe8>
    20b2:	f000 030d 	and.w	r3, r0, #13
    20b6:	2b0d      	cmp	r3, #13
    20b8:	d0e9      	beq.n	208e <__gnu_unwind_execute+0x94>
    20ba:	2100      	movs	r1, #0
    20bc:	f10d 080c 	add.w	r8, sp, #12
    20c0:	4628      	mov	r0, r5
    20c2:	f8cd 8000 	str.w	r8, [sp]
    20c6:	f004 020f 	and.w	r2, r4, #15
    20ca:	460b      	mov	r3, r1
    20cc:	f7ff fbc5 	bl	185a <_Unwind_VRS_Get>
    20d0:	f8cd 8000 	str.w	r8, [sp]
    20d4:	2100      	movs	r1, #0
    20d6:	4628      	mov	r0, r5
    20d8:	220d      	movs	r2, #13
    20da:	460b      	mov	r3, r1
    20dc:	f7ff fbe0 	bl	18a0 <_Unwind_VRS_Set>
    20e0:	e791      	b.n	2006 <__gnu_unwind_execute+0xc>
    20e2:	2ba0      	cmp	r3, #160	; 0xa0
    20e4:	d10e      	bne.n	2104 <__gnu_unwind_execute+0x10a>
    20e6:	f44f 627f 	mov.w	r2, #4080	; 0xff0
    20ea:	43c3      	mvns	r3, r0
    20ec:	f003 0307 	and.w	r3, r3, #7
    20f0:	2100      	movs	r1, #0
    20f2:	411a      	asrs	r2, r3
    20f4:	0703      	lsls	r3, r0, #28
    20f6:	f402 627f 	and.w	r2, r2, #4080	; 0xff0
    20fa:	4628      	mov	r0, r5
    20fc:	bf48      	it	mi
    20fe:	f442 4280 	orrmi.w	r2, r2, #16384	; 0x4000
    2102:	e00d      	b.n	2120 <__gnu_unwind_execute+0x126>
    2104:	2bb0      	cmp	r3, #176	; 0xb0
    2106:	d14f      	bne.n	21a8 <__gnu_unwind_execute+0x1ae>
    2108:	28b1      	cmp	r0, #177	; 0xb1
    210a:	d10b      	bne.n	2124 <__gnu_unwind_execute+0x12a>
    210c:	4638      	mov	r0, r7
    210e:	f7ff ff51 	bl	1fb4 <next_unwind_byte>
    2112:	4602      	mov	r2, r0
    2114:	2800      	cmp	r0, #0
    2116:	d0ba      	beq.n	208e <__gnu_unwind_execute+0x94>
    2118:	f010 01f0 	ands.w	r1, r0, #240	; 0xf0
    211c:	d1b7      	bne.n	208e <__gnu_unwind_execute+0x94>
    211e:	4628      	mov	r0, r5
    2120:	460b      	mov	r3, r1
    2122:	e09b      	b.n	225c <__gnu_unwind_execute+0x262>
    2124:	28b2      	cmp	r0, #178	; 0xb2
    2126:	d125      	bne.n	2174 <__gnu_unwind_execute+0x17a>
    2128:	2100      	movs	r1, #0
    212a:	220d      	movs	r2, #13
    212c:	ac03      	add	r4, sp, #12
    212e:	4628      	mov	r0, r5
    2130:	460b      	mov	r3, r1
    2132:	9400      	str	r4, [sp, #0]
    2134:	f7ff fb91 	bl	185a <_Unwind_VRS_Get>
    2138:	4638      	mov	r0, r7
    213a:	f7ff ff3b 	bl	1fb4 <next_unwind_byte>
    213e:	f04f 0802 	mov.w	r8, #2
    2142:	f010 0180 	ands.w	r1, r0, #128	; 0x80
    2146:	9b03      	ldr	r3, [sp, #12]
    2148:	f000 007f 	and.w	r0, r0, #127	; 0x7f
    214c:	d009      	beq.n	2162 <__gnu_unwind_execute+0x168>
    214e:	fa00 f008 	lsl.w	r0, r0, r8
    2152:	f108 0807 	add.w	r8, r8, #7
    2156:	4418      	add	r0, r3
    2158:	9003      	str	r0, [sp, #12]
    215a:	4638      	mov	r0, r7
    215c:	f7ff ff2a 	bl	1fb4 <next_unwind_byte>
    2160:	e7ef      	b.n	2142 <__gnu_unwind_execute+0x148>
    2162:	f503 7301 	add.w	r3, r3, #516	; 0x204
    2166:	fa00 f008 	lsl.w	r0, r0, r8
    216a:	4418      	add	r0, r3
    216c:	9400      	str	r4, [sp, #0]
    216e:	9003      	str	r0, [sp, #12]
    2170:	4628      	mov	r0, r5
    2172:	e7b1      	b.n	20d8 <__gnu_unwind_execute+0xde>
    2174:	28b3      	cmp	r0, #179	; 0xb3
    2176:	d10a      	bne.n	218e <__gnu_unwind_execute+0x194>
    2178:	4638      	mov	r0, r7
    217a:	f7ff ff1b 	bl	1fb4 <next_unwind_byte>
    217e:	2101      	movs	r1, #1
    2180:	f000 020f 	and.w	r2, r0, #15
    2184:	f000 03f0 	and.w	r3, r0, #240	; 0xf0
    2188:	3201      	adds	r2, #1
    218a:	4628      	mov	r0, r5
    218c:	e01a      	b.n	21c4 <__gnu_unwind_execute+0x1ca>
    218e:	f000 03fc 	and.w	r3, r0, #252	; 0xfc
    2192:	2bb4      	cmp	r3, #180	; 0xb4
    2194:	f43f af7b 	beq.w	208e <__gnu_unwind_execute+0x94>
    2198:	f000 0207 	and.w	r2, r0, #7
    219c:	2101      	movs	r1, #1
    219e:	3201      	adds	r2, #1
    21a0:	4628      	mov	r0, r5
    21a2:	f442 2200 	orr.w	r2, r2, #524288	; 0x80000
    21a6:	e7bb      	b.n	2120 <__gnu_unwind_execute+0x126>
    21a8:	2bc0      	cmp	r3, #192	; 0xc0
    21aa:	d14a      	bne.n	2242 <__gnu_unwind_execute+0x248>
    21ac:	28c6      	cmp	r0, #198	; 0xc6
    21ae:	d10c      	bne.n	21ca <__gnu_unwind_execute+0x1d0>
    21b0:	4638      	mov	r0, r7
    21b2:	f7ff feff 	bl	1fb4 <next_unwind_byte>
    21b6:	2103      	movs	r1, #3
    21b8:	f000 020f 	and.w	r2, r0, #15
    21bc:	f000 03f0 	and.w	r3, r0, #240	; 0xf0
    21c0:	3201      	adds	r2, #1
    21c2:	4628      	mov	r0, r5
    21c4:	ea42 3203 	orr.w	r2, r2, r3, lsl #12
    21c8:	e7aa      	b.n	2120 <__gnu_unwind_execute+0x126>
    21ca:	28c7      	cmp	r0, #199	; 0xc7
    21cc:	d10d      	bne.n	21ea <__gnu_unwind_execute+0x1f0>
    21ce:	4638      	mov	r0, r7
    21d0:	f7ff fef0 	bl	1fb4 <next_unwind_byte>
    21d4:	4602      	mov	r2, r0
    21d6:	2800      	cmp	r0, #0
    21d8:	f43f af59 	beq.w	208e <__gnu_unwind_execute+0x94>
    21dc:	f010 03f0 	ands.w	r3, r0, #240	; 0xf0
    21e0:	f47f af55 	bne.w	208e <__gnu_unwind_execute+0x94>
    21e4:	4628      	mov	r0, r5
    21e6:	2104      	movs	r1, #4
    21e8:	e038      	b.n	225c <__gnu_unwind_execute+0x262>
    21ea:	f000 03f8 	and.w	r3, r0, #248	; 0xf8
    21ee:	2bc0      	cmp	r3, #192	; 0xc0
    21f0:	d107      	bne.n	2202 <__gnu_unwind_execute+0x208>
    21f2:	f000 020f 	and.w	r2, r0, #15
    21f6:	2103      	movs	r1, #3
    21f8:	3201      	adds	r2, #1
    21fa:	4628      	mov	r0, r5
    21fc:	f442 2220 	orr.w	r2, r2, #655360	; 0xa0000
    2200:	e78e      	b.n	2120 <__gnu_unwind_execute+0x126>
    2202:	28c8      	cmp	r0, #200	; 0xc8
    2204:	d10d      	bne.n	2222 <__gnu_unwind_execute+0x228>
    2206:	4638      	mov	r0, r7
    2208:	f7ff fed4 	bl	1fb4 <next_unwind_byte>
    220c:	2101      	movs	r1, #1
    220e:	f000 02f0 	and.w	r2, r0, #240	; 0xf0
    2212:	f000 000f 	and.w	r0, r0, #15
    2216:	3210      	adds	r2, #16
    2218:	1c43      	adds	r3, r0, #1
    221a:	4628      	mov	r0, r5
    221c:	ea43 3202 	orr.w	r2, r3, r2, lsl #12
    2220:	e01b      	b.n	225a <__gnu_unwind_execute+0x260>
    2222:	28c9      	cmp	r0, #201	; 0xc9
    2224:	f47f af33 	bne.w	208e <__gnu_unwind_execute+0x94>
    2228:	4638      	mov	r0, r7
    222a:	f7ff fec3 	bl	1fb4 <next_unwind_byte>
    222e:	2101      	movs	r1, #1
    2230:	f000 020f 	and.w	r2, r0, #15
    2234:	f000 03f0 	and.w	r3, r0, #240	; 0xf0
    2238:	3201      	adds	r2, #1
    223a:	4628      	mov	r0, r5
    223c:	ea42 3203 	orr.w	r2, r2, r3, lsl #12
    2240:	e00b      	b.n	225a <__gnu_unwind_execute+0x260>
    2242:	f000 03f8 	and.w	r3, r0, #248	; 0xf8
    2246:	2bd0      	cmp	r3, #208	; 0xd0
    2248:	f47f af21 	bne.w	208e <__gnu_unwind_execute+0x94>
    224c:	f000 0207 	and.w	r2, r0, #7
    2250:	2101      	movs	r1, #1
    2252:	3201      	adds	r2, #1
    2254:	4628      	mov	r0, r5
    2256:	f442 2200 	orr.w	r2, r2, #524288	; 0x80000
    225a:	2305      	movs	r3, #5
    225c:	f7ff fcbc 	bl	1bd8 <_Unwind_VRS_Pop>
    2260:	2800      	cmp	r0, #0
    2262:	f47f af14 	bne.w	208e <__gnu_unwind_execute+0x94>
    2266:	e6ce      	b.n	2006 <__gnu_unwind_execute+0xc>
    2268:	2000      	movs	r0, #0
    226a:	b005      	add	sp, #20
    226c:	e8bd 83f0 	ldmia.w	sp!, {r4, r5, r6, r7, r8, r9, pc}

00002270 <__gnu_unwind_frame>:
    2270:	b51f      	push	{r0, r1, r2, r3, r4, lr}
    2272:	6cc3      	ldr	r3, [r0, #76]	; 0x4c
    2274:	4608      	mov	r0, r1
    2276:	a901      	add	r1, sp, #4
    2278:	685a      	ldr	r2, [r3, #4]
    227a:	0212      	lsls	r2, r2, #8
    227c:	9201      	str	r2, [sp, #4]
    227e:	f103 0208 	add.w	r2, r3, #8
    2282:	9202      	str	r2, [sp, #8]
    2284:	2203      	movs	r2, #3
    2286:	f88d 200c 	strb.w	r2, [sp, #12]
    228a:	79db      	ldrb	r3, [r3, #7]
    228c:	f88d 300d 	strb.w	r3, [sp, #13]
    2290:	f7ff feb3 	bl	1ffa <__gnu_unwind_execute>
    2294:	b005      	add	sp, #20
    2296:	f85d fb04 	ldr.w	pc, [sp], #4

0000229a <_Unwind_GetRegionStart>:
    229a:	b508      	push	{r3, lr}
    229c:	f7ff feac 	bl	1ff8 <unwind_UCB_from_context>
    22a0:	6c80      	ldr	r0, [r0, #72]	; 0x48
    22a2:	bd08      	pop	{r3, pc}

000022a4 <_Unwind_GetLanguageSpecificData>:
    22a4:	b508      	push	{r3, lr}
    22a6:	f7ff fea7 	bl	1ff8 <unwind_UCB_from_context>
    22aa:	6cc3      	ldr	r3, [r0, #76]	; 0x4c
    22ac:	79d8      	ldrb	r0, [r3, #7]
    22ae:	eb03 0080 	add.w	r0, r3, r0, lsl #2
    22b2:	3008      	adds	r0, #8
    22b4:	bd08      	pop	{r3, pc}

000022b6 <_Unwind_GetDataRelBase>:
    22b6:	b508      	push	{r3, lr}
    22b8:	f7fe eb9a 	blx	9f0 <abort@plt>

000022bc <_Unwind_GetTextRelBase>:
    22bc:	b508      	push	{r3, lr}
    22be:	f7fe eb98 	blx	9f0 <abort@plt>

Disassembly of section .ARM.extab:

000022c4 <.ARM.extab>:
    22c4:	81019746 	tsthi	r1, r6, asr #14
    22c8:	80f0abb0 	ldrhthi	sl, [r0], #176	; 0xb0
    22cc:	00000000 	andeq	r0, r0, r0
    22d0:	8101b108 	tsthi	r1, r8, lsl #2
    22d4:	8400b0b0 	strhi	fp, [r0], #-176	; 0xffffff50
    22d8:	00000000 	andeq	r0, r0, r0
    22dc:	8101b108 	tsthi	r1, r8, lsl #2
    22e0:	8400b0b0 	strhi	fp, [r0], #-176	; 0xffffff50
    22e4:	00000000 	andeq	r0, r0, r0
    22e8:	8101b108 	tsthi	r1, r8, lsl #2
    22ec:	8400b0b0 	strhi	fp, [r0], #-176	; 0xffffff50
    22f0:	00000000 	andeq	r0, r0, r0
    22f4:	8101b108 	tsthi	r1, r8, lsl #2
    22f8:	8400b0b0 	strhi	fp, [r0], #-176	; 0xffffff50
    22fc:	00000000 	andeq	r0, r0, r0

Disassembly of section .ARM.exidx:

00002300 <__exidx_start>:
    2300:	7fffe75c 	svcvc	0x00ffe75c
    2304:	80978408 	addshi	r8, r7, r8, lsl #8
    2308:	7fffea00 	svcvc	0x00ffea00
    230c:	7fffffb8 	svcvc	0x00ffffb8
    2310:	7fffecfc 	svcvc	0x00ffecfc
    2314:	80978408 	addshi	r8, r7, r8, lsl #8
    2318:	7ffff198 	svcvc	0x00fff198
    231c:	00000001 	andeq	r0, r0, r1
    2320:	7ffff190 	svcvc	0x00fff190
    2324:	8004b0b0 	strhhi	fp, [r4], -r0
    2328:	7ffff1b4 	svcvc	0x00fff1b4
    232c:	80b0b0b0 	ldrhthi	fp, [r0], r0
    2330:	7ffff1be 	svcvc	0x00fff1be
    2334:	8002afb0 			; <UNDEFINED> instruction: 0x8002afb0
    2338:	7ffff21e 	svcvc	0x00fff21e
    233c:	80b0b0b0 	ldrhthi	fp, [r0], r0
    2340:	7ffff248 	svcvc	0x00fff248
    2344:	8002a9b0 			; <UNDEFINED> instruction: 0x8002a9b0
    2348:	7ffff2e0 	svcvc	0x00fff2e0
    234c:	80a8b0b0 	strhthi	fp, [r8], r0
    2350:	7ffff326 	svcvc	0x00fff326
    2354:	80b0b0b0 	ldrhthi	fp, [r0], r0
    2358:	7ffff330 	svcvc	0x00fff330
    235c:	80aab0b0 	strhthi	fp, [sl], r0
    2360:	7ffff362 	svcvc	0x00fff362
    2364:	80b272af 	adcshi	r7, r2, pc, lsr #5
    2368:	7ffff418 	svcvc	0x00fff418
    236c:	80b0b0b0 	ldrhthi	fp, [r0], r0
    2370:	7ffff414 	svcvc	0x00fff414
    2374:	80373fac 	eorshi	r3, r7, ip, lsr #31
    2378:	7ffff46e 	svcvc	0x00fff46e
    237c:	80a8b0b0 	strhthi	fp, [r8], r0
    2380:	7ffff47a 	svcvc	0x00fff47a
    2384:	80aab0b0 	strhthi	fp, [sl], r0
    2388:	7ffff4b4 	svcvc	0x00fff4b4
    238c:	80b0b0b0 	ldrhthi	fp, [r0], r0
    2390:	7ffff4ca 	svcvc	0x00fff4ca
    2394:	808400b0 	strhhi	r0, [r4], r0	; <UNPREDICTABLE>
    2398:	7ffff4f0 	svcvc	0x00fff4f0
    239c:	80048400 	andhi	r8, r4, r0, lsl #8
    23a0:	7ffff500 	svcvc	0x00fff500
    23a4:	808400b0 	strhhi	r0, [r4], r0	; <UNPREDICTABLE>
    23a8:	7ffff526 	svcvc	0x00fff526
    23ac:	8003a8b0 			; <UNDEFINED> instruction: 0x8003a8b0
    23b0:	7ffff538 	svcvc	0x00fff538
    23b4:	80b20dac 	adcshi	r0, r2, ip, lsr #27
    23b8:	7ffff5aa 	svcvc	0x00fff5aa
    23bc:	8008afb0 			; <UNDEFINED> instruction: 0x8008afb0
    23c0:	7ffff80c 	svcvc	0x00fff80c
    23c4:	80b0b0b0 	ldrhthi	fp, [r0], r0
    23c8:	7ffff810 	svcvc	0x00fff810
    23cc:	80013fac 	andhi	r3, r1, ip, lsr #31
    23d0:	7ffffa38 	svcvc	0x00fffa38
    23d4:	00000001 	andeq	r0, r0, r1
    23d8:	7ffffbdc 	svcvc	0x00fffbdc
    23dc:	80b0b0b0 	ldrhthi	fp, [r0], r0
    23e0:	7ffffc00 	svcvc	0x00fffc00
    23e4:	80048400 	andhi	r8, r4, r0, lsl #8
    23e8:	7ffffc10 	svcvc	0x00fffc10
    23ec:	80b0b0b0 	ldrhthi	fp, [r0], r0
    23f0:	7ffffc0a 	svcvc	0x00fffc0a
    23f4:	8004adb0 			; <UNDEFINED> instruction: 0x8004adb0
    23f8:	7ffffe78 	svcvc	0x00fffe78
    23fc:	80048400 	andhi	r8, r4, r0, lsl #8
    2400:	7ffffe9a 	svcvc	0x00fffe9a
    2404:	7ffffecc 	svcvc	0x00fffecc
    2408:	7ffffe9c 	svcvc	0x00fffe9c
    240c:	7ffffed0 	svcvc	0x00fffed0
    2410:	7ffffea6 	svcvc	0x00fffea6
    2414:	7ffffed4 	svcvc	0x00fffed4
    2418:	7ffffea4 	svcvc	0x00fffea4
    241c:	7ffffed8 	svcvc	0x00fffed8
    2420:	7ffffea2 	svcvc	0x00fffea2
    2424:	00000001 	andeq	r0, r0, r1

Disassembly of section .rodata:

00002428 <.rodata>:
    2428:	00647770 	rsbeq	r7, r4, r0, ror r7
    242c:	65740072 	ldrbvs	r0, [r4, #-114]!	; 0xffffff8e
    2430:	70007473 	andvc	r7, r0, r3, ror r4
    2434:	203a6477 	eorscs	r6, sl, r7, ror r4
    2438:	6c007325 	stcvs	3, cr7, [r0], {37}	; 0x25
    243c:	6e550073 	mrcvs	0, 2, r0, cr5, cr3, {3}
    2440:	656c6261 	strbvs	r6, [ip, #-609]!	; 0xfffffd9f
    2444:	206f7420 	rsbcs	r7, pc, r0, lsr #8
    2448:	63657865 	cmnvs	r5, #6619136	; 0x650000
    244c:	20657475 	rsbcs	r7, r5, r5, ror r4
    2450:	20656874 	rsbcs	r6, r5, r4, ror r8
    2454:	6d6d6f63 	stclvs	15, cr6, [sp, #-396]!	; 0xfffffe74
    2458:	00646e61 	rsbeq	r6, r4, r1, ror #28
    245c:	64616572 	strbtvs	r6, [r1], #-1394	; 0xfffffa8e
    2460:	7325203a 			; <UNDEFINED> instruction: 0x7325203a
    2464:	6f727000 	svcvs	0x00727000
    2468:	73736563 	cmnvc	r3, #415236096	; 0x18c00000
    246c:	69786520 	ldmdbvs	r8!, {r5, r8, sl, sp, lr}^
    2470:	20646574 	rsbcs	r6, r4, r4, ror r5
    2474:	68746977 	ldmdavs	r4!, {r0, r1, r2, r4, r5, r6, r8, fp, sp, lr}^
    2478:	61747320 	cmnvs	r4, r0, lsr #6
    247c:	20737574 	rsbscs	r7, r3, r4, ror r5
    2480:	72006425 	andvc	r6, r0, #620756992	; 0x25000000
    2484:	72702e6f 	rsbsvc	r2, r0, #1776	; 0x6f0
    2488:	6375646f 	cmnvs	r5, #1862270976	; 0x6f000000
    248c:	6f6d2e74 	svcvs	0x006d2e74
    2490:	006c6564 	rsbeq	r6, ip, r4, ror #10
    2494:	6f727265 	svcvs	0x00727265
    2498:	72700072 	rsbsvc	r0, r0, #114	; 0x72
    249c:	6375646f 	cmnvs	r5, #1862270976	; 0x6f000000
    24a0:	6f6d2074 	svcvs	0x006d2074
    24a4:	3a6c6564 	bcc	1b1ba3c <_end+0x1b17a34>
    24a8:	00732520 	rsbseq	r2, r3, r0, lsr #10
    24ac:	65207369 	strvs	r7, [r0, #-873]!	; 0xfffffc97
    24b0:	7974706d 	ldmdbvc	r4!, {r0, r2, r3, r5, r6, ip, sp, lr}^
    24b4:	2c732500 	cfldr64cs	mvdx2, [r3], #-0
    24b8:	00732520 	rsbseq	r2, r3, r0, lsr #10
    24bc:	202c7325 	eorcs	r7, ip, r5, lsr #6
    24c0:	202c6425 	eorcs	r6, ip, r5, lsr #8
    24c4:	73657400 	cmnvc	r5, #0, 8
    24c8:	656e4f74 	strbvs	r4, [lr, #-3956]!	; 0xfffff08c
    24cc:	61726150 	cmnvs	r2, r0, asr r1
    24d0:	2c642500 	cfstr64cs	mvdx2, [r4], #-0
    24d4:	2c642520 	cfstr64cs	mvdx2, [r4], #-128	; 0xffffff80
    24d8:	2c642520 	cfstr64cs	mvdx2, [r4], #-128	; 0xffffff80
    24dc:	2c642520 	cfstr64cs	mvdx2, [r4], #-128	; 0xffffff80
    24e0:	2c642520 	cfstr64cs	mvdx2, [r4], #-128	; 0xffffff80
    24e4:	2c642520 	cfstr64cs	mvdx2, [r4], #-128	; 0xffffff80
    24e8:	2c642520 	cfstr64cs	mvdx2, [r4], #-128	; 0xffffff80
    24ec:	2c642520 	cfstr64cs	mvdx2, [r4], #-128	; 0xffffff80
    24f0:	2c642520 	cfstr64cs	mvdx2, [r4], #-128	; 0xffffff80
    24f4:	2c642520 	cfstr64cs	mvdx2, [r4], #-128	; 0xffffff80
    24f8:	20202020 	eorcs	r2, r0, r0, lsr #32
    24fc:	20202020 	eorcs	r2, r0, r0, lsr #32
    2500:	20202020 	eorcs	r2, r0, r0, lsr #32
    2504:	20202020 	eorcs	r2, r0, r0, lsr #32
    2508:	64252020 	strtvs	r2, [r5], #-32	; 0xffffffe0
    250c:	6425202c 	strtvs	r2, [r5], #-44	; 0xffffffd4
    2510:	6425202c 	strtvs	r2, [r5], #-44	; 0xffffffd4
    2514:	6425202c 	strtvs	r2, [r5], #-44	; 0xffffffd4
    2518:	6425202c 	strtvs	r2, [r5], #-44	; 0xffffffd4
    251c:	6425202c 	strtvs	r2, [r5], #-44	; 0xffffffd4
    2520:	6425202c 	strtvs	r2, [r5], #-44	; 0xffffffd4
    2524:	6425202c 	strtvs	r2, [r5], #-44	; 0xffffffd4
    2528:	6425202c 	strtvs	r2, [r5], #-44	; 0xffffffd4
    252c:	6425202c 	strtvs	r2, [r5], #-44	; 0xffffffd4
    2530:	2020202c 	eorcs	r2, r0, ip, lsr #32
    2534:	20202020 	eorcs	r2, r0, r0, lsr #32
    2538:	20202020 	eorcs	r2, r0, r0, lsr #32
    253c:	20202020 	eorcs	r2, r0, r0, lsr #32
    2540:	25202020 	strcs	r2, [r0, #-32]!	; 0xffffffe0
    2544:	25202c64 	strcs	r2, [r0, #-3172]!	; 0xfffff39c
    2548:	25202c64 	strcs	r2, [r0, #-3172]!	; 0xfffff39c
    254c:	25202c64 	strcs	r2, [r0, #-3172]!	; 0xfffff39c
    2550:	25202c64 	strcs	r2, [r0, #-3172]!	; 0xfffff39c
    2554:	25202c64 	strcs	r2, [r0, #-3172]!	; 0xfffff39c
    2558:	25202c64 	strcs	r2, [r0, #-3172]!	; 0xfffff39c
    255c:	25202c64 	strcs	r2, [r0, #-3172]!	; 0xfffff39c
    2560:	25202c64 	strcs	r2, [r0, #-3172]!	; 0xfffff39c
    2564:	25202c64 	strcs	r2, [r0, #-3172]!	; 0xfffff39c
    2568:	20202c64 	eorcs	r2, r0, r4, ror #24
    256c:	20202020 	eorcs	r2, r0, r0, lsr #32
    2570:	20202020 	eorcs	r2, r0, r0, lsr #32
    2574:	20202020 	eorcs	r2, r0, r0, lsr #32
    2578:	20202020 	eorcs	r2, r0, r0, lsr #32
    257c:	202c6425 	eorcs	r6, ip, r5, lsr #8
    2580:	202c6425 	eorcs	r6, ip, r5, lsr #8
    2584:	202c6425 	eorcs	r6, ip, r5, lsr #8
    2588:	202c6425 	eorcs	r6, ip, r5, lsr #8
    258c:	202c6425 	eorcs	r6, ip, r5, lsr #8
    2590:	202c6425 	eorcs	r6, ip, r5, lsr #8
    2594:	202c6425 	eorcs	r6, ip, r5, lsr #8
    2598:	202c6425 	eorcs	r6, ip, r5, lsr #8
    259c:	202c6425 	eorcs	r6, ip, r5, lsr #8
    25a0:	202c6425 	eorcs	r6, ip, r5, lsr #8
    25a4:	20202020 	eorcs	r2, r0, r0, lsr #32
    25a8:	20202020 	eorcs	r2, r0, r0, lsr #32
    25ac:	20202020 	eorcs	r2, r0, r0, lsr #32
    25b0:	20202020 	eorcs	r2, r0, r0, lsr #32
    25b4:	2c642520 	cfstr64cs	mvdx2, [r4], #-128	; 0xffffff80
    25b8:	2c642520 	cfstr64cs	mvdx2, [r4], #-128	; 0xffffff80
    25bc:	2c642520 	cfstr64cs	mvdx2, [r4], #-128	; 0xffffff80
    25c0:	2c642520 	cfstr64cs	mvdx2, [r4], #-128	; 0xffffff80
    25c4:	2c642520 	cfstr64cs	mvdx2, [r4], #-128	; 0xffffff80
    25c8:	2c642520 	cfstr64cs	mvdx2, [r4], #-128	; 0xffffff80
    25cc:	2c642520 	cfstr64cs	mvdx2, [r4], #-128	; 0xffffff80
    25d0:	2c642520 	cfstr64cs	mvdx2, [r4], #-128	; 0xffffff80
    25d4:	2c642520 	cfstr64cs	mvdx2, [r4], #-128	; 0xffffff80
    25d8:	00642520 	rsbeq	r2, r4, r0, lsr #10
    25dc:	206e7546 	rsbcs	r7, lr, r6, asr #10
    25e0:	7325203a 			; <UNDEFINED> instruction: 0x7325203a
    25e4:	694c202c 	stmdbvs	ip, {r2, r3, r5, sp}^
    25e8:	3a20656e 	bcc	81bba8 <_end+0x817ba0>
    25ec:	00642520 	rsbeq	r2, r4, r0, lsr #10
    25f0:	6c6c6977 			; <UNDEFINED> instruction: 0x6c6c6977
    25f4:	73617243 	cmnvc	r1, #805306372	; 0x30000004
    25f8:	65740068 	ldrbvs	r0, [r4, #-104]!	; 0xffffff98
    25fc:	74537473 	ldrbvc	r7, [r3], #-1139	; 0xfffffb8d
    2600:	676e6972 			; <UNDEFINED> instruction: 0x676e6972
    2604:	646b6d00 	strbtvs	r6, [fp], #-3328	; 0xfffff300
    2608:	2f207269 	svccs	0x00207269
    260c:	61746164 	cmnvs	r4, r4, ror #2
    2610:	7461642f 	strbtvc	r6, [r1], #-1071	; 0xfffffbd1
    2614:	6f632f61 	svcvs	0x00632f61
    2618:	61622e6d 	cmnvs	r2, sp, ror #28
    261c:	65682e72 	strbvs	r2, [r8, #-3698]!	; 0xfffff18e
    2620:	6a6f6c6c 	bvs	1bdd7d8 <_end+0x1bd97d0>
    2624:	742f696e 	strtvc	r6, [pc], #-2414	; 262c <__exidx_end+0x204>
    2628:	00706d65 	rsbseq	r6, r0, r5, ror #26
    262c:	73253a46 			; <UNDEFINED> instruction: 0x73253a46
    2630:	0073252c 	rsbseq	r2, r3, ip, lsr #10
    2634:	6176614a 	cmnvs	r6, sl, asr #2
    2638:	6d6f635f 	stclvs	3, cr6, [pc, #-380]!	; 24c4 <__exidx_end+0x9c>
    263c:	6172635f 	cmnvs	r2, pc, asr r3
    2640:	745f6873 	ldrbvc	r6, [pc], #-2163	; 2648 <__exidx_end+0x220>
    2644:	5f747365 	svcpl	0x00747365
    2648:	6c6c6548 	cfstr64vs	mvdx6, [ip], #-288	; 0xfffffee0
    264c:	696e4a6f 	stmdbvs	lr!, {r0, r1, r2, r3, r5, r6, r9, fp, lr}^
    2650:	74616e5f 	strbtvc	r6, [r1], #-3679	; 0xfffff1a1
    2654:	4d657669 	stclmi	6, cr7, [r5, #-420]!	; 0xfffffe5c
    2658:	4a006773 	bmi	1c42c <_end+0x18424>
    265c:	5f617661 	svcpl	0x00617661
    2660:	5f6d6f63 	svcpl	0x006d6f63
    2664:	73617263 	cmnvc	r1, #805306374	; 0x30000006
    2668:	65745f68 	ldrbvs	r5, [r4, #-3944]!	; 0xfffff098
    266c:	485f7473 	ldmdami	pc, {r0, r1, r4, r5, r6, sl, ip, sp, lr}^	; <UNPREDICTABLE>
    2670:	6f6c6c65 	svcvs	0x006c6c65
    2674:	5f696e4a 	svcpl	0x00696e4a
    2678:	69727473 	ldmdbvs	r2!, {r0, r1, r4, r5, r6, sl, ip, sp, lr}^
    267c:	7246676e 	subvc	r6, r6, #28835840	; 0x1b80000
    2680:	4e4a6d6f 	cdpmi	13, 4, cr6, cr10, cr15, {3}
    2684:	6f4d0049 	svcvs	0x004d0049
    2688:	6f74696e 	svcvs	0x0074696e
    268c:	746e4572 	strbtvc	r4, [lr], #-1394	; 0xfffffa8e
    2690:	00727265 	rsbseq	r7, r2, r5, ror #4
    2694:	4d007325 	stcmi	3, cr7, [r0, #-148]	; 0xffffff6c
    2698:	74696e6f 	strbtvc	r6, [r9], #-3695	; 0xfffff191
    269c:	7845726f 	stmdavc	r5, {r0, r1, r2, r3, r5, r6, r9, ip, sp, lr}^
    26a0:	48007469 	stmdami	r0, {r0, r3, r5, r6, sl, ip, sp, lr}
    26a4:	6f6c6c65 	svcvs	0x006c6c65
    26a8:	6f726620 	svcvs	0x00726620
    26ac:	4e4a206d 	cdpmi	0, 4, cr2, cr10, cr13, {3}
    26b0:	20212049 	eorcs	r2, r1, r9, asr #32
    26b4:	6d6f4320 	stclvs	3, cr4, [pc, #-128]!	; 263c <__exidx_end+0x214>
    26b8:	656c6970 	strbvs	r6, [ip, #-2416]!	; 0xfffff690
    26bc:	69772064 	ldmdbvs	r7!, {r2, r5, r6, sp}^
    26c0:	41206874 			; <UNDEFINED> instruction: 0x41206874
    26c4:	61204942 			; <UNDEFINED> instruction: 0x61204942
    26c8:	61656d72 	smcvs	22226	; 0x56d2
    26cc:	762d6962 	strtvc	r6, [sp], -r2, ror #18
    26d0:	002e6137 	eoreq	r6, lr, r7, lsr r1
    26d4:	69727473 	ldmdbvs	r2!, {r0, r1, r4, r5, r6, sl, ip, sp, lr}^
    26d8:	7246676e 	subvc	r6, r6, #28835840	; 0x1b80000
    26dc:	4e4a6d6f 	cdpmi	13, 4, cr6, cr10, cr15, {3}
    26e0:	31315f49 	teqcc	r1, r9, asr #30
    26e4:	73252000 			; <UNDEFINED> instruction: 0x73252000
    26e8:	73657400 	cmnvc	r5, #0, 8
    26ec:	506f4e74 	rsbpl	r4, pc, r4, ror lr	; <UNPREDICTABLE>
    26f0:	00617261 	rsbeq	r7, r1, r1, ror #4

Disassembly of section .fini_array:

00003e48 <.fini_array>:
    3e48:	00000a20 	andeq	r0, r0, r0, lsr #20
    3e4c:	00000000 	andeq	r0, r0, r0

Disassembly of section .init_array:

00003e50 <.init_array>:
    3e50:	00000000 	andeq	r0, r0, r0

Disassembly of section .dynamic:

00003e54 <_DYNAMIC>:
    3e54:	00000003 	andeq	r0, r0, r3
    3e58:	00003f98 	muleq	r0, r8, pc	; <UNPREDICTABLE>
    3e5c:	00000002 	andeq	r0, r0, r2
    3e60:	000000b8 	strheq	r0, [r0], -r8
    3e64:	00000017 	andeq	r0, r0, r7, lsl r0
    3e68:	00000840 	andeq	r0, r0, r0, asr #16
    3e6c:	00000014 	andeq	r0, r0, r4, lsl r0
    3e70:	00000011 	andeq	r0, r0, r1, lsl r0
    3e74:	00000011 	andeq	r0, r0, r1, lsl r0
    3e78:	000007f0 	strdeq	r0, [r0], -r0	; <UNPREDICTABLE>
    3e7c:	00000012 	andeq	r0, r0, r2, lsl r0
    3e80:	00000050 	andeq	r0, r0, r0, asr r0
    3e84:	00000013 	andeq	r0, r0, r3, lsl r0
    3e88:	00000008 	andeq	r0, r0, r8
    3e8c:	6ffffffa 	svcvs	0x00fffffa
    3e90:	00000006 	andeq	r0, r0, r6
    3e94:	00000006 	andeq	r0, r0, r6
    3e98:	000001f0 	strdeq	r0, [r0], -r0	; <UNPREDICTABLE>
    3e9c:	0000000b 	andeq	r0, r0, fp
    3ea0:	00000010 	andeq	r0, r0, r0, lsl r0
    3ea4:	00000005 	andeq	r0, r0, r5
    3ea8:	00000430 	andeq	r0, r0, r0, lsr r4
    3eac:	0000000a 	andeq	r0, r0, sl
    3eb0:	0000025d 	andeq	r0, r0, sp, asr r2
    3eb4:	00000004 	andeq	r0, r0, r4
    3eb8:	00000690 	muleq	r0, r0, r6
    3ebc:	00000001 	andeq	r0, r0, r1
    3ec0:	00000234 	andeq	r0, r0, r4, lsr r2
    3ec4:	00000001 	andeq	r0, r0, r1
    3ec8:	00000242 	andeq	r0, r0, r2, asr #4
    3ecc:	00000001 	andeq	r0, r0, r1
    3ed0:	0000024c 	andeq	r0, r0, ip, asr #4
    3ed4:	00000001 	andeq	r0, r0, r1
    3ed8:	00000254 	andeq	r0, r0, r4, asr r2
    3edc:	00000001 	andeq	r0, r0, r1
    3ee0:	00000015 	andeq	r0, r0, r5, lsl r0
    3ee4:	0000000e 	andeq	r0, r0, lr
    3ee8:	0000001d 	andeq	r0, r0, sp, lsl r0
    3eec:	0000001a 	andeq	r0, r0, sl, lsl r0
    3ef0:	00003e48 	andeq	r3, r0, r8, asr #28
    3ef4:	0000001c 	andeq	r0, r0, ip, lsl r0
    3ef8:	00000008 	andeq	r0, r0, r8
    3efc:	00000019 	andeq	r0, r0, r9, lsl r0
    3f00:	00003e50 	andeq	r3, r0, r0, asr lr
    3f04:	0000001b 	andeq	r0, r0, fp, lsl r0
    3f08:	00000004 	andeq	r0, r0, r4
    3f0c:	0000001e 	andeq	r0, r0, lr, lsl r0
    3f10:	00000008 	andeq	r0, r0, r8
    3f14:	6ffffffb 	svcvs	0x00fffffb
    3f18:	00000001 	andeq	r0, r0, r1
    3f1c:	6ffffff0 	svcvs	0x00fffff0
    3f20:	0000076c 	andeq	r0, r0, ip, ror #14
    3f24:	6ffffffc 	svcvs	0x00fffffc
    3f28:	000007b4 			; <UNDEFINED> instruction: 0x000007b4
    3f2c:	6ffffffd 	svcvs	0x00fffffd
    3f30:	00000001 	andeq	r0, r0, r1
    3f34:	6ffffffe 	svcvs	0x00fffffe
    3f38:	000007d0 	ldrdeq	r0, [r0], -r0	; <UNPREDICTABLE>
    3f3c:	6fffffff 	svcvs	0x00ffffff
    3f40:	00000001 	andeq	r0, r0, r1
	...

Disassembly of section .got:

00003f74 <_GLOBAL_OFFSET_TABLE_-0x24>:
	...
    3f7c:	00001bcd 	andeq	r1, r0, sp, asr #23
    3f80:	00001bd1 	ldrdeq	r1, [r0], -r1	; <UNPREDICTABLE>
    3f84:	00001bd5 	ldrdeq	r1, [r0], -r5
    3f88:	00000000 	andeq	r0, r0, r0
    3f8c:	00002428 	andeq	r2, r0, r8, lsr #8
    3f90:	00002300 	andeq	r2, r0, r0, lsl #6
    3f94:	00000000 	andeq	r0, r0, r0

00003f98 <_GLOBAL_OFFSET_TABLE_>:
	...
    3fa4:	000008f8 	strdeq	r0, [r0], -r8
    3fa8:	000008f8 	strdeq	r0, [r0], -r8
    3fac:	000008f8 	strdeq	r0, [r0], -r8
    3fb0:	000008f8 	strdeq	r0, [r0], -r8
    3fb4:	000008f8 	strdeq	r0, [r0], -r8
    3fb8:	000008f8 	strdeq	r0, [r0], -r8
    3fbc:	000008f8 	strdeq	r0, [r0], -r8
    3fc0:	000008f8 	strdeq	r0, [r0], -r8
    3fc4:	000008f8 	strdeq	r0, [r0], -r8
    3fc8:	000008f8 	strdeq	r0, [r0], -r8
    3fcc:	000008f8 	strdeq	r0, [r0], -r8
    3fd0:	000008f8 	strdeq	r0, [r0], -r8
    3fd4:	000008f8 	strdeq	r0, [r0], -r8
    3fd8:	000008f8 	strdeq	r0, [r0], -r8
    3fdc:	000008f8 	strdeq	r0, [r0], -r8
    3fe0:	000008f8 	strdeq	r0, [r0], -r8
    3fe4:	000008f8 	strdeq	r0, [r0], -r8
    3fe8:	000008f8 	strdeq	r0, [r0], -r8
    3fec:	000008f8 	strdeq	r0, [r0], -r8
    3ff0:	000008f8 	strdeq	r0, [r0], -r8
    3ff4:	000008f8 	strdeq	r0, [r0], -r8
    3ff8:	000008f8 	strdeq	r0, [r0], -r8
    3ffc:	000008f8 	strdeq	r0, [r0], -r8

Disassembly of section .data:

00004000 <__dso_handle>:
    4000:	00000000 	andeq	r0, r0, r0

Disassembly of section .bss:

00004004 <gs_jvm>:
    4004:	00000000 	andeq	r0, r0, r0

Disassembly of section .comment:

00000000 <.comment>:
   0:	43434700 	movtmi	r4, #14080	; 0x3700
   4:	4728203a 			; <UNDEFINED> instruction: 0x4728203a
   8:	2029554e 	eorcs	r5, r9, lr, asr #10
   c:	2e392e34 	mrccs	14, 1, r2, cr9, cr4, {1}
  10:	30322078 	eorscc	r2, r2, r8, ror r0
  14:	31303531 	teqcc	r0, r1, lsr r5
  18:	28203332 	stmdacs	r0!, {r1, r4, r5, r8, r9, ip, sp}
  1c:	72657270 	rsbvc	r7, r5, #112, 4
  20:	61656c65 	cmnvs	r5, r5, ror #24
  24:	00296573 	eoreq	r6, r9, r3, ror r5
  28:	72646e41 	rsbvc	r6, r4, #1040	; 0x410
  2c:	2064696f 	rsbcs	r6, r4, pc, ror #18
  30:	6e616c63 	cdpvs	12, 6, cr6, cr1, cr3, {3}
  34:	65762067 	ldrbvs	r2, [r6, #-103]!	; 0xffffff99
  38:	6f697372 	svcvs	0x00697372
  3c:	2e35206e 	cdpcs	0, 3, cr2, cr5, cr14, {3}
  40:	30332e30 	eorscc	r2, r3, r0, lsr lr
  44:	30383030 	eorscc	r3, r8, r0, lsr r0
  48:	62282020 	eorvs	r2, r8, #32
  4c:	64657361 	strbtvs	r7, [r5], #-865	; 0xfffffc9f
  50:	206e6f20 	rsbcs	r6, lr, r0, lsr #30
  54:	4d564c4c 	ldclmi	12, cr4, [r6, #-304]	; 0xfffffed0
  58:	302e3520 	eorcc	r3, lr, r0, lsr #10
  5c:	3030332e 	eorscc	r3, r0, lr, lsr #6
  60:	29303830 	ldmdbcs	r0!, {r4, r5, fp, ip, sp}
	...

Disassembly of section .debug_str:

00000000 <.debug_str>:
       0:	72646e41 	rsbvc	r6, r4, #1040	; 0x410
       4:	2064696f 	rsbcs	r6, r4, pc, ror #18
       8:	6e616c63 	cdpvs	12, 6, cr6, cr1, cr3, {3}
       c:	65762067 	ldrbvs	r2, [r6, #-103]!	; 0xffffff99
      10:	6f697372 	svcvs	0x00697372
      14:	2e35206e 	cdpcs	0, 3, cr2, cr5, cr14, {3}
      18:	30332e30 	eorscc	r2, r3, r0, lsr lr
      1c:	30383030 	eorscc	r3, r8, r0, lsr r0
      20:	62282020 	eorvs	r2, r8, #32
      24:	64657361 	strbtvs	r7, [r5], #-865	; 0xfffffc9f
      28:	206e6f20 	rsbcs	r6, lr, r0, lsr #30
      2c:	4d564c4c 	ldclmi	12, cr4, [r6, #-304]	; 0xfffffed0
      30:	302e3520 	eorcc	r3, lr, r0, lsr #10
      34:	3030332e 	eorscc	r3, r0, lr, lsr #6
      38:	29303830 	ldmdbcs	r0!, {r4, r5, fp, ip, sp}
      3c:	796d2f00 	stmdbvc	sp!, {r8, r9, sl, fp, sp}^
      40:	6b726f77 	blvs	1c9be24 <_end+0x1c97e1c>
      44:	7469672f 	strbtvc	r6, [r9], #-1839	; 0xfffff8d1
      48:	2f627568 	svccs	0x00627568
      4c:	72646e61 	rsbvc	r6, r4, #1552	; 0x610
      50:	7264696f 	rsbvc	r6, r4, #1818624	; 0x1bc000
      54:	72657665 	rsbvc	r7, r5, #105906176	; 0x6500000
      58:	632f6573 			; <UNDEFINED> instruction: 0x632f6573
      5c:	68736172 	ldmdavs	r3!, {r1, r4, r5, r6, r8, sp, lr}^
      60:	6372732f 	cmnvs	r2, #-1140850688	; 0xbc000000
      64:	69616d2f 	stmdbvs	r1!, {r0, r1, r2, r3, r5, r8, sl, fp, sp, lr}^
      68:	70632f6e 	rsbvc	r2, r3, lr, ror #30
      6c:	65682f70 	strbvs	r2, [r8, #-3952]!	; 0xfffff090
      70:	6a6f6c6c 	bvs	1bdb228 <_end+0x1bd7220>
      74:	632e696e 			; <UNDEFINED> instruction: 0x632e696e
      78:	796d2f00 	stmdbvc	sp!, {r8, r9, sl, fp, sp}^
      7c:	6b726f77 	blvs	1c9be60 <_end+0x1c97e58>
      80:	7469672f 	strbtvc	r6, [r9], #-1839	; 0xfffff8d1
      84:	2f627568 	svccs	0x00627568
      88:	72646e61 	rsbvc	r6, r4, #1552	; 0x610
      8c:	7264696f 	rsbvc	r6, r4, #1818624	; 0x1bc000
      90:	72657665 	rsbvc	r7, r5, #105906176	; 0x6500000
      94:	632f6573 			; <UNDEFINED> instruction: 0x632f6573
      98:	68736172 	ldmdavs	r3!, {r1, r4, r5, r6, r8, sp, lr}^
      9c:	78652e2f 	stmdavc	r5!, {r0, r1, r2, r3, r5, r9, sl, fp, sp}^
      a0:	6e726574 	mrcvs	5, 3, r6, cr2, cr4, {3}
      a4:	614e6c61 	cmpvs	lr, r1, ror #24
      a8:	65766974 	ldrbvs	r6, [r6, #-2420]!	; 0xfffff68c
      ac:	6c697542 	cfstr64vs	mvdx7, [r9], #-264	; 0xfffffef8
      b0:	6d632f64 	stclvs	15, cr2, [r3, #-400]!	; 0xfffffe70
      b4:	2f656b61 	svccs	0x00656b61
      b8:	75626564 	strbvc	r6, [r2, #-1380]!	; 0xfffffa9c
      bc:	72612f67 	rsbvc	r2, r1, #412	; 0x19c
      c0:	6261656d 	rsbvs	r6, r1, #457179136	; 0x1b400000
      c4:	37762d69 	ldrbcc	r2, [r6, -r9, ror #26]!
      c8:	4e410061 	cdpmi	0, 4, cr0, cr1, cr1, {3}
      cc:	494f5244 	stmdbmi	pc, {r2, r6, r9, ip, lr}^	; <UNPREDICTABLE>
      d0:	4f4c5f44 	svcmi	0x004c5f44
      d4:	4e555f47 	cdpmi	15, 5, cr5, cr5, cr7, {2}
      d8:	574f4e4b 	strbpl	r4, [pc, -fp, asr #28]
      dc:	4e41004e 	cdpmi	0, 4, cr0, cr1, cr14, {2}
      e0:	494f5244 	stmdbmi	pc, {r2, r6, r9, ip, lr}^	; <UNPREDICTABLE>
      e4:	4f4c5f44 	svcmi	0x004c5f44
      e8:	45445f47 	strbmi	r5, [r4, #-3911]	; 0xfffff0b9
      ec:	4c554146 	ldfmie	f4, [r5], {70}	; 0x46
      f0:	4e410054 	mcrmi	0, 2, r0, cr1, cr4, {2}
      f4:	494f5244 	stmdbmi	pc, {r2, r6, r9, ip, lr}^	; <UNPREDICTABLE>
      f8:	4f4c5f44 	svcmi	0x004c5f44
      fc:	45565f47 	ldrbmi	r5, [r6, #-3911]	; 0xfffff0b9
     100:	534f4252 	movtpl	r4, #62034	; 0xf252
     104:	4e410045 	cdpmi	0, 4, cr0, cr1, cr5, {2}
     108:	494f5244 	stmdbmi	pc, {r2, r6, r9, ip, lr}^	; <UNPREDICTABLE>
     10c:	4f4c5f44 	svcmi	0x004c5f44
     110:	45445f47 	strbmi	r5, [r4, #-3911]	; 0xfffff0b9
     114:	00475542 	subeq	r5, r7, r2, asr #10
     118:	52444e41 	subpl	r4, r4, #1040	; 0x410
     11c:	5f44494f 	svcpl	0x0044494f
     120:	5f474f4c 	svcpl	0x00474f4c
     124:	4f464e49 	svcmi	0x00464e49
     128:	444e4100 	strbmi	r4, [lr], #-256	; 0xffffff00
     12c:	44494f52 	strbmi	r4, [r9], #-3922	; 0xfffff0ae
     130:	474f4c5f 	smlsldmi	r4, pc, pc, ip	; <UNPREDICTABLE>
     134:	5241575f 	subpl	r5, r1, #24903680	; 0x17c0000
     138:	4e41004e 	cdpmi	0, 4, cr0, cr1, cr14, {2}
     13c:	494f5244 	stmdbmi	pc, {r2, r6, r9, ip, lr}^	; <UNPREDICTABLE>
     140:	4f4c5f44 	svcmi	0x004c5f44
     144:	52455f47 	subpl	r5, r5, #284	; 0x11c
     148:	00524f52 	subseq	r4, r2, r2, asr pc
     14c:	52444e41 	subpl	r4, r4, #1040	; 0x410
     150:	5f44494f 	svcpl	0x0044494f
     154:	5f474f4c 	svcpl	0x00474f4c
     158:	41544146 	cmpmi	r4, r6, asr #2
     15c:	4e41004c 	cdpmi	0, 4, cr0, cr1, cr12, {2}
     160:	494f5244 	stmdbmi	pc, {r2, r6, r9, ip, lr}^	; <UNPREDICTABLE>
     164:	4f4c5f44 	svcmi	0x004c5f44
     168:	49535f47 	ldmdbmi	r3, {r0, r1, r2, r6, r8, r9, sl, fp, ip, lr}^
     16c:	544e454c 	strbpl	r4, [lr], #-1356	; 0xfffffab4
     170:	646e6100 	strbtvs	r6, [lr], #-256	; 0xffffff00
     174:	64696f72 	strbtvs	r6, [r9], #-3954	; 0xfffff08e
     178:	676f4c5f 			; <UNDEFINED> instruction: 0x676f4c5f
     17c:	6f697250 	svcvs	0x00697250
     180:	79746972 	ldmdbvc	r4!, {r1, r4, r5, r6, r8, fp, sp, lr}^
     184:	494e4a00 	stmdbmi	lr, {r9, fp, lr}^
     188:	61766e49 	cmnvs	r6, r9, asr #28
     18c:	5264696c 	rsbpl	r6, r4, #108, 18	; 0x1b0000
     190:	79546665 	ldmdbvc	r4, {r0, r2, r5, r6, r9, sl, sp, lr}^
     194:	4a006570 	bmi	1975c <_end+0x15754>
     198:	6f4c494e 	svcvs	0x004c494e
     19c:	526c6163 	rsbpl	r6, ip, #-1073741800	; 0xc0000018
     1a0:	79546665 	ldmdbvc	r4, {r0, r2, r5, r6, r9, sl, sp, lr}^
     1a4:	4a006570 	bmi	1976c <_end+0x15764>
     1a8:	6c47494e 	mcrrvs	9, 4, r4, r7, cr14	; <UNPREDICTABLE>
     1ac:	6c61626f 	sfmvs	f6, 2, [r1], #-444	; 0xfffffe44
     1b0:	54666552 	strbtpl	r6, [r6], #-1362	; 0xfffffaae
     1b4:	00657079 	rsbeq	r7, r5, r9, ror r0
     1b8:	57494e4a 	strbpl	r4, [r9, -sl, asr #28]
     1bc:	476b6165 	strbmi	r6, [fp, -r5, ror #2]!
     1c0:	61626f6c 	cmnvs	r2, ip, ror #30
     1c4:	6665526c 	strbtvs	r5, [r5], -ip, ror #4
     1c8:	65707954 	ldrbvs	r7, [r0, #-2388]!	; 0xfffff6ac
     1cc:	626f6a00 	rsbvs	r6, pc, #0, 20
     1d0:	7463656a 	strbtvc	r6, [r3], #-1386	; 0xfffffa96
     1d4:	54666552 	strbtpl	r6, [r6], #-1362	; 0xfffffaae
     1d8:	00657079 	rsbeq	r7, r5, r9, ror r0
     1dc:	74736574 	ldrbtvc	r6, [r3], #-1396	; 0xfffffa8c
     1e0:	65646f63 	strbvs	r6, [r4, #-3939]!	; 0xfffff09d
     1e4:	65740036 	ldrbvs	r0, [r4, #-54]!	; 0xffffffca
     1e8:	72507473 	subsvc	r7, r0, #1929379840	; 0x73000000
     1ec:	7265706f 	rsbvc	r7, r5, #111	; 0x6f
     1f0:	73656974 	cmnvc	r5, #116, 18	; 0x1d0000
     1f4:	73657400 	cmnvc	r5, #0, 8
     1f8:	656e4f74 	strbvs	r4, [lr, #-3956]!	; 0xfffff08c
     1fc:	61726150 	cmnvs	r2, r0, asr r1
     200:	73657400 	cmnvc	r5, #0, 8
     204:	72615074 	rsbvc	r5, r1, #116	; 0x74
     208:	74656d61 	strbtvc	r6, [r5], #-3425	; 0xfffff29f
     20c:	77007265 	strvc	r7, [r0, -r5, ror #4]
     210:	436c6c69 	cmnmi	ip, #26880	; 0x6900
     214:	68736172 	ldmdavs	r3!, {r1, r4, r5, r6, r8, sp, lr}^
     218:	73657400 	cmnvc	r5, #0, 8
     21c:	72745374 	rsbsvc	r5, r4, #116, 6	; 0xd0000001
     220:	00676e69 	rsbeq	r6, r7, r9, ror #28
     224:	6176614a 	cmnvs	r6, sl, asr #2
     228:	6d6f635f 	stclvs	3, cr6, [pc, #-380]!	; b4 <note_android_ident-0x80>
     22c:	6172635f 	cmnvs	r2, pc, asr r3
     230:	745f6873 	ldrbvc	r6, [pc], #-2163	; 238 <note_end+0x6c>
     234:	5f747365 	svcpl	0x00747365
     238:	6c6c6548 	cfstr64vs	mvdx6, [ip], #-288	; 0xfffffee0
     23c:	696e4a6f 	stmdbvs	lr!, {r0, r1, r2, r3, r5, r6, r9, fp, lr}^
     240:	74616e5f 	strbtvc	r6, [r1], #-3679	; 0xfffff1a1
     244:	4d657669 	stclmi	6, cr7, [r5, #-420]!	; 0xfffffe5c
     248:	4a006773 	bmi	1a01c <_end+0x16014>
     24c:	5f617661 	svcpl	0x00617661
     250:	5f6d6f63 	svcpl	0x006d6f63
     254:	73617263 	cmnvc	r1, #805306374	; 0x30000006
     258:	65745f68 	ldrbvs	r5, [r4, #-3944]!	; 0xfffff098
     25c:	485f7473 	ldmdami	pc, {r0, r1, r4, r5, r6, sl, ip, sp, lr}^	; <UNPREDICTABLE>
     260:	6f6c6c65 	svcvs	0x006c6c65
     264:	5f696e4a 	svcpl	0x00696e4a
     268:	69727473 	ldmdbvs	r2!, {r0, r1, r4, r5, r6, sl, ip, sp, lr}^
     26c:	7246676e 	subvc	r6, r6, #28835840	; 0x1b80000
     270:	4e4a6d6f 	cdpmi	13, 4, cr6, cr10, cr15, {3}
     274:	6f6a0049 	svcvs	0x006a0049
     278:	63656a62 	cmnvs	r5, #401408	; 0x62000
     27c:	736a0074 	cmnvc	sl, #116	; 0x74
     280:	6e697274 	mcrvs	2, 3, r7, cr9, cr4, {3}
     284:	614a0067 	cmpvs	sl, r7, rrx
     288:	635f6176 	cmpvs	pc, #-2147483619	; 0x8000001d
     28c:	635f6d6f 	cmpvs	pc, #7104	; 0x1bc0
     290:	68736172 	ldmdavs	r3!, {r1, r4, r5, r6, r8, sp, lr}^
     294:	7365745f 	cmnvc	r5, #1593835520	; 0x5f000000
     298:	65485f74 	strbvs	r5, [r8, #-3956]	; 0xfffff08c
     29c:	4a6f6c6c 	bmi	1bdb454 <_end+0x1bd744c>
     2a0:	735f696e 	cmpvc	pc, #1802240	; 0x1b8000
     2a4:	6e697274 	mcrvs	2, 3, r7, cr9, cr4, {3}
     2a8:	6f724667 	svcvs	0x00724667
     2ac:	494e4a6d 	stmdbmi	lr, {r0, r2, r3, r5, r6, r9, fp, lr}^
     2b0:	0031315f 	eorseq	r3, r1, pc, asr r1
     2b4:	74736574 	ldrbtvc	r6, [r3], #-1396	; 0xfffffa8c
     2b8:	61506f4e 	cmpvs	r0, lr, asr #30
     2bc:	73006172 	movwvc	r6, #370	; 0x172
     2c0:	61657274 	smcvs	22308	; 0x5724
     2c4:	5f5f006d 	svcpl	0x005f006d
     2c8:	76697270 			; <UNDEFINED> instruction: 0x76697270
     2cc:	00657461 	rsbeq	r7, r5, r1, ror #8
     2d0:	72616863 	rsbvc	r6, r1, #6488064	; 0x630000
     2d4:	7a697300 	bvc	1a5cedc <_end+0x1a58ed4>
     2d8:	70797465 	rsbsvc	r7, r9, r5, ror #8
     2dc:	5f5f0065 	svcpl	0x005f0065
     2e0:	4c494673 	mcrrmi	6, 7, r4, r9, cr3
     2e4:	49460045 	stmdbmi	r6, {r0, r2, r6}^
     2e8:	6300454c 	movwvs	r4, #1356	; 0x54c
     2ec:	75620068 	strbvc	r0, [r2, #-104]!	; 0xffffff98
     2f0:	72656666 	rsbvc	r6, r5, #106954752	; 0x6600000
     2f4:	61747300 	cmnvs	r4, r0, lsl #6
     2f8:	00737574 	rsbseq	r7, r3, r4, ror r5
     2fc:	00746e69 	rsbseq	r6, r4, r9, ror #28
     300:	756c6176 	strbvc	r6, [ip, #-374]!	; 0xfffffe8a
     304:	72700065 	rsbsvc	r0, r0, #101	; 0x65
     308:	7265706f 	rsbvc	r7, r5, #111	; 0x6f
     30c:	70007974 	andvc	r7, r0, r4, ror r9
     310:	5f706f72 	svcpl	0x00706f72
     314:	6f666e69 	svcvs	0x00666e69
     318:	6d616e00 	stclvs	14, cr6, [r1, #-0]
     31c:	31610065 	cmncc	r1, r5, rrx
     320:	00326100 	eorseq	r6, r2, r0, lsl #2
     324:	61003361 	tstvs	r0, r1, ror #6
     328:	35610034 	strbcc	r0, [r1, #-52]!	; 0xffffffcc
     32c:	00366100 	eorseq	r6, r6, r0, lsl #2
     330:	61003761 	tstvs	r0, r1, ror #14
     334:	39610038 	stmdbcc	r1!, {r3, r4, r5}^
     338:	30316100 	eorscc	r6, r1, r0, lsl #2
     33c:	31316100 	teqcc	r1, r0, lsl #2
     340:	32316100 	eorscc	r6, r1, #0, 2
     344:	33316100 	teqcc	r1, #0, 2
     348:	34316100 	ldrtcc	r6, [r1], #-256	; 0xffffff00
     34c:	35316100 	ldrcc	r6, [r1, #-256]!	; 0xffffff00
     350:	36316100 	ldrtcc	r6, [r1], -r0, lsl #2
     354:	37316100 	ldrcc	r6, [r1, -r0, lsl #2]!
     358:	38316100 	ldmdacc	r1!, {r8, sp, lr}
     35c:	39316100 	ldmdbcc	r1!, {r8, sp, lr}
     360:	30326100 	eorscc	r6, r2, r0, lsl #2
     364:	31326100 	teqcc	r2, r0, lsl #2
     368:	32326100 	eorscc	r6, r2, #0, 2
     36c:	33326100 	teqcc	r2, #0, 2
     370:	34326100 	ldrtcc	r6, [r2], #-256	; 0xffffff00
     374:	35326100 	ldrcc	r6, [r2, #-256]!	; 0xffffff00
     378:	36326100 	ldrtcc	r6, [r2], -r0, lsl #2
     37c:	37326100 	ldrcc	r6, [r2, -r0, lsl #2]!
     380:	38326100 	ldmdacc	r2!, {r8, sp, lr}
     384:	39326100 	ldmdbcc	r2!, {r8, sp, lr}
     388:	30336100 	eorscc	r6, r3, r0, lsl #2
     38c:	31336100 	teqcc	r3, r0, lsl #2
     390:	32336100 	eorscc	r6, r3, #0, 2
     394:	33336100 	teqcc	r3, #0, 2
     398:	34336100 	ldrtcc	r6, [r3], #-256	; 0xffffff00
     39c:	35336100 	ldrcc	r6, [r3, #-256]!	; 0xffffff00
     3a0:	36336100 	ldrtcc	r6, [r3], -r0, lsl #2
     3a4:	37336100 	ldrcc	r6, [r3, -r0, lsl #2]!
     3a8:	38336100 	ldmdacc	r3!, {r8, sp, lr}
     3ac:	39336100 	ldmdbcc	r3!, {r8, sp, lr}
     3b0:	30346100 	eorscc	r6, r4, r0, lsl #2
     3b4:	31346100 	teqcc	r4, r0, lsl #2
     3b8:	32346100 	eorscc	r6, r4, #0, 2
     3bc:	33346100 	teqcc	r4, #0, 2
     3c0:	34346100 	ldrtcc	r6, [r4], #-256	; 0xffffff00
     3c4:	35346100 	ldrcc	r6, [r4, #-256]!	; 0xffffff00
     3c8:	36346100 	ldrtcc	r6, [r4], -r0, lsl #2
     3cc:	37346100 	ldrcc	r6, [r4, -r0, lsl #2]!
     3d0:	38346100 	ldmdacc	r4!, {r8, sp, lr}
     3d4:	39346100 	ldmdbcc	r4!, {r8, sp, lr}
     3d8:	30356100 	eorscc	r6, r5, r0, lsl #2
     3dc:	70007000 	andvc	r7, r0, r0
     3e0:	61746164 	cmnvs	r4, r4, ror #2
     3e4:	766e6500 	strbtvc	r6, [lr], -r0, lsl #10
     3e8:	73657200 	cmnvc	r5, #0, 4
     3ec:	65767265 	ldrbvs	r7, [r6, #-613]!	; 0xfffffd9b
     3f0:	72003064 	andvc	r3, r0, #100	; 0x64
     3f4:	72657365 	rsbvc	r7, r5, #-1811939327	; 0x94000001
     3f8:	31646576 	smccc	18006	; 0x4656
     3fc:	73657200 	cmnvc	r5, #0, 4
     400:	65767265 	ldrbvs	r7, [r6, #-613]!	; 0xfffffd9b
     404:	72003264 	andvc	r3, r0, #100, 4	; 0x40000006
     408:	72657365 	rsbvc	r7, r5, #-1811939327	; 0x94000001
     40c:	33646576 	cmncc	r4, #494927872	; 0x1d800000
     410:	74654700 	strbtvc	r4, [r5], #-1792	; 0xfffff900
     414:	73726556 	cmnvc	r2, #360710144	; 0x15800000
     418:	006e6f69 	rsbeq	r6, lr, r9, ror #30
     41c:	6e695f5f 	mcrvs	15, 3, r5, cr9, cr15, {2}
     420:	5f323374 	svcpl	0x00323374
     424:	6e690074 	mcrvs	0, 3, r0, cr9, cr4, {3}
     428:	5f323374 	svcpl	0x00323374
     42c:	696a0074 	stmdbvs	sl!, {r2, r4, r5, r6}^
     430:	4400746e 	strmi	r7, [r0], #-1134	; 0xfffffb92
     434:	6e696665 	cdpvs	6, 6, cr6, cr9, cr5, {3}
     438:	616c4365 	cmnvs	ip, r5, ror #6
     43c:	6a007373 	bvs	1d210 <_end+0x19208>
     440:	73616c63 	cmnvc	r1, #25344	; 0x6300
     444:	69730073 	ldmdbvs	r3!, {r0, r1, r4, r5, r6}^
     448:	64656e67 	strbtvs	r6, [r5], #-3687	; 0xfffff199
     44c:	61686320 	cmnvs	r8, r0, lsr #6
     450:	5f5f0072 	svcpl	0x005f0072
     454:	38746e69 	ldmdacc	r4!, {r0, r3, r5, r6, r9, sl, fp, sp, lr}^
     458:	6900745f 	stmdbvs	r0, {r0, r1, r2, r3, r4, r6, sl, ip, sp, lr}
     45c:	5f38746e 	svcpl	0x0038746e
     460:	626a0074 	rsbvs	r0, sl, #116	; 0x74
     464:	00657479 	rsbeq	r7, r5, r9, ror r4
     468:	7a69736a 	bvc	1a5d218 <_end+0x1a59210>
     46c:	69460065 	stmdbvs	r6, {r0, r2, r5, r6}^
     470:	6c43646e 	cfstrdvs	mvd6, [r3], {110}	; 0x6e
     474:	00737361 	rsbseq	r7, r3, r1, ror #6
     478:	6d6f7246 	sfmvs	f7, 2, [pc, #-280]!	; 368 <note_end+0x19c>
     47c:	6c666552 	cfstr64vs	mvdx6, [r6], #-328	; 0xfffffeb8
     480:	65746365 	ldrbvs	r6, [r4, #-869]!	; 0xfffffc9b
     484:	74654d64 	strbtvc	r4, [r5], #-3428	; 0xfffff29c
     488:	00646f68 	rsbeq	r6, r4, r8, ror #30
     48c:	656d6a5f 	strbvs	r6, [sp, #-2655]!	; 0xfffff5a1
     490:	646f6874 	strbtvs	r6, [pc], #-2164	; 498 <note_end+0x2cc>
     494:	6a004449 	bvs	115c0 <_end+0xd5b8>
     498:	6874656d 	ldmdavs	r4!, {r0, r2, r3, r5, r6, r8, sl, sp, lr}^
     49c:	4449646f 	strbmi	r6, [r9], #-1135	; 0xfffffb91
     4a0:	6f724600 	svcvs	0x00724600
     4a4:	6665526d 	strbtvs	r5, [r5], -sp, ror #4
     4a8:	7463656c 	strbtvc	r6, [r3], #-1388	; 0xfffffa94
     4ac:	69466465 	stmdbvs	r6, {r0, r2, r5, r6, sl, sp, lr}^
     4b0:	00646c65 	rsbeq	r6, r4, r5, ror #24
     4b4:	69666a5f 	stmdbvs	r6!, {r0, r1, r2, r3, r4, r6, r9, fp, sp, lr}^
     4b8:	49646c65 	stmdbmi	r4!, {r0, r2, r5, r6, sl, fp, sp, lr}^
     4bc:	666a0044 	strbtvs	r0, [sl], -r4, asr #32
     4c0:	646c6569 	strbtvs	r6, [ip], #-1385	; 0xfffffa97
     4c4:	54004449 	strpl	r4, [r0], #-1097	; 0xfffffbb7
     4c8:	6665526f 	strbtvs	r5, [r5], -pc, ror #4
     4cc:	7463656c 	strbtvc	r6, [r3], #-1388	; 0xfffffa94
     4d0:	654d6465 	strbvs	r6, [sp, #-1125]	; 0xfffffb9b
     4d4:	646f6874 	strbtvs	r6, [pc], #-2164	; 4dc <note_end+0x310>
     4d8:	736e7500 	cmnvc	lr, #0, 10
     4dc:	656e6769 	strbvs	r6, [lr, #-1897]!	; 0xfffff897
     4e0:	68632064 	stmdavs	r3!, {r2, r5, r6, sp}^
     4e4:	5f007261 	svcpl	0x00007261
     4e8:	6e69755f 	mcrvs	5, 3, r7, cr9, cr15, {2}
     4ec:	745f3874 	ldrbvc	r3, [pc], #-2164	; 4f4 <note_end+0x328>
     4f0:	6e697500 	cdpvs	5, 6, cr7, cr9, cr0, {0}
     4f4:	745f3874 	ldrbvc	r3, [pc], #-2164	; 4fc <note_end+0x330>
     4f8:	6f626a00 	svcvs	0x00626a00
     4fc:	61656c6f 	cmnvs	r5, pc, ror #24
     500:	6547006e 	strbvs	r0, [r7, #-110]	; 0xffffff92
     504:	70755374 	rsbsvc	r5, r5, r4, ror r3
     508:	6c637265 	sfmvs	f7, 2, [r3], #-404	; 0xfffffe6c
     50c:	00737361 	rsbseq	r7, r3, r1, ror #6
     510:	73417349 	movtvc	r7, #4937	; 0x1349
     514:	6e676973 			; <UNDEFINED> instruction: 0x6e676973
     518:	656c6261 	strbvs	r6, [ip, #-609]!	; 0xfffffd9f
     51c:	6d6f7246 	sfmvs	f7, 2, [pc, #-280]!	; 40c <note_end+0x240>
     520:	526f5400 	rsbpl	r5, pc, #0, 8
     524:	656c6665 	strbvs	r6, [ip, #-1637]!	; 0xfffff99b
     528:	64657463 	strbtvs	r7, [r5], #-1123	; 0xfffffb9d
     52c:	6c656946 			; <UNDEFINED> instruction: 0x6c656946
     530:	68540064 	ldmdavs	r4, {r2, r5, r6}^
     534:	00776f72 	rsbseq	r6, r7, r2, ror pc
     538:	7268746a 	rsbvc	r7, r8, #1778384896	; 0x6a000000
     53c:	6261776f 	rsbvs	r7, r1, #29097984	; 0x1bc0000
     540:	5400656c 	strpl	r6, [r0], #-1388	; 0xfffffa94
     544:	776f7268 	strbvc	r7, [pc, -r8, ror #4]!
     548:	0077654e 	rsbseq	r6, r7, lr, asr #10
     54c:	65637845 	strbvs	r7, [r3, #-2117]!	; 0xfffff7bb
     550:	6f697470 	svcvs	0x00697470
     554:	63634f6e 	cmnvs	r3, #440	; 0x1b8
     558:	65727275 	ldrbvs	r7, [r2, #-629]!	; 0xfffffd8b
     55c:	78450064 	stmdavc	r5, {r2, r5, r6}^
     560:	74706563 	ldrbtvc	r6, [r0], #-1379	; 0xfffffa9d
     564:	446e6f69 	strbtmi	r6, [lr], #-3945	; 0xfffff097
     568:	72637365 	rsbvc	r7, r3, #-1811939327	; 0x94000001
     56c:	00656269 	rsbeq	r6, r5, r9, ror #4
     570:	65637845 	strbvs	r7, [r3, #-2117]!	; 0xfffff7bb
     574:	6f697470 	svcvs	0x00697470
     578:	656c436e 	strbvs	r4, [ip, #-878]!	; 0xfffffc92
     57c:	46007261 	strmi	r7, [r0], -r1, ror #4
     580:	6c617461 	cfstrdvs	mvd7, [r1], #-388	; 0xfffffe7c
     584:	6f727245 	svcvs	0x00727245
     588:	75500072 	ldrbvc	r0, [r0, #-114]	; 0xffffff8e
     58c:	6f4c6873 	svcvs	0x004c6873
     590:	466c6163 	strbtmi	r6, [ip], -r3, ror #2
     594:	656d6172 	strbvs	r6, [sp, #-370]!	; 0xfffffe8e
     598:	706f5000 	rsbvc	r5, pc, r0
     59c:	61636f4c 	cmnvs	r3, ip, asr #30
     5a0:	6172466c 	cmnvs	r2, ip, ror #12
     5a4:	4e00656d 	cfsh32mi	mvfx6, mvfx0, #61
     5a8:	6c477765 	mcrrvs	7, 6, r7, r7, cr5
     5ac:	6c61626f 	sfmvs	f6, 2, [r1], #-444	; 0xfffffe44
     5b0:	00666552 	rsbeq	r6, r6, r2, asr r5
     5b4:	656c6544 	strbvs	r6, [ip, #-1348]!	; 0xfffffabc
     5b8:	6c476574 	cfstr64vs	mvdx6, [r7], {116}	; 0x74
     5bc:	6c61626f 	sfmvs	f6, 2, [r1], #-444	; 0xfffffe44
     5c0:	00666552 	rsbeq	r6, r6, r2, asr r5
     5c4:	656c6544 	strbvs	r6, [ip, #-1348]!	; 0xfffffabc
     5c8:	6f4c6574 	svcvs	0x004c6574
     5cc:	526c6163 	rsbpl	r6, ip, #-1073741800	; 0xc0000018
     5d0:	49006665 	stmdbmi	r0, {r0, r2, r5, r6, r9, sl, sp, lr}
     5d4:	6d615373 	stclvs	3, cr5, [r1, #-460]!	; 0xfffffe34
     5d8:	6a624f65 	bvs	1894374 <_end+0x189036c>
     5dc:	00746365 	rsbseq	r6, r4, r5, ror #6
     5e0:	4c77654e 	cfldr64mi	mvdx6, [r7], #-312	; 0xfffffec8
     5e4:	6c61636f 	stclvs	3, cr6, [r1], #-444	; 0xfffffe44
     5e8:	00666552 	rsbeq	r6, r6, r2, asr r5
     5ec:	75736e45 	ldrbvc	r6, [r3, #-3653]!	; 0xfffff1bb
     5f0:	6f4c6572 	svcvs	0x004c6572
     5f4:	436c6163 	cmnmi	ip, #-1073741800	; 0xc0000018
     5f8:	63617061 	cmnvs	r1, #97	; 0x61
     5fc:	00797469 	rsbseq	r7, r9, r9, ror #8
     600:	6f6c6c41 	svcvs	0x006c6c41
     604:	6a624f63 	bvs	1894398 <_end+0x1890390>
     608:	00746365 	rsbseq	r6, r4, r5, ror #6
     60c:	4f77654e 	svcmi	0x0077654e
     610:	63656a62 	cmnvs	r5, #401408	; 0x62000
     614:	654e0074 	strbvs	r0, [lr, #-116]	; 0xffffff8c
     618:	6a624f77 	bvs	18943fc <_end+0x18903f4>
     61c:	56746365 	ldrbtpl	r6, [r4], -r5, ror #6
     620:	615f5f00 	cmpvs	pc, r0, lsl #30
     624:	5f5f0070 	svcpl	0x005f0070
     628:	6c5f6176 	ldfvse	f6, [pc], {118}	; 0x76
     62c:	00747369 	rsbseq	r7, r4, r9, ror #6
     630:	75625f5f 	strbvc	r5, [r2, #-3935]!	; 0xfffff0a1
     634:	69746c69 	ldmdbvs	r4!, {r0, r3, r5, r6, sl, fp, sp, lr}^
     638:	61765f6e 	cmnvs	r6, lr, ror #30
     63c:	73696c5f 	cmnvc	r9, #24320	; 0x5f00
     640:	61760074 	cmnvs	r6, r4, ror r0
     644:	73696c5f 	cmnvc	r9, #24320	; 0x5f00
     648:	654e0074 	strbvs	r0, [lr, #-116]	; 0xffffff8c
     64c:	6a624f77 	bvs	1894430 <_end+0x1890428>
     650:	41746365 	cmnmi	r4, r5, ror #6
     654:	62007a00 	andvs	r7, r0, #0, 20
     658:	75006300 	strvc	r6, [r0, #-768]	; 0xfffffd00
     65c:	6769736e 	strbvs	r7, [r9, -lr, ror #6]!
     660:	2064656e 	rsbcs	r6, r4, lr, ror #10
     664:	726f6873 	rsbvc	r6, pc, #7536640	; 0x730000
     668:	5f5f0074 	svcpl	0x005f0074
     66c:	746e6975 	strbtvc	r6, [lr], #-2421	; 0xfffff68b
     670:	745f3631 	ldrbvc	r3, [pc], #-1585	; 678 <note_end+0x4ac>
     674:	6e697500 	cdpvs	5, 6, cr7, cr9, cr0, {0}
     678:	5f363174 	svcpl	0x00363174
     67c:	636a0074 	cmnvs	sl, #116	; 0x74
     680:	00726168 	rsbseq	r6, r2, r8, ror #2
     684:	68730073 	ldmdavs	r3!, {r0, r1, r4, r5, r6}^
     688:	0074726f 	rsbseq	r7, r4, pc, ror #4
     68c:	6e695f5f 	mcrvs	15, 3, r5, cr9, cr15, {2}
     690:	5f363174 	svcpl	0x00363174
     694:	6e690074 	mcrvs	0, 3, r0, cr9, cr4, {3}
     698:	5f363174 	svcpl	0x00363174
     69c:	736a0074 	cmnvc	sl, #116	; 0x74
     6a0:	74726f68 	ldrbtvc	r6, [r2], #-3944	; 0xfffff098
     6a4:	6a006900 	bvs	1aaac <_end+0x16aa4>
     6a8:	6e6f6c00 	cdpvs	12, 6, cr6, cr15, cr0, {0}
     6ac:	6f6c2067 	svcvs	0x006c2067
     6b0:	6920676e 	stmdbvs	r0!, {r1, r2, r3, r5, r6, r8, r9, sl, sp, lr}
     6b4:	5f00746e 	svcpl	0x0000746e
     6b8:	746e695f 	strbtvc	r6, [lr], #-2399	; 0xfffff6a1
     6bc:	745f3436 	ldrbvc	r3, [pc], #-1078	; 6c4 <note_end+0x4f8>
     6c0:	746e6900 	strbtvc	r6, [lr], #-2304	; 0xfffff700
     6c4:	745f3436 	ldrbvc	r3, [pc], #-1078	; 6cc <note_end+0x500>
     6c8:	6f6c6a00 	svcvs	0x006c6a00
     6cc:	6600676e 	strvs	r6, [r0], -lr, ror #14
     6d0:	6f6c6600 	svcvs	0x006c6600
     6d4:	6a007461 	bvs	1d860 <_end+0x19858>
     6d8:	616f6c66 	cmnvs	pc, r6, ror #24
     6dc:	00640074 	rsbeq	r0, r4, r4, ror r0
     6e0:	62756f64 	rsbsvs	r6, r5, #100, 30	; 0x190
     6e4:	6a00656c 	bvs	19c9c <_end+0x15c94>
     6e8:	62756f64 	rsbsvs	r6, r5, #100, 30	; 0x190
     6ec:	6c00656c 	cfstr32vs	mvfx6, [r0], {108}	; 0x6c
     6f0:	61766a00 	cmnvs	r6, r0, lsl #20
     6f4:	0065756c 	rsbeq	r7, r5, ip, ror #10
     6f8:	4f746547 	svcmi	0x00746547
     6fc:	63656a62 	cmnvs	r5, #401408	; 0x62000
     700:	616c4374 	smcvs	50228	; 0xc434
     704:	49007373 	stmdbmi	r0, {r0, r1, r4, r5, r6, r8, r9, ip, sp, lr}
     708:	736e4973 	cmnvc	lr, #1884160	; 0x1cc000
     70c:	636e6174 	cmnvs	lr, #116, 2
     710:	00664f65 	rsbeq	r4, r6, r5, ror #30
     714:	4d746547 	cfldr64mi	mvdx6, [r4, #-284]!	; 0xfffffee4
     718:	6f687465 	svcvs	0x00687465
     71c:	00444964 	subeq	r4, r4, r4, ror #18
     720:	6c6c6143 	stfvse	f6, [ip], #-268	; 0xfffffef4
     724:	656a624f 	strbvs	r6, [sl, #-591]!	; 0xfffffdb1
     728:	654d7463 	strbvs	r7, [sp, #-1123]	; 0xfffffb9d
     72c:	646f6874 	strbtvs	r6, [pc], #-2164	; 734 <note_end+0x568>
     730:	6c614300 	stclvs	3, cr4, [r1], #-0
     734:	6a624f6c 	bvs	18944ec <_end+0x18904e4>
     738:	4d746365 	ldclmi	3, cr6, [r4, #-404]!	; 0xfffffe6c
     73c:	6f687465 	svcvs	0x00687465
     740:	43005664 	movwmi	r5, #1636	; 0x664
     744:	4f6c6c61 	svcmi	0x006c6c61
     748:	63656a62 	cmnvs	r5, #401408	; 0x62000
     74c:	74654d74 	strbtvc	r4, [r5], #-3444	; 0xfffff28c
     750:	41646f68 	cmnmi	r4, r8, ror #30
     754:	6c614300 	stclvs	3, cr4, [r1], #-0
     758:	6f6f426c 	svcvs	0x006f426c
     75c:	6e61656c 	cdpvs	5, 6, cr6, cr1, cr12, {3}
     760:	6874654d 	ldmdavs	r4!, {r0, r2, r3, r6, r8, sl, sp, lr}^
     764:	4300646f 	movwmi	r6, #1135	; 0x46f
     768:	426c6c61 	rsbmi	r6, ip, #24832	; 0x6100
     76c:	656c6f6f 	strbvs	r6, [ip, #-3951]!	; 0xfffff091
     770:	654d6e61 	strbvs	r6, [sp, #-3681]	; 0xfffff19f
     774:	646f6874 	strbtvs	r6, [pc], #-2164	; 77c <note_end+0x5b0>
     778:	61430056 	qdaddvs	r0, r6, r3
     77c:	6f426c6c 	svcvs	0x00426c6c
     780:	61656c6f 	cmnvs	r5, pc, ror #24
     784:	74654d6e 	strbtvc	r4, [r5], #-3438	; 0xfffff292
     788:	41646f68 	cmnmi	r4, r8, ror #30
     78c:	6c614300 	stclvs	3, cr4, [r1], #-0
     790:	7479426c 	ldrbtvc	r4, [r9], #-620	; 0xfffffd94
     794:	74654d65 	strbtvc	r4, [r5], #-3429	; 0xfffff29b
     798:	00646f68 	rsbeq	r6, r4, r8, ror #30
     79c:	6c6c6143 	stfvse	f6, [ip], #-268	; 0xfffffef4
     7a0:	65747942 	ldrbvs	r7, [r4, #-2370]!	; 0xfffff6be
     7a4:	6874654d 	ldmdavs	r4!, {r0, r2, r3, r6, r8, sl, sp, lr}^
     7a8:	0056646f 	subseq	r6, r6, pc, ror #8
     7ac:	6c6c6143 	stfvse	f6, [ip], #-268	; 0xfffffef4
     7b0:	65747942 	ldrbvs	r7, [r4, #-2370]!	; 0xfffff6be
     7b4:	6874654d 	ldmdavs	r4!, {r0, r2, r3, r6, r8, sl, sp, lr}^
     7b8:	0041646f 	subeq	r6, r1, pc, ror #8
     7bc:	6c6c6143 	stfvse	f6, [ip], #-268	; 0xfffffef4
     7c0:	72616843 	rsbvc	r6, r1, #4390912	; 0x430000
     7c4:	6874654d 	ldmdavs	r4!, {r0, r2, r3, r6, r8, sl, sp, lr}^
     7c8:	4300646f 	movwmi	r6, #1135	; 0x46f
     7cc:	436c6c61 	cmnmi	ip, #24832	; 0x6100
     7d0:	4d726168 	ldfmie	f6, [r2, #-416]!	; 0xfffffe60
     7d4:	6f687465 	svcvs	0x00687465
     7d8:	43005664 	movwmi	r5, #1636	; 0x664
     7dc:	436c6c61 	cmnmi	ip, #24832	; 0x6100
     7e0:	4d726168 	ldfmie	f6, [r2, #-416]!	; 0xfffffe60
     7e4:	6f687465 	svcvs	0x00687465
     7e8:	43004164 	movwmi	r4, #356	; 0x164
     7ec:	536c6c61 	cmnpl	ip, #24832	; 0x6100
     7f0:	74726f68 	ldrbtvc	r6, [r2], #-3944	; 0xfffff098
     7f4:	6874654d 	ldmdavs	r4!, {r0, r2, r3, r6, r8, sl, sp, lr}^
     7f8:	4300646f 	movwmi	r6, #1135	; 0x46f
     7fc:	536c6c61 	cmnpl	ip, #24832	; 0x6100
     800:	74726f68 	ldrbtvc	r6, [r2], #-3944	; 0xfffff098
     804:	6874654d 	ldmdavs	r4!, {r0, r2, r3, r6, r8, sl, sp, lr}^
     808:	0056646f 	subseq	r6, r6, pc, ror #8
     80c:	6c6c6143 	stfvse	f6, [ip], #-268	; 0xfffffef4
     810:	726f6853 	rsbvc	r6, pc, #5439488	; 0x530000
     814:	74654d74 	strbtvc	r4, [r5], #-3444	; 0xfffff28c
     818:	41646f68 	cmnmi	r4, r8, ror #30
     81c:	6c614300 	stclvs	3, cr4, [r1], #-0
     820:	746e496c 	strbtvc	r4, [lr], #-2412	; 0xfffff694
     824:	6874654d 	ldmdavs	r4!, {r0, r2, r3, r6, r8, sl, sp, lr}^
     828:	4300646f 	movwmi	r6, #1135	; 0x46f
     82c:	496c6c61 	stmdbmi	ip!, {r0, r5, r6, sl, fp, sp, lr}^
     830:	654d746e 	strbvs	r7, [sp, #-1134]	; 0xfffffb92
     834:	646f6874 	strbtvs	r6, [pc], #-2164	; 83c <note_end+0x670>
     838:	61430056 	qdaddvs	r0, r6, r3
     83c:	6e496c6c 	cdpvs	12, 4, cr6, cr9, cr12, {3}
     840:	74654d74 	strbtvc	r4, [r5], #-3444	; 0xfffff28c
     844:	41646f68 	cmnmi	r4, r8, ror #30
     848:	6c614300 	stclvs	3, cr4, [r1], #-0
     84c:	6e6f4c6c 	cdpvs	12, 6, cr4, cr15, cr12, {3}
     850:	74654d67 	strbtvc	r4, [r5], #-3431	; 0xfffff299
     854:	00646f68 	rsbeq	r6, r4, r8, ror #30
     858:	6c6c6143 	stfvse	f6, [ip], #-268	; 0xfffffef4
     85c:	676e6f4c 	strbvs	r6, [lr, -ip, asr #30]!
     860:	6874654d 	ldmdavs	r4!, {r0, r2, r3, r6, r8, sl, sp, lr}^
     864:	0056646f 	subseq	r6, r6, pc, ror #8
     868:	6c6c6143 	stfvse	f6, [ip], #-268	; 0xfffffef4
     86c:	676e6f4c 	strbvs	r6, [lr, -ip, asr #30]!
     870:	6874654d 	ldmdavs	r4!, {r0, r2, r3, r6, r8, sl, sp, lr}^
     874:	0041646f 	subeq	r6, r1, pc, ror #8
     878:	6c6c6143 	stfvse	f6, [ip], #-268	; 0xfffffef4
     87c:	616f6c46 	cmnvs	pc, r6, asr #24
     880:	74654d74 	strbtvc	r4, [r5], #-3444	; 0xfffff28c
     884:	00646f68 	rsbeq	r6, r4, r8, ror #30
     888:	6c6c6143 	stfvse	f6, [ip], #-268	; 0xfffffef4
     88c:	616f6c46 	cmnvs	pc, r6, asr #24
     890:	74654d74 	strbtvc	r4, [r5], #-3444	; 0xfffff28c
     894:	56646f68 	strbtpl	r6, [r4], -r8, ror #30
     898:	6c614300 	stclvs	3, cr4, [r1], #-0
     89c:	6f6c466c 	svcvs	0x006c466c
     8a0:	654d7461 	strbvs	r7, [sp, #-1121]	; 0xfffffb9f
     8a4:	646f6874 	strbtvs	r6, [pc], #-2164	; 8ac <note_end+0x6e0>
     8a8:	61430041 	cmpvs	r3, r1, asr #32
     8ac:	6f446c6c 	svcvs	0x00446c6c
     8b0:	656c6275 	strbvs	r6, [ip, #-629]!	; 0xfffffd8b
     8b4:	6874654d 	ldmdavs	r4!, {r0, r2, r3, r6, r8, sl, sp, lr}^
     8b8:	4300646f 	movwmi	r6, #1135	; 0x46f
     8bc:	446c6c61 	strbtmi	r6, [ip], #-3169	; 0xfffff39f
     8c0:	6c62756f 	cfstr64vs	mvdx7, [r2], #-444	; 0xfffffe44
     8c4:	74654d65 	strbtvc	r4, [r5], #-3429	; 0xfffff29b
     8c8:	56646f68 	strbtpl	r6, [r4], -r8, ror #30
     8cc:	6c614300 	stclvs	3, cr4, [r1], #-0
     8d0:	756f446c 	strbvc	r4, [pc, #-1132]!	; 46c <note_end+0x2a0>
     8d4:	4d656c62 	stclmi	12, cr6, [r5, #-392]!	; 0xfffffe78
     8d8:	6f687465 	svcvs	0x00687465
     8dc:	43004164 	movwmi	r4, #356	; 0x164
     8e0:	566c6c61 	strbtpl	r6, [ip], -r1, ror #24
     8e4:	4d64696f 			; <UNDEFINED> instruction: 0x4d64696f
     8e8:	6f687465 	svcvs	0x00687465
     8ec:	61430064 	cmpvs	r3, r4, rrx
     8f0:	6f566c6c 	svcvs	0x00566c6c
     8f4:	654d6469 	strbvs	r6, [sp, #-1129]	; 0xfffffb97
     8f8:	646f6874 	strbtvs	r6, [pc], #-2164	; 900 <note_end+0x734>
     8fc:	61430056 	qdaddvs	r0, r6, r3
     900:	6f566c6c 	svcvs	0x00566c6c
     904:	654d6469 	strbvs	r6, [sp, #-1129]	; 0xfffffb97
     908:	646f6874 	strbtvs	r6, [pc], #-2164	; 910 <__cxa_atexit@plt+0x4>
     90c:	61430041 	cmpvs	r3, r1, asr #32
     910:	6f4e6c6c 	svcvs	0x004e6c6c
     914:	7269766e 	rsbvc	r7, r9, #115343360	; 0x6e00000
     918:	6c617574 	cfstr64vs	mvdx7, [r1], #-464	; 0xfffffe30
     91c:	656a624f 	strbvs	r6, [sl, #-591]!	; 0xfffffdb1
     920:	654d7463 	strbvs	r7, [sp, #-1123]	; 0xfffffb9d
     924:	646f6874 	strbtvs	r6, [pc], #-2164	; 92c <popen@plt+0x8>
     928:	6c614300 	stclvs	3, cr4, [r1], #-0
     92c:	6e6f4e6c 	cdpvs	14, 6, cr4, cr15, cr12, {3}
     930:	74726976 	ldrbtvc	r6, [r2], #-2422	; 0xfffff68a
     934:	4f6c6175 	svcmi	0x006c6175
     938:	63656a62 	cmnvs	r5, #401408	; 0x62000
     93c:	74654d74 	strbtvc	r4, [r5], #-3444	; 0xfffff28c
     940:	56646f68 	strbtpl	r6, [r4], -r8, ror #30
     944:	6c614300 	stclvs	3, cr4, [r1], #-0
     948:	6e6f4e6c 	cdpvs	14, 6, cr4, cr15, cr12, {3}
     94c:	74726976 	ldrbtvc	r6, [r2], #-2422	; 0xfffff68a
     950:	4f6c6175 	svcmi	0x006c6175
     954:	63656a62 	cmnvs	r5, #401408	; 0x62000
     958:	74654d74 	strbtvc	r4, [r5], #-3444	; 0xfffff28c
     95c:	41646f68 	cmnmi	r4, r8, ror #30
     960:	6c614300 	stclvs	3, cr4, [r1], #-0
     964:	6e6f4e6c 	cdpvs	14, 6, cr4, cr15, cr12, {3}
     968:	74726976 	ldrbtvc	r6, [r2], #-2422	; 0xfffff68a
     96c:	426c6175 	rsbmi	r6, ip, #1073741853	; 0x4000001d
     970:	656c6f6f 	strbvs	r6, [ip, #-3951]!	; 0xfffff091
     974:	654d6e61 	strbvs	r6, [sp, #-3681]	; 0xfffff19f
     978:	646f6874 	strbtvs	r6, [pc], #-2164	; 980 <__system_property_read@plt+0x8>
     97c:	6c614300 	stclvs	3, cr4, [r1], #-0
     980:	6e6f4e6c 	cdpvs	14, 6, cr4, cr15, cr12, {3}
     984:	74726976 	ldrbtvc	r6, [r2], #-2422	; 0xfffff68a
     988:	426c6175 	rsbmi	r6, ip, #1073741853	; 0x4000001d
     98c:	656c6f6f 	strbvs	r6, [ip, #-3951]!	; 0xfffff091
     990:	654d6e61 	strbvs	r6, [sp, #-3681]	; 0xfffff19f
     994:	646f6874 	strbtvs	r6, [pc], #-2164	; 99c <willCrash@plt>
     998:	61430056 	qdaddvs	r0, r6, r3
     99c:	6f4e6c6c 	svcvs	0x004e6c6c
     9a0:	7269766e 	rsbvc	r7, r9, #115343360	; 0x6e00000
     9a4:	6c617574 	cfstr64vs	mvdx7, [r1], #-464	; 0xfffffe30
     9a8:	6c6f6f42 	stclvs	15, cr6, [pc], #-264	; 8a8 <note_end+0x6dc>
     9ac:	4d6e6165 	stfmie	f6, [lr, #-404]!	; 0xfffffe6c
     9b0:	6f687465 	svcvs	0x00687465
     9b4:	43004164 	movwmi	r4, #356	; 0x164
     9b8:	4e6c6c61 	cdpmi	12, 6, cr6, cr12, cr1, {3}
     9bc:	69766e6f 	ldmdbvs	r6!, {r0, r1, r2, r3, r5, r6, r9, sl, fp, sp, lr}^
     9c0:	61757472 	cmnvs	r5, r2, ror r4
     9c4:	7479426c 	ldrbtvc	r4, [r9], #-620	; 0xfffffd94
     9c8:	74654d65 	strbtvc	r4, [r5], #-3429	; 0xfffff29b
     9cc:	00646f68 	rsbeq	r6, r4, r8, ror #30
     9d0:	6c6c6143 	stfvse	f6, [ip], #-268	; 0xfffffef4
     9d4:	766e6f4e 	strbtvc	r6, [lr], -lr, asr #30
     9d8:	75747269 	ldrbvc	r7, [r4, #-617]!	; 0xfffffd97
     9dc:	79426c61 	stmdbvc	r2, {r0, r5, r6, sl, fp, sp, lr}^
     9e0:	654d6574 	strbvs	r6, [sp, #-1396]	; 0xfffffa8c
     9e4:	646f6874 	strbtvs	r6, [pc], #-2164	; 9ec <__gnu_Unwind_Find_exidx@plt+0x8>
     9e8:	61430056 	qdaddvs	r0, r6, r3
     9ec:	6f4e6c6c 	svcvs	0x004e6c6c
     9f0:	7269766e 	rsbvc	r7, r9, #115343360	; 0x6e00000
     9f4:	6c617574 	cfstr64vs	mvdx7, [r1], #-464	; 0xfffffe30
     9f8:	65747942 	ldrbvs	r7, [r4, #-2370]!	; 0xfffff6be
     9fc:	6874654d 	ldmdavs	r4!, {r0, r2, r3, r6, r8, sl, sp, lr}^
     a00:	0041646f 	subeq	r6, r1, pc, ror #8
     a04:	6c6c6143 	stfvse	f6, [ip], #-268	; 0xfffffef4
     a08:	766e6f4e 	strbtvc	r6, [lr], -lr, asr #30
     a0c:	75747269 	ldrbvc	r7, [r4, #-617]!	; 0xfffffd97
     a10:	68436c61 	stmdavs	r3, {r0, r5, r6, sl, fp, sp, lr}^
     a14:	654d7261 	strbvs	r7, [sp, #-609]	; 0xfffffd9f
     a18:	646f6874 	strbtvs	r6, [pc], #-2164	; a20 <__on_dlclose>
     a1c:	6c614300 	stclvs	3, cr4, [r1], #-0
     a20:	6e6f4e6c 	cdpvs	14, 6, cr4, cr15, cr12, {3}
     a24:	74726976 	ldrbtvc	r6, [r2], #-2422	; 0xfffff68a
     a28:	436c6175 	cmnmi	ip, #1073741853	; 0x4000001d
     a2c:	4d726168 	ldfmie	f6, [r2, #-416]!	; 0xfffffe60
     a30:	6f687465 	svcvs	0x00687465
     a34:	43005664 	movwmi	r5, #1636	; 0x664
     a38:	4e6c6c61 	cdpmi	12, 6, cr6, cr12, cr1, {3}
     a3c:	69766e6f 	ldmdbvs	r6!, {r0, r1, r2, r3, r5, r6, r9, sl, fp, sp, lr}^
     a40:	61757472 	cmnvs	r5, r2, ror r4
     a44:	6168436c 	cmnvs	r8, ip, ror #6
     a48:	74654d72 	strbtvc	r4, [r5], #-3442	; 0xfffff28e
     a4c:	41646f68 	cmnmi	r4, r8, ror #30
     a50:	6c614300 	stclvs	3, cr4, [r1], #-0
     a54:	6e6f4e6c 	cdpvs	14, 6, cr4, cr15, cr12, {3}
     a58:	74726976 	ldrbtvc	r6, [r2], #-2422	; 0xfffff68a
{
     a5c:	536c6175 	cmnpl	ip, #1073741853	; 0x4000001d
     a60:	74726f68 	ldrbtvc	r6, [r2], #-3944	; 0xfffff098
     a64:	6874654d 	ldmdavs	r4!, {r0, r2, r3, r6, r8, sl, sp, lr}^
     a68:	4300646f 	movwmi	r6, #1135	; 0x46f
     a6c:	4e6c6c61 	cdpmi	12, 6, cr6, cr12, cr1, {3}
    stream = popen("pwd", "r");
     a70:	69766e6f 	ldmdbvs	r6!, {r0, r1, r2, r3, r5, r6, r9, sl, fp, sp, lr}^
     a74:	61757472 	cmnvs	r5, r2, ror r4
     a78:	6f68536c 	svcvs	0x0068536c
     a7c:	654d7472 	strbvs	r7, [sp, #-1138]	; 0xfffffb8e
    fgets(ch, 1024, stream);
     a80:	646f6874 	strbtvs	r6, [pc], #-2164	; a88 <testcode6+0x2c>
     a84:	61430056 	qdaddvs	r0, r6, r3
     a88:	6f4e6c6c 	svcvs	0x004e6c6c
     a8c:	7269766e 	rsbvc	r7, r9, #115343360	; 0x6e00000
    LOGW("pwd: %s",ch);
     a90:	6c617574 	cfstr64vs	mvdx7, [r1], #-464	; 0xfffffe30
     a94:	726f6853 	rsbvc	r6, pc, #5439488	; 0x530000
     a98:	74654d74 	strbtvc	r4, [r5], #-3444	; 0xfffff28c
     a9c:	41646f68 	cmnmi	r4, r8, ror #30
     aa0:	6c614300 	stclvs	3, cr4, [r1], #-0
     aa4:	6e6f4e6c 	cdpvs	14, 6, cr4, cr15, cr12, {3}
    pclose(stream);
     aa8:	74726976 	ldrbtvc	r6, [r2], #-2422	; 0xfffff68a
     aac:	496c6175 	stmdbmi	ip!, {r0, r2, r4, r5, r6, r8, sp, lr}^
    stream = popen("ls", "r");
     ab0:	654d746e 	strbvs	r7, [sp, #-1134]	; 0xfffffb92
     ab4:	646f6874 	strbtvs	r6, [pc], #-2164	; abc <testcode6+0x60>
     ab8:	6c614300 	stclvs	3, cr4, [r1], #-0
     abc:	6e6f4e6c 	cdpvs	14, 6, cr4, cr15, cr12, {3}
    if( NULL == stream )
     ac0:	74726976 	ldrbtvc	r6, [r2], #-2422	; 0xfffff68a
     ac4:	496c6175 	stmdbmi	ip!, {r0, r2, r4, r5, r6, r8, sp, lr}^
        LOGE("Unable to execute the command");
     ac8:	654d746e 	strbvs	r7, [sp, #-1134]	; 0xfffffb92
     acc:	646f6874 	strbtvs	r6, [pc], #-2164	; ad4 <testcode6+0x78>
     ad0:	61430056 	qdaddvs	r0, r6, r3
     ad4:	6f4e6c6c 	svcvs	0x004e6c6c
     ad8:	7269766e 	rsbvc	r7, r9, #115343360	; 0x6e00000
     adc:	6c617574 	cfstr64vs	mvdx7, [r1], #-464	; 0xfffffe30
     ae0:	4d746e49 	ldclmi	14, cr6, [r4, #-292]!	; 0xfffffedc
    }
     ae4:	6f687465 	svcvs	0x00687465
        while( NULL != fgets(buffer, 1024, stream))
     ae8:	43004164 	movwmi	r4, #356	; 0x164
     aec:	4e6c6c61 	cdpmi	12, 6, cr6, cr12, cr1, {3}
     af0:	69766e6f 	ldmdbvs	r6!, {r0, r1, r2, r3, r5, r6, r9, sl, fp, sp, lr}^
     af4:	61757472 	cmnvs	r5, r2, ror r4
     af8:	6e6f4c6c 	cdpvs	12, 6, cr4, cr15, cr12, {3}
            LOGE("read: %s", buffer);
     afc:	74654d67 	strbtvc	r4, [r5], #-3431	; 0xfffff299
     b00:	00646f68 	rsbeq	r6, r4, r8, ror #30
     b04:	6c6c6143 	stfvse	f6, [ip], #-268	; 0xfffffef4
     b08:	766e6f4e 	strbtvc	r6, [lr], -lr, asr #30
     b0c:	75747269 	ldrbvc	r7, [r4, #-617]!	; 0xfffffd97
     b10:	6f4c6c61 	svcvs	0x004c6c61
     b14:	654d676e 	strbvs	r6, [sp, #-1902]	; 0xfffff892
        while( NULL != fgets(buffer, 1024, stream))
     b18:	646f6874 	strbtvs	r6, [pc], #-2164	; b20 <testcode6+0xc4>
        status = pclose(stream);
     b1c:	61430056 	qdaddvs	r0, r6, r3
     b20:	6f4e6c6c 	svcvs	0x004e6c6c
        LOGW("process exited with status %d", status);
     b24:	7269766e 	rsbvc	r7, r9, #115343360	; 0x6e00000
     b28:	6c617574 	cfstr64vs	mvdx7, [r1], #-464	; 0xfffffe30
     b2c:	676e6f4c 	strbvs	r6, [lr, -ip, asr #30]!
     b30:	6874654d 	ldmdavs	r4!, {r0, r2, r3, r6, r8, sl, sp, lr}^
     b34:	0041646f 	subeq	r6, r1, pc, ror #8
     b38:	6c6c6143 	stfvse	f6, [ip], #-268	; 0xfffffef4
     b3c:	766e6f4e 	strbtvc	r6, [lr], -lr, asr #30
     b40:	75747269 	ldrbvc	r7, [r4, #-617]!	; 0xfffffd97
     b44:	6c466c61 	mcrrvs	12, 6, r6, r6, cr1
     b48:	4d74616f 	ldfmie	f6, [r4, #-444]!	; 0xfffffe44
     b4c:	6f687465 	svcvs	0x00687465
     b50:	61430064 	cmpvs	r3, r4, rrx
}
     b54:	6f4e6c6c 	svcvs	0x004e6c6c
     b58:	7269766e 	rsbvc	r7, r9, #115343360	; 0x6e00000
     b5c:	6c617574 	cfstr64vs	mvdx7, [r1], #-464	; 0xfffffe30
     b60:	616f6c46 	cmnvs	pc, r6, asr #24
     b64:	74654d74 	strbtvc	r4, [r5], #-3444	; 0xfffff28c
     b68:	56646f68 	strbtpl	r6, [r4], -r8, ror #30
     b6c:	6c614300 	stclvs	3, cr4, [r1], #-0
     b70:	6e6f4e6c 	cdpvs	14, 6, cr4, cr15, cr12, {3}
     b74:	74726976 	ldrbtvc	r6, [r2], #-2422	; 0xfffff68a
     b78:	466c6175 			; <UNDEFINED> instruction: 0x466c6175
     b7c:	74616f6c 	strbtvc	r6, [r1], #-3948	; 0xfffff094
     b80:	6874654d 	ldmdavs	r4!, {r0, r2, r3, r6, r8, sl, sp, lr}^
     b84:	0041646f 	subeq	r6, r1, pc, ror #8
     b88:	6c6c6143 	stfvse	f6, [ip], #-268	; 0xfffffef4
     b8c:	766e6f4e 	strbtvc	r6, [lr], -lr, asr #30
{
     b90:	75747269 	ldrbvc	r7, [r4, #-617]!	; 0xfffffd97
     b94:	6f446c61 	svcvs	0x00446c61
     b98:	656c6275 	strbvs	r6, [ip, #-629]!	; 0xfffffd8b
     b9c:	6874654d 	ldmdavs	r4!, {r0, r2, r3, r6, r8, sl, sp, lr}^
    if(0 == __system_property_get("ro.product.model", value))
     ba0:	4300646f 	movwmi	r6, #1135	; 0x46f
     ba4:	4e6c6c61 	cdpmi	12, 6, cr6, cr12, cr1, {3}
     ba8:	69766e6f 	ldmdbvs	r6!, {r0, r1, r2, r3, r5, r6, r9, sl, fp, sp, lr}^
     bac:	61757472 	cmnvs	r5, r2, ror r4
        LOGE("error");
     bb0:	756f446c 	strbvc	r4, [pc, #-1132]!	; 74c <note_end+0x580>
     bb4:	4d656c62 	stclmi	12, cr6, [r5, #-392]!	; 0xfffffe78
     bb8:	6f687465 	svcvs	0x00687465
     bbc:	43005664 	movwmi	r5, #1636	; 0x664
     bc0:	4e6c6c61 	cdpmi	12, 6, cr6, cr12, cr1, {3}
     bc4:	69766e6f 	ldmdbvs	r6!, {r0, r1, r2, r3, r5, r6, r9, sl, fp, sp, lr}^
     bc8:	61757472 	cmnvs	r5, r2, ror r4
    }
     bcc:	756f446c 	strbvc	r4, [pc, #-1132]!	; 768 <note_end+0x59c>
        LOGW("product model: %s", value);
     bd0:	4d656c62 	stclmi	12, cr6, [r5, #-392]!	; 0xfffffe78
     bd4:	6f687465 	svcvs	0x00687465
     bd8:	43004164 	movwmi	r4, #356	; 0x164
     bdc:	4e6c6c61 	cdpmi	12, 6, cr6, cr12, cr1, {3}
     be0:	69766e6f 	ldmdbvs	r6!, {r0, r1, r2, r3, r5, r6, r9, sl, fp, sp, lr}^
     be4:	61757472 	cmnvs	r5, r2, ror r4
     be8:	696f566c 	stmdbvs	pc!, {r2, r3, r5, r6, r9, sl, ip, lr}^	; <UNPREDICTABLE>
     bec:	74654d64 	strbtvc	r4, [r5], #-3428	; 0xfffff29c
    property = __system_property_find("ro.product.model");
     bf0:	00646f68 	rsbeq	r6, r4, r8, ror #30
     bf4:	6c6c6143 	stfvse	f6, [ip], #-268	; 0xfffffef4
    if( NULL == property )
     bf8:	766e6f4e 	strbtvc	r6, [lr], -lr, asr #30
     bfc:	75747269 	ldrbvc	r7, [r4, #-617]!	; 0xfffffd97
        LOGE("error");
     c00:	6f566c61 	svcvs	0x00566c61
     c04:	654d6469 	strbvs	r6, [sp, #-1129]	; 0xfffffb97
     c08:	646f6874 	strbtvs	r6, [pc], #-2164	; c10 <testProperties+0x80>
     c0c:	61430056 	qdaddvs	r0, r6, r3
     c10:	6f4e6c6c 	svcvs	0x004e6c6c
     c14:	7269766e 	rsbvc	r7, r9, #115343360	; 0x6e00000
     c18:	6c617574 	cfstr64vs	mvdx7, [r1], #-464	; 0xfffffe30
    }
     c1c:	64696f56 	strbtvs	r6, [r9], #-3926	; 0xfffff0aa
        if( 0 == __system_property_read(property, name, value))
     c20:	6874654d 	ldmdavs	r4!, {r0, r2, r3, r6, r8, sl, sp, lr}^
     c24:	0041646f 	subeq	r6, r1, pc, ror #8
     c28:	46746547 	ldrbtmi	r6, [r4], -r7, asr #10
     c2c:	646c6569 	strbtvs	r6, [ip], #-1385	; 0xfffffa97
            LOGE("is empty");
     c30:	47004449 	strmi	r4, [r0, -r9, asr #8]
     c34:	624f7465 	subvs	r7, pc, #1694498816	; 0x65000000
     c38:	7463656a 	strbtvc	r6, [r3], #-1386	; 0xfffffa96
     c3c:	6c656946 			; <UNDEFINED> instruction: 0x6c656946
     c40:	65470064 	strbvs	r0, [r7, #-100]	; 0xffffff9c
     c44:	6f6f4274 	svcvs	0x006f4274
        }
     c48:	6e61656c 	cdpvs	5, 6, cr6, cr1, cr12, {3}
            LOGW("%s, %s", name, value);
     c4c:	6c656946 			; <UNDEFINED> instruction: 0x6c656946
     c50:	65470064 	strbvs	r0, [r7, #-100]	; 0xffffff9c
     c54:	74794274 	ldrbtvc	r4, [r9], #-628	; 0xfffffd8c
     c58:	65694665 	strbvs	r4, [r9, #-1637]!	; 0xfffff99b
     c5c:	4700646c 	strmi	r6, [r0, -ip, ror #8]
     c60:	68437465 	stmdavs	r3, {r0, r2, r5, r6, sl, ip, sp, lr}^
     c64:	69467261 	stmdbvs	r6, {r0, r5, r6, r9, ip, sp, lr}^
     c68:	00646c65 	rsbeq	r6, r4, r5, ror #24
     c6c:	53746547 	cmnpl	r4, #297795584	; 0x11c00000
     c70:	74726f68 	ldrbtvc	r6, [r2], #-3944	; 0xfffff098
     c74:	6c656946 			; <UNDEFINED> instruction: 0x6c656946
     c78:	65470064 	strbvs	r0, [r7, #-100]	; 0xffffff9c
     c7c:	746e4974 	strbtvc	r4, [lr], #-2420	; 0xfffff68c
     c80:	6c656946 			; <UNDEFINED> instruction: 0x6c656946
    return;
     c84:	65470064 	strbvs	r0, [r7, #-100]	; 0xffffff9c
     c88:	6e6f4c74 	mcrvs	12, 3, r4, cr15, cr4, {3}
     c8c:	65694667 	strbvs	r4, [r9, #-1639]!	; 0xfffff999
     c90:	4700646c 	strmi	r6, [r0, -ip, ror #8]
     c94:	6c467465 	cfstrdvs	mvd7, [r6], {101}	; 0x65
     c98:	4674616f 	ldrbtmi	r6, [r4], -pc, ror #2
     c9c:	646c6569 	strbtvs	r6, [ip], #-1385	; 0xfffffa97
     ca0:	74654700 	strbtvc	r4, [r5], #-1792	; 0xfffff900
     ca4:	62756f44 	rsbsvs	r6, r5, #68, 30	; 0x110
     ca8:	6946656c 	stmdbvs	r6, {r2, r3, r5, r6, r8, sl, sp, lr}^
     cac:	00646c65 	rsbeq	r6, r4, r5, ror #24
     cb0:	4f746553 	svcmi	0x00746553
     cb4:	63656a62 	cmnvs	r5, #401408	; 0x62000
     cb8:	65694674 	strbvs	r4, [r9, #-1652]!	; 0xfffff98c
     cbc:	5300646c 	movwpl	r6, #1132	; 0x46c
     cc0:	6f427465 	svcvs	0x00427465
{
     cc4:	61656c6f 	cmnvs	r5, pc, ror #24
     cc8:	6569466e 	strbvs	r4, [r9, #-1646]!	; 0xfffff992
     ccc:	5300646c 	movwpl	r6, #1132	; 0x46c
    LOGE("%s, %d, ", __FUNCTION__, a1);
     cd0:	79427465 	stmdbvc	r2, {r0, r2, r5, r6, sl, ip, sp, lr}^
     cd4:	69466574 	stmdbvs	r6, {r2, r4, r5, r6, r8, sl, sp, lr}^
     cd8:	00646c65 	rsbeq	r6, r4, r5, ror #24
     cdc:	43746553 	cmnmi	r4, #348127232	; 0x14c00000
     ce0:	46726168 	ldrbtmi	r6, [r2], -r8, ror #2
     ce4:	646c6569 	strbtvs	r6, [ip], #-1385	; 0xfffffa97
     ce8:	74655300 	strbtvc	r5, [r5], #-768	; 0xfffffd00
     cec:	726f6853 	rsbvc	r6, pc, #5439488	; 0x530000
     cf0:	65694674 	strbvs	r4, [r9, #-1652]!	; 0xfffff98c
}
     cf4:	5300646c 	movwpl	r6, #1132	; 0x46c
     cf8:	6e497465 	cdpvs	4, 4, cr7, cr9, cr5, {3}
     cfc:	65694674 	strbvs	r4, [r9, #-1652]!	; 0xfffff98c
     d00:	5300646c 	movwpl	r6, #1132	; 0x46c
     d04:	6f4c7465 	svcvs	0x004c7465
{
     d08:	6946676e 	stmdbvs	r6, {r1, r2, r3, r5, r6, r8, r9, sl, sp, lr}^
     d0c:	00646c65 	rsbeq	r6, r4, r5, ror #24
     d10:	46746553 			; <UNDEFINED> instruction: 0x46746553
     d14:	74616f6c 	strbtvc	r6, [r1], #-3948	; 0xfffff094
     d18:	6c656946 			; <UNDEFINED> instruction: 0x6c656946
     d1c:	65530064 	ldrbvs	r0, [r3, #-100]	; 0xffffff9c
     d20:	756f4474 	strbvc	r4, [pc, #-1140]!	; 8b4 <note_end+0x6e8>
     d24:	46656c62 	strbtmi	r6, [r5], -r2, ror #24
     d28:	646c6569 	strbtvs	r6, [ip], #-1385	; 0xfffffa97
     d2c:	74654700 	strbtvc	r4, [r5], #-1792	; 0xfffff900
     d30:	74617453 	strbtvc	r7, [r1], #-1107	; 0xfffffbad
     d34:	654d6369 	strbvs	r6, [sp, #-873]	; 0xfffffc97
     d38:	646f6874 	strbtvs	r6, [pc], #-2164	; d40 <testParameter+0x38>
     d3c:	43004449 	movwmi	r4, #1097	; 0x449
     d40:	536c6c61 	cmnpl	ip, #24832	; 0x6100
     d44:	69746174 	ldmdbvs	r4!, {r2, r4, r5, r6, r8, sp, lr}^
     d48:	6a624f63 	bvs	1894adc <_end+0x1890ad4>
     d4c:	4d746365 	ldclmi	3, cr6, [r4, #-404]!	; 0xfffffe6c
     d50:	6f687465 	svcvs	0x00687465
     d54:	61430064 	cmpvs	r3, r4, rrx
     d58:	74536c6c 	ldrbvc	r6, [r3], #-3180	; 0xfffff394
     d5c:	63697461 	cmnvs	r9, #1627389952	; 0x61000000
     d60:	656a624f 	strbvs	r6, [sl, #-591]!	; 0xfffffdb1
     d64:	654d7463 	strbvs	r7, [sp, #-1123]	; 0xfffffb9d
     d68:	646f6874 	strbtvs	r6, [pc], #-2164	; d70 <testParameter+0x68>
     d6c:	61430056 	qdaddvs	r0, r6, r3
     d70:	74536c6c 	ldrbvc	r6, [r3], #-3180	; 0xfffff394
     d74:	63697461 	cmnvs	r9, #1627389952	; 0x61000000
     d78:	656a624f 	strbvs	r6, [sl, #-591]!	; 0xfffffdb1
     d7c:	654d7463 	strbvs	r7, [sp, #-1123]	; 0xfffffb9d
     d80:	646f6874 	strbtvs	r6, [pc], #-2164	; d88 <testParameter+0x80>
     d84:	61430041 	cmpvs	r3, r1, asr #32
     d88:	74536c6c 	ldrbvc	r6, [r3], #-3180	; 0xfffff394
     d8c:	63697461 	cmnvs	r9, #1627389952	; 0x61000000
     d90:	6c6f6f42 	stclvs	15, cr6, [pc], #-264	; c90 <testProperties+0x100>
     d94:	4d6e6165 	stfmie	f6, [lr, #-404]!	; 0xfffffe6c
     d98:	6f687465 	svcvs	0x00687465
     d9c:	61430064 	cmpvs	r3, r4, rrx
     da0:	74536c6c 	ldrbvc	r6, [r3], #-3180	; 0xfffff394
     da4:	63697461 	cmnvs	r9, #1627389952	; 0x61000000
     da8:	6c6f6f42 	stclvs	15, cr6, [pc], #-264	; ca8 <testProperties+0x118>
     dac:	4d6e6165 	stfmie	f6, [lr, #-404]!	; 0xfffffe6c
     db0:	6f687465 	svcvs	0x00687465
     db4:	43005664 	movwmi	r5, #1636	; 0x664
     db8:	536c6c61 	cmnpl	ip, #24832	; 0x6100
     dbc:	69746174 	ldmdbvs	r4!, {r2, r4, r5, r6, r8, sp, lr}^
     dc0:	6f6f4263 	svcvs	0x006f4263
     dc4:	6e61656c 	cdpvs	5, 6, cr6, cr1, cr12, {3}
     dc8:	6874654d 	ldmdavs	r4!, {r0, r2, r3, r6, r8, sl, sp, lr}^
     dcc:	0041646f 	subeq	r6, r1, pc, ror #8
     dd0:	6c6c6143 	stfvse	f6, [ip], #-268	; 0xfffffef4
     dd4:	74617453 	strbtvc	r7, [r1], #-1107	; 0xfffffbad
     dd8:	79426369 	stmdbvc	r2, {r0, r3, r5, r6, r8, r9, sp, lr}^
     ddc:	654d6574 	strbvs	r6, [sp, #-1396]	; 0xfffffa8c
     de0:	646f6874 	strbtvs	r6, [pc], #-2164	; de8 <testParameter+0xe0>
     de4:	6c614300 	stclvs	3, cr4, [r1], #-0
     de8:	6174536c 	cmnvs	r4, ip, ror #6
     dec:	42636974 	rsbmi	r6, r3, #116, 18	; 0x1d0000
     df0:	4d657479 	cfstrdmi	mvd7, [r5, #-484]!	; 0xfffffe1c
     df4:	6f687465 	svcvs	0x00687465
    LOGE("%d, %d, %d, %d, %d, %d, %d, %d, %d, %d, \
     df8:	43005664 	movwmi	r5, #1636	; 0x664
     dfc:	536c6c61 	cmnpl	ip, #24832	; 0x6100
     e00:	69746174 	ldmdbvs	r4!, {r2, r4, r5, r6, r8, sp, lr}^
     e04:	74794263 	ldrbtvc	r4, [r9], #-611	; 0xfffffd9d
     e08:	74654d65 	strbtvc	r4, [r5], #-3429	; 0xfffff29b
     e0c:	41646f68 	cmnmi	r4, r8, ror #30
     e10:	6c614300 	stclvs	3, cr4, [r1], #-0
     e14:	6174536c 	cmnvs	r4, ip, ror #6
     e18:	43636974 	cmnmi	r3, #116, 18	; 0x1d0000
     e1c:	4d726168 	ldfmie	f6, [r2, #-416]!	; 0xfffffe60
     e20:	6f687465 	svcvs	0x00687465
     e24:	61430064 	cmpvs	r3, r4, rrx
     e28:	74536c6c 	ldrbvc	r6, [r3], #-3180	; 0xfffff394
     e2c:	63697461 	cmnvs	r9, #1627389952	; 0x61000000
     e30:	72616843 	rsbvc	r6, r1, #4390912	; 0x430000
     e34:	6874654d 	ldmdavs	r4!, {r0, r2, r3, r6, r8, sl, sp, lr}^
     e38:	0056646f 	subseq	r6, r6, pc, ror #8
     e3c:	6c6c6143 	stfvse	f6, [ip], #-268	; 0xfffffef4
     e40:	74617453 	strbtvc	r7, [r1], #-1107	; 0xfffffbad
     e44:	68436369 	stmdavs	r3, {r0, r3, r5, r6, r8, r9, sp, lr}^
     e48:	654d7261 	strbvs	r7, [sp, #-609]	; 0xfffffd9f
     e4c:	646f6874 	strbtvs	r6, [pc], #-2164	; e54 <testParameter+0x14c>
     e50:	61430041 	cmpvs	r3, r1, asr #32
     e54:	74536c6c 	ldrbvc	r6, [r3], #-3180	; 0xfffff394
     e58:	63697461 	cmnvs	r9, #1627389952	; 0x61000000
     e5c:	726f6853 	rsbvc	r6, pc, #5439488	; 0x530000
     e60:	74654d74 	strbtvc	r4, [r5], #-3444	; 0xfffff28c
     e64:	00646f68 	rsbeq	r6, r4, r8, ror #30
     e68:	6c6c6143 	stfvse	f6, [ip], #-268	; 0xfffffef4
     e6c:	74617453 	strbtvc	r7, [r1], #-1107	; 0xfffffbad
     e70:	68536369 	ldmdavs	r3, {r0, r3, r5, r6, r8, r9, sp, lr}^
     e74:	4d74726f 	lfmmi	f7, 2, [r4, #-444]!	; 0xfffffe44
     e78:	6f687465 	svcvs	0x00687465
     e7c:	43005664 	movwmi	r5, #1636	; 0x664
     e80:	536c6c61 	cmnpl	ip, #24832	; 0x6100
     e84:	69746174 	ldmdbvs	r4!, {r2, r4, r5, r6, r8, sp, lr}^
     e88:	6f685363 	svcvs	0x00685363
     e8c:	654d7472 	strbvs	r7, [sp, #-1138]	; 0xfffffb8e
     e90:	646f6874 	strbtvs	r6, [pc], #-2164	; e98 <testParameter+0x190>
     e94:	61430041 	cmpvs	r3, r1, asr #32
     e98:	74536c6c 	ldrbvc	r6, [r3], #-3180	; 0xfffff394
     e9c:	63697461 	cmnvs	r9, #1627389952	; 0x61000000
     ea0:	4d746e49 	ldclmi	14, cr6, [r4, #-292]!	; 0xfffffedc
     ea4:	6f687465 	svcvs	0x00687465
     ea8:	61430064 	cmpvs	r3, r4, rrx
     eac:	74536c6c 	ldrbvc	r6, [r3], #-3180	; 0xfffff394
     eb0:	63697461 	cmnvs	r9, #1627389952	; 0x61000000
     eb4:	4d746e49 	ldclmi	14, cr6, [r4, #-292]!	; 0xfffffedc
     eb8:	6f687465 	svcvs	0x00687465
     ebc:	43005664 	movwmi	r5, #1636	; 0x664
     ec0:	536c6c61 	cmnpl	ip, #24832	; 0x6100
     ec4:	69746174 	ldmdbvs	r4!, {r2, r4, r5, r6, r8, sp, lr}^
     ec8:	746e4963 	strbtvc	r4, [lr], #-2403	; 0xfffff69d
     ecc:	6874654d 	ldmdavs	r4!, {r0, r2, r3, r6, r8, sl, sp, lr}^
     ed0:	0041646f 	subeq	r6, r1, pc, ror #8
     ed4:	6c6c6143 	stfvse	f6, [ip], #-268	; 0xfffffef4
     ed8:	74617453 	strbtvc	r7, [r1], #-1107	; 0xfffffbad
     edc:	6f4c6369 	svcvs	0x004c6369
     ee0:	654d676e 	strbvs	r6, [sp, #-1902]	; 0xfffff892
     ee4:	646f6874 	strbtvs	r6, [pc], #-2164	; eec <testParameter+0x1e4>
     ee8:	6c614300 	stclvs	3, cr4, [r1], #-0
     eec:	6174536c 	cmnvs	r4, ip, ror #6
     ef0:	4c636974 			; <UNDEFINED> instruction: 0x4c636974
     ef4:	4d676e6f 	stclmi	14, cr6, [r7, #-444]!	; 0xfffffe44
     ef8:	6f687465 	svcvs	0x00687465
     efc:	43005664 	movwmi	r5, #1636	; 0x664
     f00:	536c6c61 	cmnpl	ip, #24832	; 0x6100
     f04:	69746174 	ldmdbvs	r4!, {r2, r4, r5, r6, r8, sp, lr}^
     f08:	6e6f4c63 	cdpvs	12, 6, cr4, cr15, cr3, {3}
     f0c:	74654d67 	strbtvc	r4, [r5], #-3431	; 0xfffff299
     f10:	41646f68 	cmnmi	r4, r8, ror #30
     f14:	6c614300 	stclvs	3, cr4, [r1], #-0
     f18:	6174536c 	cmnvs	r4, ip, ror #6
     f1c:	46636974 			; <UNDEFINED> instruction: 0x46636974
     f20:	74616f6c 	strbtvc	r6, [r1], #-3948	; 0xfffff094
     f24:	6874654d 	ldmdavs	r4!, {r0, r2, r3, r6, r8, sl, sp, lr}^
     f28:	4300646f 	movwmi	r6, #1135	; 0x46f
     f2c:	536c6c61 	cmnpl	ip, #24832	; 0x6100
     f30:	69746174 	ldmdbvs	r4!, {r2, r4, r5, r6, r8, sp, lr}^
     f34:	6f6c4663 	svcvs	0x006c4663
     f38:	654d7461 	strbvs	r7, [sp, #-1121]	; 0xfffffb9f
     f3c:	646f6874 	strbtvs	r6, [pc], #-2164	; f44 <testParameter+0x23c>
     f40:	61430056 	qdaddvs	r0, r6, r3
     f44:	74536c6c 	ldrbvc	r6, [r3], #-3180	; 0xfffff394
     f48:	63697461 	cmnvs	r9, #1627389952	; 0x61000000
     f4c:	616f6c46 	cmnvs	pc, r6, asr #24
     f50:	74654d74 	strbtvc	r4, [r5], #-3444	; 0xfffff28c
     f54:	41646f68 	cmnmi	r4, r8, ror #30
     f58:	6c614300 	stclvs	3, cr4, [r1], #-0
     f5c:	6174536c 	cmnvs	r4, ip, ror #6
     f60:	44636974 	strbtmi	r6, [r3], #-2420	; 0xfffff68c
     f64:	6c62756f 	cfstr64vs	mvdx7, [r2], #-444	; 0xfffffe44
     f68:	74654d65 	strbtvc	r4, [r5], #-3429	; 0xfffff29b
     f6c:	00646f68 	rsbeq	r6, r4, r8, ror #30
     f70:	6c6c6143 	stfvse	f6, [ip], #-268	; 0xfffffef4
     f74:	74617453 	strbtvc	r7, [r1], #-1107	; 0xfffffbad
     f78:	6f446369 	svcvs	0x00446369
     f7c:	656c6275 	strbvs	r6, [ip, #-629]!	; 0xfffffd8b
     f80:	6874654d 	ldmdavs	r4!, {r0, r2, r3, r6, r8, sl, sp, lr}^
     f84:	0056646f 	subseq	r6, r6, pc, ror #8
     f88:	6c6c6143 	stfvse	f6, [ip], #-268	; 0xfffffef4
     f8c:	74617453 	strbtvc	r7, [r1], #-1107	; 0xfffffbad
     f90:	6f446369 	svcvs	0x00446369
     f94:	656c6275 	strbvs	r6, [ip, #-629]!	; 0xfffffd8b
     f98:	6874654d 	ldmdavs	r4!, {r0, r2, r3, r6, r8, sl, sp, lr}^
     f9c:	0041646f 	subeq	r6, r1, pc, ror #8
     fa0:	6c6c6143 	stfvse	f6, [ip], #-268	; 0xfffffef4
     fa4:	74617453 	strbtvc	r7, [r1], #-1107	; 0xfffffbad
     fa8:	6f566369 	svcvs	0x00566369
     fac:	654d6469 	strbvs	r6, [sp, #-1129]	; 0xfffffb97
     fb0:	646f6874 	strbtvs	r6, [pc], #-2164	; fb8 <testParameter+0x2b0>
     fb4:	6c614300 	stclvs	3, cr4, [r1], #-0
     fb8:	6174536c 	cmnvs	r4, ip, ror #6
     fbc:	56636974 			; <UNDEFINED> instruction: 0x56636974
     fc0:	4d64696f 			; <UNDEFINED> instruction: 0x4d64696f
     fc4:	6f687465 	svcvs	0x00687465
     fc8:	43005664 	movwmi	r5, #1636	; 0x664
     fcc:	536c6c61 	cmnpl	ip, #24832	; 0x6100
     fd0:	69746174 	ldmdbvs	r4!, {r2, r4, r5, r6, r8, sp, lr}^
     fd4:	696f5663 	stmdbvs	pc!, {r0, r1, r5, r6, r9, sl, ip, lr}^	; <UNPREDICTABLE>
     fd8:	74654d64 	strbtvc	r4, [r5], #-3428	; 0xfffff29c
     fdc:	41646f68 	cmnmi	r4, r8, ror #30
     fe0:	74654700 	strbtvc	r4, [r5], #-1792	; 0xfffff900
     fe4:	74617453 	strbtvc	r7, [r1], #-1107	; 0xfffffbad
     fe8:	69466369 	stmdbvs	r6, {r0, r3, r5, r6, r8, r9, sp, lr}^
     fec:	49646c65 	stmdbmi	r4!, {r0, r2, r5, r6, sl, fp, sp, lr}^
     ff0:	65470044 	strbvs	r0, [r7, #-68]	; 0xffffffbc
     ff4:	61745374 	cmnvs	r4, r4, ror r3
    return;
     ff8:	4f636974 	svcmi	0x00636974
     ffc:	63656a62 	cmnvs	r5, #401408	; 0x62000
    1000:	65694674 	strbvs	r4, [r9, #-1652]!	; 0xfffff98c
    1004:	4700646c 	strmi	r6, [r0, -ip, ror #8]
    1008:	74537465 	ldrbvc	r7, [r3], #-1125	; 0xfffffb9b
{
    100c:	63697461 	cmnvs	r9, #1627389952	; 0x61000000
    1010:	6c6f6f42 	stclvs	15, cr6, [pc], #-264	; f10 <testParameter+0x208>
    int *p = NULL;
    1014:	466e6165 	strbtmi	r6, [lr], -r5, ror #2
    *p = 10;
    1018:	646c6569 	strbtvs	r6, [ip], #-1385	; 0xfffffa97
    LOGE("Fun : %s, Line : %d", __FUNCTION__, __LINE__ );
    101c:	74654700 	strbtvc	r4, [r5], #-1792	; 0xfffff900
    1020:	74617453 	strbtvc	r7, [r1], #-1107	; 0xfffffbad
    1024:	79426369 	stmdbvc	r2, {r0, r3, r5, r6, r8, r9, sp, lr}^
    1028:	69466574 	stmdbvs	r6, {r2, r4, r5, r6, r8, sl, sp, lr}^
    102c:	00646c65 	rsbeq	r6, r4, r5, ror #24
    1030:	53746547 	cmnpl	r4, #297795584	; 0x11c00000
    1034:	69746174 	ldmdbvs	r4!, {r2, r4, r5, r6, r8, sp, lr}^
    1038:	61684363 	cmnvs	r8, r3, ror #6
    103c:	65694672 	strbvs	r4, [r9, #-1650]!	; 0xfffff98e
    1040:	4700646c 	strmi	r6, [r0, -ip, ror #8]
    1044:	74537465 	ldrbvc	r7, [r3], #-1125	; 0xfffffb9b
}
    1048:	63697461 	cmnvs	r9, #1627389952	; 0x61000000
    104c:	726f6853 	rsbvc	r6, pc, #5439488	; 0x530000
    1050:	65694674 	strbvs	r4, [r9, #-1652]!	; 0xfffff98c
    1054:	4700646c 	strmi	r6, [r0, -ip, ror #8]
    1058:	74537465 	ldrbvc	r7, [r3], #-1125	; 0xfffffb9b
{
    105c:	63697461 	cmnvs	r9, #1627389952	; 0x61000000
    1060:	46746e49 	ldrbtmi	r6, [r4], -r9, asr #28
    1064:	646c6569 	strbtvs	r6, [ip], #-1385	; 0xfffffa97
    pdata[0] = 'a';
    1068:	74654700 	strbtvc	r4, [r5], #-1792	; 0xfffff900
    LOGE("Fun : %s, Line : %d", __FUNCTION__, __LINE__ );
    106c:	74617453 	strbtvc	r7, [r1], #-1107	; 0xfffffbad
    1070:	6f4c6369 	svcvs	0x004c6369
    1074:	6946676e 	stmdbvs	r6, {r1, r2, r3, r5, r6, r8, r9, sl, sp, lr}^
    1078:	00646c65 	rsbeq	r6, r4, r5, ror #24
    107c:	53746547 	cmnpl	r4, #297795584	; 0x11c00000
    1080:	69746174 	ldmdbvs	r4!, {r2, r4, r5, r6, r8, sp, lr}^
    1084:	6f6c4663 	svcvs	0x006c4663
    1088:	69467461 	stmdbvs	r6, {r0, r5, r6, sl, ip, sp, lr}^
    108c:	00646c65 	rsbeq	r6, r4, r5, ror #24
    1090:	53746547 	cmnpl	r4, #297795584	; 0x11c00000
}
    1094:	69746174 	ldmdbvs	r4!, {r2, r4, r5, r6, r8, sp, lr}^
    1098:	756f4463 	strbvc	r4, [pc, #-1123]!	; c3d <testProperties+0xad>
    109c:	46656c62 	strbtmi	r6, [r5], -r2, ror #24
    10a0:	646c6569 	strbtvs	r6, [ip], #-1385	; 0xfffffa97
{
    10a4:	74655300 	strbtvc	r5, [r5], #-768	; 0xfffffd00
    10a8:	74617453 	strbtvc	r7, [r1], #-1107	; 0xfffffbad
    10ac:	624f6369 	subvs	r6, pc, #-1543503871	; 0xa4000001
    10b0:	7463656a 	strbtvc	r6, [r3], #-1386	; 0xfffffa96
    int result = 0;
    10b4:	6c656946 			; <UNDEFINED> instruction: 0x6c656946
    result = system("mkdir /data/data/com.bar.hellojni/temp");
    10b8:	65530064 	ldrbvs	r0, [r3, #-100]	; 0xffffff9c
    10bc:	61745374 	cmnvs	r4, r4, ror r3
    10c0:	42636974 	rsbmi	r6, r3, #116, 18	; 0x1d0000
    if( -1 == result || 127 == result )
    10c4:	656c6f6f 	strbvs	r6, [ip, #-3951]!	; 0xfffff091
    10c8:	69466e61 	stmdbvs	r6, {r0, r5, r6, r9, sl, fp, sp, lr}^
    10cc:	00646c65 	rsbeq	r6, r4, r5, ror #24
    10d0:	53746553 	cmnpl	r4, #348127232	; 0x14c00000
    10d4:	69746174 	ldmdbvs	r4!, {r2, r4, r5, r6, r8, sp, lr}^
        LOGE("error");
    10d8:	74794263 	ldrbtvc	r4, [r9], #-611	; 0xfffffd9d
    10dc:	65694665 	strbvs	r4, [r9, #-1637]!	; 0xfffff99b
    10e0:	5300646c 	movwpl	r6, #1132	; 0x46c
    10e4:	74537465 	ldrbvc	r7, [r3], #-1125	; 0xfffffb9b
    10e8:	63697461 	cmnvs	r9, #1627389952	; 0x61000000
    10ec:	72616843 	rsbvc	r6, r1, #4390912	; 0x430000
    }
    10f0:	6c656946 			; <UNDEFINED> instruction: 0x6c656946
    10f4:	65530064 	ldrbvs	r0, [r3, #-100]	; 0xffffff9c
    testString(NULL);
    10f8:	61745374 	cmnvs	r4, r4, ror r3
    willCrash();
    10fc:	53636974 	cmnpl	r3, #116, 18	; 0x1d0000
    pid_t pid = getpid();
    1100:	74726f68 	ldrbtvc	r6, [r2], #-3944	; 0xfffff098
    uid_t uid = getuid();
    1104:	6c656946 			; <UNDEFINED> instruction: 0x6c656946
    1108:	65530064 	ldrbvs	r0, [r3, #-100]	; 0xffffff9c
    testNoPara();
    110c:	61745374 	cmnvs	r4, r4, ror r3
    testOnePara(2);
    1110:	49636974 	stmdbmi	r3!, {r2, r4, r5, r6, r8, fp, sp, lr}^
    1114:	6946746e 	stmdbvs	r6, {r1, r2, r3, r5, r6, sl, ip, sp, lr}^
    testParameter(1, 2, 3, 4, 5, 6, 7, 8, 9, 10,
    1118:	00646c65 	rsbeq	r6, r4, r5, ror #24
    111c:	53746553 	cmnpl	r4, #348127232	; 0x14c00000
    1120:	69746174 	ldmdbvs	r4!, {r2, r4, r5, r6, r8, sp, lr}^
    1124:	6e6f4c63 	cdpvs	12, 6, cr4, cr15, cr3, {3}
    1128:	65694667 	strbvs	r4, [r9, #-1639]!	; 0xfffff999
    112c:	5300646c 	movwpl	r6, #1132	; 0x46c
    1130:	74537465 	ldrbvc	r7, [r3], #-1125	; 0xfffffb9b
    1134:	63697461 	cmnvs	r9, #1627389952	; 0x61000000
    1138:	616f6c46 	cmnvs	pc, r6, asr #24
    113c:	65694674 	strbvs	r4, [r9, #-1652]!	; 0xfffff98c
    1140:	5300646c 	movwpl	r6, #1132	; 0x46c
    1144:	74537465 	ldrbvc	r7, [r3], #-1125	; 0xfffffb9b
    1148:	63697461 	cmnvs	r9, #1627389952	; 0x61000000
    114c:	62756f44 	rsbsvs	r6, r5, #68, 30	; 0x110
    1150:	6946656c 	stmdbvs	r6, {r2, r3, r5, r6, r8, sl, sp, lr}^
    1154:	00646c65 	rsbeq	r6, r4, r5, ror #24
    1158:	5377654e 	cmnpl	r7, #327155712	; 0x13800000
    115c:	6e697274 	mcrvs	2, 3, r7, cr9, cr4, {3}
    1160:	65470067 	strbvs	r0, [r7, #-103]	; 0xffffff99
    1164:	72745374 	rsbsvc	r5, r4, #116, 6	; 0xd0000001
    1168:	4c676e69 	stclmi	14, cr6, [r7], #-420	; 0xfffffe5c
    116c:	74676e65 	strbtvc	r6, [r7], #-3685	; 0xfffff19b
    1170:	65470068 	strbvs	r0, [r7, #-104]	; 0xffffff98
    1174:	72745374 	rsbsvc	r5, r4, #116, 6	; 0xd0000001
    1178:	43676e69 	cmnmi	r7, #1680	; 0x690
    117c:	73726168 	cmnvc	r2, #104, 2
    1180:	6c655200 	sfmvs	f5, 2, [r5], #-0
    1184:	65736165 	ldrbvs	r6, [r3, #-357]!	; 0xfffffe9b
    1188:	69727453 	ldmdbvs	r2!, {r0, r1, r4, r6, sl, ip, sp, lr}^
    118c:	6843676e 	stmdavs	r3, {r1, r2, r3, r5, r6, r8, r9, sl, sp, lr}^
    1190:	00737261 	rsbseq	r7, r3, r1, ror #4
    1194:	5377654e 	cmnpl	r7, #327155712	; 0x13800000
    1198:	6e697274 	mcrvs	2, 3, r7, cr9, cr4, {3}
    119c:	46545567 	ldrbmi	r5, [r4], -r7, ror #10
    11a0:	74654700 	strbtvc	r4, [r5], #-1792	; 0xfffff900
    11a4:	69727453 	ldmdbvs	r2!, {r0, r1, r4, r6, sl, ip, sp, lr}^
    11a8:	5455676e 	ldrbpl	r6, [r5], #-1902	; 0xfffff892
    11ac:	6e654c46 	cdpvs	12, 6, cr4, cr5, cr6, {2}
    11b0:	00687467 	rsbeq	r7, r8, r7, ror #8
    11b4:	53746547 	cmnpl	r4, #297795584	; 0x11c00000
    11b8:	6e697274 	mcrvs	2, 3, r7, cr9, cr4, {3}
    11bc:	46545567 	ldrbmi	r5, [r4], -r7, ror #10
    11c0:	72616843 	rsbvc	r6, r1, #4390912	; 0x430000
    11c4:	65520073 	ldrbvs	r0, [r2, #-115]	; 0xffffff8d
    11c8:	7361656c 	cmnvc	r1, #108, 10	; 0x1b000000
    11cc:	72745365 	rsbsvc	r5, r4, #-1811939327	; 0x94000001
    11d0:	55676e69 	strbpl	r6, [r7, #-3689]!	; 0xfffff197
    11d4:	68434654 	stmdavs	r3, {r2, r4, r6, r9, sl, lr}^
    11d8:	00737261 	rsbseq	r7, r3, r1, ror #4
    11dc:	41746547 	cmnmi	r4, r7, asr #10
    11e0:	79617272 	stmdbvc	r1!, {r1, r4, r5, r6, r9, ip, sp, lr}^
    11e4:	676e654c 	strbvs	r6, [lr, -ip, asr #10]!
    11e8:	6a006874 	bvs	1b3c0 <_end+0x173b8>
    11ec:	61727261 	cmnvs	r2, r1, ror #4
    11f0:	654e0079 	strbvs	r0, [lr, #-121]	; 0xffffff87
    11f4:	6a624f77 	bvs	1894fd8 <_end+0x1890fd0>
    11f8:	41746365 	cmnmi	r4, r5, ror #6
    11fc:	79617272 	stmdbvc	r1!, {r1, r4, r5, r6, r9, ip, sp, lr}^
    1200:	626f6a00 	rsbvs	r6, pc, #0, 20
    1204:	7463656a 	strbtvc	r6, [r3], #-1386	; 0xfffffa96
    1208:	61727241 	cmnvs	r2, r1, asr #4
    120c:	65470079 	strbvs	r0, [r7, #-121]	; 0xffffff87
    1210:	6a624f74 	bvs	1894fe8 <_end+0x1890fe0>
    1214:	41746365 	cmnmi	r4, r5, ror #6
    1218:	79617272 	stmdbvc	r1!, {r1, r4, r5, r6, r9, ip, sp, lr}^
    121c:	6d656c45 	stclvs	12, cr6, [r5, #-276]!	; 0xfffffeec
    1220:	00746e65 	rsbseq	r6, r4, r5, ror #28
    1224:	4f746553 	svcmi	0x00746553
    1228:	63656a62 	cmnvs	r5, #401408	; 0x62000
    122c:	72724174 	rsbsvc	r4, r2, #116, 2
    1230:	6c457961 	mcrrvs	9, 6, r7, r5, cr1	; <UNPREDICTABLE>
    1234:	6e656d65 	cdpvs	13, 6, cr6, cr5, cr5, {3}
    1238:	654e0074 	strbvs	r0, [lr, #-116]	; 0xffffff8c
    123c:	6f6f4277 	svcvs	0x006f4277
    1240:	6e61656c 	cdpvs	5, 6, cr6, cr1, cr12, {3}
    1244:	61727241 	cmnvs	r2, r1, asr #4
    1248:	626a0079 	rsbvs	r0, sl, #121	; 0x79
    124c:	656c6f6f 	strbvs	r6, [ip, #-3951]!	; 0xfffff091
    1250:	72416e61 	subvc	r6, r1, #1552	; 0x610
    1254:	00796172 	rsbseq	r6, r9, r2, ror r1
    1258:	4277654e 	rsbsmi	r6, r7, #327155712	; 0x13800000
    125c:	41657479 	smcmi	22345	; 0x5749
    1260:	79617272 	stmdbvc	r1!, {r1, r4, r5, r6, r9, ip, sp, lr}^
    1264:	79626a00 	stmdbvc	r2!, {r9, fp, sp, lr}^
    1268:	72416574 	subvc	r6, r1, #116, 10	; 0x1d000000
    126c:	00796172 	rsbseq	r6, r9, r2, ror r1
    1270:	4377654e 	cmnmi	r7, #327155712	; 0x13800000
    1274:	41726168 	cmnmi	r2, r8, ror #2
    1278:	79617272 	stmdbvc	r1!, {r1, r4, r5, r6, r9, ip, sp, lr}^
    127c:	68636a00 	stmdavs	r3!, {r9, fp, sp, lr}^
    1280:	72417261 	subvc	r7, r1, #268435462	; 0x10000006
    1284:	00796172 	rsbseq	r6, r9, r2, ror r1
    1288:	5377654e 	cmnpl	r7, #327155712	; 0x13800000
    128c:	74726f68 	ldrbtvc	r6, [r2], #-3944	; 0xfffff098
    1290:	61727241 	cmnvs	r2, r1, asr #4
    char *username = getlogin();
    1294:	736a0079 	cmnvc	sl, #121	; 0x79
    1298:	74726f68 	ldrbtvc	r6, [r2], #-3944	; 0xfffff098
    LOGE("F:%s,%s", __FUNCTION__, username);
    129c:	61727241 	cmnvs	r2, r1, asr #4
    12a0:	654e0079 	strbvs	r0, [lr, #-121]	; 0xffffff87
    12a4:	746e4977 	strbtvc	r4, [lr], #-2423	; 0xfffff689
    12a8:	61727241 	cmnvs	r2, r1, asr #4
    12ac:	696a0079 	stmdbvs	sl!, {r0, r3, r4, r5, r6}^
    12b0:	7241746e 	subvc	r7, r1, #1845493760	; 0x6e000000
    12b4:	00796172 	rsbseq	r6, r9, r2, ror r1
    12b8:	4c77654e 	cfldr64mi	mvdx6, [r7], #-312	; 0xfffffec8
    12bc:	41676e6f 	cmnmi	r7, pc, ror #28
    12c0:	79617272 	stmdbvc	r1!, {r1, r4, r5, r6, r9, ip, sp, lr}^
    12c4:	6f6c6a00 	svcvs	0x006c6a00
}
    12c8:	7241676e 	subvc	r6, r1, #28835840	; 0x1b80000
    12cc:	00796172 	rsbseq	r6, r9, r2, ror r1
    12d0:	4677654e 	ldrbtmi	r6, [r7], -lr, asr #10
    12d4:	74616f6c 	strbtvc	r6, [r1], #-3948	; 0xfffff094
    12d8:	61727241 	cmnvs	r2, r1, asr #4
    12dc:	666a0079 			; <UNDEFINED> instruction: 0x666a0079
    12e0:	74616f6c 	strbtvc	r6, [r1], #-3948	; 0xfffff094
    12e4:	61727241 	cmnvs	r2, r1, asr #4
{
    12e8:	654e0079 	strbvs	r0, [lr, #-121]	; 0xffffff87
    12ec:	756f4477 	strbvc	r4, [pc, #-1143]!	; e7d <testParameter+0x175>
    12f0:	41656c62 	cmnmi	r5, r2, ror #24
    12f4:	79617272 	stmdbvc	r1!, {r1, r4, r5, r6, r9, ip, sp, lr}^
    LOGE(__FUNCTION__);
    12f8:	6f646a00 	svcvs	0x00646a00
    12fc:	656c6275 	strbvs	r6, [ip, #-629]!	; 0xfffffd8b
    1300:	61727241 	cmnvs	r2, r1, asr #4
    1304:	65470079 	strbvs	r0, [r7, #-121]	; 0xffffff87
    1308:	6f6f4274 	svcvs	0x006f4274
    130c:	6e61656c 	cdpvs	5, 6, cr6, cr1, cr12, {3}
    1310:	61727241 	cmnvs	r2, r1, asr #4
    1314:	656c4579 	strbvs	r4, [ip, #-1401]!	; 0xfffffa87
    1318:	746e656d 	strbtvc	r6, [lr], #-1389	; 0xfffffa93
    if( JNI_OK == (*env)->MonitorEnter(env, thiz)){
    131c:	65470073 	strbvs	r0, [r7, #-115]	; 0xffffff8d
    1320:	74794274 	ldrbtvc	r4, [r9], #-628	; 0xfffffd8c
    1324:	72724165 	rsbsvc	r4, r2, #1073741849	; 0x40000019
    1328:	6c457961 	mcrrvs	9, 6, r7, r5, cr1	; <UNPREDICTABLE>
    132c:	6e656d65 	cdpvs	13, 6, cr6, cr5, cr5, {3}
    1330:	47007374 	smlsdxmi	r0, r4, r3, r7
        LOGE("MonitorEnterr");
    1334:	68437465 	stmdavs	r3, {r0, r2, r5, r6, sl, ip, sp, lr}^
    1338:	72417261 	subvc	r7, r1, #268435462	; 0x10000006
    133c:	45796172 	ldrbmi	r6, [r9, #-370]!	; 0xfffffe8e
    1340:	656d656c 	strbvs	r6, [sp, #-1388]!	; 0xfffffa94
    1344:	0073746e 	rsbseq	r7, r3, lr, ror #8
    1348:	53746547 	cmnpl	r4, #297795584	; 0x11c00000
    134c:	74726f68 	ldrbtvc	r6, [r2], #-3944	; 0xfffff098
    }
    1350:	61727241 	cmnvs	r2, r1, asr #4
    int result = 0;
    1354:	656c4579 	strbvs	r4, [ip, #-1401]!	; 0xfffffa87
    result = system("mkdir /data/data/com.bar.hellojni/temp");
    1358:	746e656d 	strbtvc	r6, [lr], #-1389	; 0xfffffa93
    135c:	65470073 	strbvs	r0, [r7, #-115]	; 0xffffff8d
    if( -1 == result || 127 == result )
    1360:	746e4974 	strbtvc	r4, [lr], #-2420	; 0xfffff68c
    1364:	61727241 	cmnvs	r2, r1, asr #4
    1368:	656c4579 	strbvs	r4, [ip, #-1401]!	; 0xfffffa87
    136c:	746e656d 	strbtvc	r6, [lr], #-1389	; 0xfffffa93
    1370:	65470073 	strbvs	r0, [r7, #-115]	; 0xffffff8d
        LOGE("error");
    1374:	6e6f4c74 	mcrvs	12, 3, r4, cr15, cr4, {3}
    1378:	72724167 	rsbsvc	r4, r2, #-1073741799	; 0xc0000019
    137c:	6c457961 	mcrrvs	9, 6, r7, r5, cr1	; <UNPREDICTABLE>
    1380:	6e656d65 	cdpvs	13, 6, cr6, cr5, cr5, {3}
    1384:	47007374 	smlsdxmi	r0, r4, r3, r7
    1388:	6c467465 	cfstrdvs	mvd7, [r6], {101}	; 0x65
    }
    138c:	4174616f 	cmnmi	r4, pc, ror #2
    pid_t pid = getpid();
    1390:	79617272 	stmdbvc	r1!, {r1, r4, r5, r6, r9, ip, sp, lr}^
    1394:	6d656c45 	stclvs	12, cr6, [r5, #-276]!	; 0xfffffeec
    uid_t uid = getuid();
    1398:	73746e65 	cmnvc	r4, #1616	; 0x650
    char *username = getlogin();
    139c:	74654700 	strbtvc	r4, [r5], #-1792	; 0xfffff900
    13a0:	62756f44 	rsbsvs	r6, r5, #68, 30	; 0x110
    LOGE("%s", username);
    13a4:	7241656c 	subvc	r6, r1, #108, 10	; 0x1b000000
    13a8:	45796172 	ldrbmi	r6, [r9, #-370]!	; 0xfffffe8e
    13ac:	656d656c 	strbvs	r6, [sp, #-1388]!	; 0xfffffa94
    13b0:	0073746e 	rsbseq	r7, r3, lr, ror #8
    13b4:	656c6552 	strbvs	r6, [ip, #-1362]!	; 0xfffffaae
    13b8:	42657361 	rsbmi	r7, r5, #-2080374783	; 0x84000001
    if(JNI_OK == (*env)->MonitorExit(env, thiz)){
    13bc:	656c6f6f 	strbvs	r6, [ip, #-3951]!	; 0xfffff091
    13c0:	72416e61 	subvc	r6, r1, #1552	; 0x610
    13c4:	45796172 	ldrbmi	r6, [r9, #-370]!	; 0xfffffe8e
    13c8:	656d656c 	strbvs	r6, [sp, #-1388]!	; 0xfffffa94
    13cc:	0073746e 	rsbseq	r7, r3, lr, ror #8
    13d0:	656c6552 	strbvs	r6, [ip, #-1362]!	; 0xfffffaae
        LOGE("MonitorExit");
    13d4:	42657361 	rsbmi	r7, r5, #-2080374783	; 0x84000001
    13d8:	41657479 	smcmi	22345	; 0x5749
    13dc:	79617272 	stmdbvc	r1!, {r1, r4, r5, r6, r9, ip, sp, lr}^
    13e0:	6d656c45 	stclvs	12, cr6, [r5, #-276]!	; 0xfffffeec
    13e4:	73746e65 	cmnvc	r4, #1616	; 0x650
    13e8:	6c655200 	sfmvs	f5, 2, [r5], #-0
    13ec:	65736165 	ldrbvs	r6, [r3, #-357]!	; 0xfffffe9b
    }
    13f0:	72616843 	rsbvc	r6, r1, #4390912	; 0x430000
    return (*env)->NewStringUTF(env, "Hello from JNI !  Compiled with ABI " ABI ".");
    13f4:	61727241 	cmnvs	r2, r1, asr #4
    13f8:	656c4579 	strbvs	r4, [ip, #-1401]!	; 0xfffffa87
    13fc:	746e656d 	strbtvc	r6, [lr], #-1389	; 0xfffffa93
    1400:	65520073 	ldrbvs	r0, [r2, #-115]	; 0xffffff8d
    1404:	7361656c 	cmnvc	r1, #108, 10	; 0x1b000000
    1408:	6f685365 	svcvs	0x00685365
    140c:	72417472 	subvc	r7, r1, #1912602624	; 0x72000000
    1410:	45796172 	ldrbmi	r6, [r9, #-370]!	; 0xfffffe8e
    1414:	656d656c 	strbvs	r6, [sp, #-1388]!	; 0xfffffa94
    1418:	0073746e 	rsbseq	r7, r3, lr, ror #8
    141c:	656c6552 	strbvs	r6, [ip, #-1362]!	; 0xfffffaae
    1420:	49657361 	stmdbmi	r5!, {r0, r5, r6, r8, r9, ip, sp, lr}^
    1424:	7241746e 	subvc	r7, r1, #1845493760	; 0x6e000000
    1428:	45796172 	ldrbmi	r6, [r9, #-370]!	; 0xfffffe8e
    142c:	656d656c 	strbvs	r6, [sp, #-1388]!	; 0xfffffa94
    1430:	0073746e 	rsbseq	r7, r3, lr, ror #8
    1434:	656c6552 	strbvs	r6, [ip, #-1362]!	; 0xfffffaae
    1438:	4c657361 	stclmi	3, cr7, [r5], #-388	; 0xfffffe7c
{
    143c:	41676e6f 	cmnmi	r7, pc, ror #28
    1440:	79617272 	stmdbvc	r1!, {r1, r4, r5, r6, r9, ip, sp, lr}^
    1444:	6d656c45 	stclvs	12, cr6, [r5, #-276]!	; 0xfffffeec
    1448:	73746e65 	cmnvc	r4, #1616	; 0x650
    return (*env)->NewStringUTF(env, "stringFromJNI_11");
    144c:	6c655200 	sfmvs	f5, 2, [r5], #-0
    1450:	65736165 	ldrbvs	r6, [r3, #-357]!	; 0xfffffe9b
    1454:	616f6c46 	cmnvs	pc, r6, asr #24
    1458:	72724174 	rsbsvc	r4, r2, #116, 2
    145c:	6c457961 	mcrrvs	9, 6, r7, r5, cr1	; <UNPREDICTABLE>
    1460:	6e656d65 	cdpvs	13, 6, cr6, cr5, cr5, {3}
    1464:	52007374 	andpl	r7, r0, #116, 6	; 0xd0000001
    1468:	61656c65 	cmnvs	r5, r5, ror #24
    146c:	6f446573 	svcvs	0x00446573
{
    1470:	656c6275 	strbvs	r6, [ip, #-629]!	; 0xfffffd8b
    1474:	61727241 	cmnvs	r2, r1, asr #4
    LOGE(" %s", __FUNCTION__ );
    1478:	656c4579 	strbvs	r4, [ip, #-1401]!	; 0xfffffa87
    147c:	746e656d 	strbtvc	r6, [lr], #-1389	; 0xfffffa93
    1480:	65470073 	strbvs	r0, [r7, #-115]	; 0xffffff8d
    1484:	6f6f4274 	svcvs	0x006f4274
    1488:	6e61656c 	cdpvs	5, 6, cr6, cr1, cr12, {3}
    148c:	61727241 	cmnvs	r2, r1, asr #4
    1490:	67655279 			; <UNDEFINED> instruction: 0x67655279
    1494:	006e6f69 	rsbeq	r6, lr, r9, ror #30
    1498:	42746547 	rsbsmi	r6, r4, #297795584	; 0x11c00000
}
    149c:	41657479 	smcmi	22345	; 0x5749
    14a0:	79617272 	stmdbvc	r1!, {r1, r4, r5, r6, r9, ip, sp, lr}^
    14a4:	69676552 	stmdbvs	r7!, {r1, r4, r6, r8, sl, sp, lr}^
    14a8:	47006e6f 	strmi	r6, [r0, -pc, ror #28]
    14ac:	68437465 	stmdavs	r3, {r0, r2, r5, r6, sl, ip, sp, lr}^
jint JNI_OnLoad( JavaVM* vm, void *reserved){
    14b0:	72417261 	subvc	r7, r1, #268435462	; 0x10000006
    14b4:	52796172 	rsbspl	r6, r9, #-2147483620	; 0x8000001c
    14b8:	6f696765 	svcvs	0x00696765
    gs_jvm = vm;
    14bc:	6547006e 	strbvs	r0, [r7, #-110]	; 0xffffff92
    14c0:	6f685374 	svcvs	0x00685374
    jint result = JNI_VERSION_1_4;
    14c4:	72417472 	subvc	r7, r1, #1912602624	; 0x72000000
    14c8:	52796172 	rsbspl	r6, r9, #-2147483620	; 0x8000001c
    return  result;
    14cc:	6f696765 	svcvs	0x00696765
    14d0:	6547006e 	strbvs	r0, [r7, #-110]	; 0xffffff92
    14d4:	746e4974 	strbtvc	r4, [lr], #-2420	; 0xfffff68c
    14d8:	61727241 	cmnvs	r2, r1, asr #4
    14dc:	67655279 			; <UNDEFINED> instruction: 0x67655279
    14e0:	006e6f69 	rsbeq	r6, lr, r9, ror #30
    14e4:	4c746547 	cfldr64mi	mvdx6, [r4], #-284	; 0xfffffee4
    14e8:	41676e6f 	cmnmi	r7, pc, ror #28
    14ec:	79617272 	stmdbvc	r1!, {r1, r4, r5, r6, r9, ip, sp, lr}^
    14f0:	69676552 	stmdbvs	r7!, {r1, r4, r6, r8, sl, sp, lr}^
    14f4:	47006e6f 	strmi	r6, [r0, -pc, ror #28]
    14f8:	6c467465 	cfstrdvs	mvd7, [r6], {101}	; 0x65
    14fc:	4174616f 	cmnmi	r4, pc, ror #2
    1500:	79617272 	stmdbvc	r1!, {r1, r4, r5, r6, r9, ip, sp, lr}^
    1504:	69676552 	stmdbvs	r7!, {r1, r4, r6, r8, sl, sp, lr}^
    1508:	47006e6f 	strmi	r6, [r0, -pc, ror #28]
    150c:	6f447465 	svcvs	0x00447465
    1510:	656c6275 	strbvs	r6, [ip, #-629]!	; 0xfffffd8b
    1514:	61727241 	cmnvs	r2, r1, asr #4
    1518:	67655279 			; <UNDEFINED> instruction: 0x67655279
    151c:	006e6f69 	rsbeq	r6, lr, r9, ror #30
    1520:	42746553 	rsbsmi	r6, r4, #348127232	; 0x14c00000
    1524:	656c6f6f 	strbvs	r6, [ip, #-3951]!	; 0xfffff091
    1528:	72416e61 	subvc	r6, r1, #1552	; 0x610
    152c:	52796172 	rsbspl	r6, r9, #-2147483620	; 0x8000001c
    1530:	6f696765 	svcvs	0x00696765
    1534:	6553006e 	ldrbvs	r0, [r3, #-110]	; 0xffffff92
    1538:	74794274 	ldrbtvc	r4, [r9], #-628	; 0xfffffd8c
    153c:	72724165 	rsbsvc	r4, r2, #1073741849	; 0x40000019
    1540:	65527961 	ldrbvs	r7, [r2, #-2401]	; 0xfffff69f
    1544:	6e6f6967 	vnmulvs.f16	s13, s30, s15	; <UNPREDICTABLE>
    1548:	74655300 	strbtvc	r5, [r5], #-768	; 0xfffffd00
    154c:	72616843 	rsbvc	r6, r1, #4390912	; 0x430000
    1550:	61727241 	cmnvs	r2, r1, asr #4
    1554:	67655279 			; <UNDEFINED> instruction: 0x67655279
    1558:	006e6f69 	rsbeq	r6, lr, r9, ror #30
    155c:	53746553 	cmnpl	r4, #348127232	; 0x14c00000
    1560:	74726f68 	ldrbtvc	r6, [r2], #-3944	; 0xfffff098
    1564:	61727241 	cmnvs	r2, r1, asr #4
    1568:	67655279 			; <UNDEFINED> instruction: 0x67655279
    156c:	006e6f69 	rsbeq	r6, lr, r9, ror #30
    1570:	49746553 	ldmdbmi	r4!, {r0, r1, r4, r6, r8, sl, sp, lr}^
    1574:	7241746e 	subvc	r7, r1, #1845493760	; 0x6e000000
    1578:	52796172 	rsbspl	r6, r9, #-2147483620	; 0x8000001c
    157c:	6f696765 	svcvs	0x00696765
    1580:	6553006e 	ldrbvs	r0, [r3, #-110]	; 0xffffff92
    1584:	6e6f4c74 	mcrvs	12, 3, r4, cr15, cr4, {3}
    1588:	72724167 	rsbsvc	r4, r2, #-1073741799	; 0xc0000019
    158c:	65527961 	ldrbvs	r7, [r2, #-2401]	; 0xfffff69f
    1590:	6e6f6967 	vnmulvs.f16	s13, s30, s15	; <UNPREDICTABLE>
    1594:	74655300 	strbtvc	r5, [r5], #-768	; 0xfffffd00
    1598:	616f6c46 	cmnvs	pc, r6, asr #24
    159c:	72724174 	rsbsvc	r4, r2, #116, 2
    15a0:	65527961 	ldrbvs	r7, [r2, #-2401]	; 0xfffff69f
    15a4:	6e6f6967 	vnmulvs.f16	s13, s30, s15	; <UNPREDICTABLE>
    15a8:	74655300 	strbtvc	r5, [r5], #-768	; 0xfffffd00
    15ac:	62756f44 	rsbsvs	r6, r5, #68, 30	; 0x110
    15b0:	7241656c 	subvc	r6, r1, #108, 10	; 0x1b000000
    15b4:	52796172 	rsbspl	r6, r9, #-2147483620	; 0x8000001c
    15b8:	6f696765 	svcvs	0x00696765
    15bc:	6552006e 	ldrbvs	r0, [r2, #-110]	; 0xffffff92
    15c0:	74736967 	ldrbtvc	r6, [r3], #-2407	; 0xfffff699
    15c4:	614e7265 	cmpvs	lr, r5, ror #4
    15c8:	65766974 	ldrbvs	r6, [r6, #-2420]!	; 0xfffff68c
    15cc:	69730073 	ldmdbvs	r3!, {r0, r1, r4, r5, r6}^
    15d0:	74616e67 	strbtvc	r6, [r1], #-3687	; 0xfffff199
    15d4:	00657275 	rsbeq	r7, r5, r5, ror r2
    15d8:	74506e66 	ldrbvc	r6, [r0], #-3686	; 0xfffff19a
    15dc:	4e4a0072 	mcrmi	0, 2, r0, cr10, cr2, {3}
    15e0:	74614e49 	strbtvc	r4, [r1], #-3657	; 0xfffff1b7
    15e4:	4d657669 	stclmi	6, cr7, [r5, #-420]!	; 0xfffffe5c
    15e8:	6f687465 	svcvs	0x00687465
    15ec:	6e550064 	cdpvs	0, 5, cr0, cr5, cr4, {3}
    15f0:	69676572 	stmdbvs	r7!, {r1, r4, r5, r6, r8, sl, sp, lr}^
    15f4:	72657473 	rsbvc	r7, r5, #1929379840	; 0x73000000
    15f8:	6974614e 	ldmdbvs	r4!, {r1, r2, r3, r6, r8, sp, lr}^
    15fc:	00736576 	rsbseq	r6, r3, r6, ror r5
    1600:	696e6f4d 	stmdbvs	lr!, {r0, r2, r3, r6, r8, r9, sl, fp, sp, lr}^
    1604:	45726f74 	ldrbmi	r6, [r2, #-3956]!	; 0xfffff08c
    1608:	7265746e 	rsbvc	r7, r5, #1845493760	; 0x6e000000
    160c:	6e6f4d00 	cdpvs	13, 6, cr4, cr15, cr0, {0}
    1610:	726f7469 	rsbvc	r7, pc, #1761607680	; 0x69000000
    1614:	74697845 	strbtvc	r7, [r9], #-2117	; 0xfffff7bb
    1618:	74654700 	strbtvc	r4, [r5], #-1792	; 0xfffff900
    161c:	6176614a 	cmnvs	r6, sl, asr #2
    1620:	44004d56 	strmi	r4, [r0], #-3414	; 0xfffff2aa
    1624:	72747365 	rsbsvc	r7, r4, #-1811939327	; 0x94000001
    1628:	614a796f 	cmpvs	sl, pc, ror #18
    162c:	4d566176 	ldfmie	f6, [r6, #-472]	; 0xfffffe28
    1630:	74744100 	ldrbtvc	r4, [r4], #-256	; 0xffffff00
    1634:	43686361 	cmnmi	r8, #-2080374783	; 0x84000001
    1638:	65727275 	ldrbvs	r7, [r2, #-629]!	; 0xfffffd8b
    163c:	6854746e 	ldmdavs	r4, {r1, r2, r3, r5, r6, sl, ip, sp, lr}^
    1640:	64616572 	strbtvs	r6, [r1], #-1394	; 0xfffffa8e
    1644:	74654400 	strbtvc	r4, [r5], #-1024	; 0xfffffc00
    1648:	43686361 	cmnmi	r8, #-2080374783	; 0x84000001
    164c:	65727275 	ldrbvs	r7, [r2, #-629]!	; 0xfffffd8b
    1650:	6854746e 	ldmdavs	r4, {r1, r2, r3, r5, r6, sl, ip, sp, lr}^
    1654:	64616572 	strbtvs	r6, [r1], #-1394	; 0xfffffa8e
    1658:	74654700 	strbtvc	r4, [r5], #-1792	; 0xfffff900
    165c:	00766e45 	rsbseq	r6, r6, r5, asr #28
    1660:	61747441 	cmnvs	r4, r1, asr #8
    1664:	75436863 	strbvc	r6, [r3, #-2147]	; 0xfffff79d
    1668:	6e657272 	mcrvs	2, 3, r7, cr5, cr2, {3}
    166c:	72685474 	rsbvc	r5, r8, #116, 8	; 0x74000000
    1670:	41646165 	cmnmi	r4, r5, ror #2
    1674:	65614473 	strbvs	r4, [r1, #-1139]!	; 0xfffffb8d
    1678:	006e6f6d 	rsbeq	r6, lr, sp, ror #30
    167c:	49494e4a 	stmdbmi	r9, {r1, r3, r6, r9, sl, fp, lr}^
    1680:	6b6f766e 	blvs	1bdf040 <_end+0x1bdb038>
    1684:	746e4965 	strbtvc	r4, [lr], #-2405	; 0xfffff69b
    1688:	61667265 	cmnvs	r6, r5, ror #4
    168c:	4a006563 	bmi	1ac20 <_end+0x16c18>
    1690:	56617661 	strbtpl	r7, [r1], -r1, ror #12
    1694:	6547004d 	strbvs	r0, [r7, #-77]	; 0xffffffb3
    1698:	72745374 	rsbsvc	r5, r4, #116, 6	; 0xd0000001
    169c:	52676e69 	rsbpl	r6, r7, #1680	; 0x690
    16a0:	6f696765 	svcvs	0x00696765
    16a4:	6547006e 	strbvs	r0, [r7, #-110]	; 0xffffff92
    16a8:	72745374 	rsbsvc	r5, r4, #116, 6	; 0xd0000001
    16ac:	55676e69 	strbpl	r6, [r7, #-3689]!	; 0xfffff197
    16b0:	65524654 	ldrbvs	r4, [r2, #-1620]	; 0xfffff9ac
    16b4:	6e6f6967 	vnmulvs.f16	s13, s30, s15	; <UNPREDICTABLE>
    16b8:	74654700 	strbtvc	r4, [r5], #-1792	; 0xfffff900
    16bc:	6d697250 	sfmvs	f7, 2, [r9, #-320]!	; 0xfffffec0
    16c0:	76697469 	strbtvc	r7, [r9], -r9, ror #8
    16c4:	72724165 	rsbsvc	r4, r2, #1073741849	; 0x40000019
    16c8:	72437961 	subvc	r7, r3, #1589248	; 0x184000
    16cc:	63697469 	cmnvs	r9, #1761607680	; 0x69000000
    16d0:	52006c61 	andpl	r6, r0, #24832	; 0x6100
    16d4:	61656c65 	cmnvs	r5, r5, ror #24
    16d8:	72506573 	subsvc	r6, r0, #482344960	; 0x1cc00000
    16dc:	74696d69 	strbtvc	r6, [r9], #-3433	; 0xfffff297
    16e0:	41657669 	cmnmi	r5, r9, ror #12
    16e4:	79617272 	stmdbvc	r1!, {r1, r4, r5, r6, r9, ip, sp, lr}^
    16e8:	74697243 	strbtvc	r7, [r9], #-579	; 0xfffffdbd
    16ec:	6c616369 	stclvs	3, cr6, [r1], #-420	; 0xfffffe5c
    16f0:	74654700 	strbtvc	r4, [r5], #-1792	; 0xfffff900
    16f4:	69727453 	ldmdbvs	r2!, {r0, r1, r4, r6, sl, ip, sp, lr}^
    16f8:	7243676e 	subvc	r6, r3, #28835840	; 0x1b80000
    16fc:	63697469 	cmnvs	r9, #1761607680	; 0x69000000
    1700:	52006c61 	andpl	r6, r0, #24832	; 0x6100
    1704:	61656c65 	cmnvs	r5, r5, ror #24
    1708:	74536573 	ldrbvc	r6, [r3], #-1395	; 0xfffffa8d
    170c:	676e6972 			; <UNDEFINED> instruction: 0x676e6972
    1710:	74697243 	strbtvc	r7, [r9], #-579	; 0xfffffdbd
    1714:	6c616369 	stclvs	3, cr6, [r1], #-420	; 0xfffffe5c
    1718:	77654e00 	strbvc	r4, [r5, -r0, lsl #28]!
    171c:	6b616557 	blvs	185ac80 <_end+0x1856c78>
    1720:	626f6c47 	rsbvs	r6, pc, #18176	; 0x4700
    1724:	65526c61 	ldrbvs	r6, [r2, #-3169]	; 0xfffff39f
    1728:	776a0066 	strbvc	r0, [sl, -r6, rrx]!
    172c:	006b6165 	rsbeq	r6, fp, r5, ror #2
    1730:	656c6544 	strbvs	r6, [ip, #-1348]!	; 0xfffffabc
    1734:	65576574 	ldrbvs	r6, [r7, #-1396]	; 0xfffffa8c
    1738:	6c476b61 	mcrrvs	11, 6, r6, r7, cr1
    173c:	6c61626f 	sfmvs	f6, 2, [r1], #-444	; 0xfffffe44
    1740:	00666552 	rsbeq	r6, r6, r2, asr r5
    1744:	65637845 	strbvs	r7, [r3, #-2117]!	; 0xfffff7bb
    1748:	6f697470 	svcvs	0x00697470
    174c:	6568436e 	strbvs	r4, [r8, #-878]!	; 0xfffffc92
    1750:	4e006b63 	vmlsmi.f64	d6, d0, d19
    1754:	69447765 	stmdbvs	r4, {r0, r2, r5, r6, r8, r9, sl, ip, sp, lr}^
    1758:	74636572 	strbtvc	r6, [r3], #-1394	; 0xfffffa8e
    175c:	65747942 	ldrbvs	r7, [r4, #-2370]!	; 0xfffff6be
    1760:	66667542 	strbtvs	r7, [r6], -r2, asr #10
    1764:	47007265 	strmi	r7, [r0, -r5, ror #4]
    1768:	69447465 	stmdbvs	r4, {r0, r2, r5, r6, sl, ip, sp, lr}^
    176c:	74636572 	strbtvc	r6, [r3], #-1394	; 0xfffffa8e
    1770:	66667542 	strbtvs	r7, [r6], -r2, asr #10
    1774:	64417265 	strbvs	r7, [r1], #-613	; 0xfffffd9b
    1778:	73657264 	cmnvc	r5, #100, 4	; 0x40000006
    177c:	65470073 	strbvs	r0, [r7, #-115]	; 0xffffff8d
    1780:	72694474 	rsbvc	r4, r9, #116, 8	; 0x74000000
    1784:	42746365 	rsbsmi	r6, r4, #-1811939327	; 0x94000001
    1788:	65666675 	strbvs	r6, [r6, #-1653]!	; 0xfffff98b
    178c:	70614372 	rsbvc	r4, r1, r2, ror r3
    1790:	74696361 	strbtvc	r6, [r9], #-865	; 0xfffffc9f
    1794:	65470079 	strbvs	r0, [r7, #-121]	; 0xffffff87
    1798:	6a624f74 	bvs	1895570 <_end+0x1891568>
    179c:	52746365 	rsbspl	r6, r4, #-1811939327	; 0x94000001
    17a0:	79546665 	ldmdbvc	r4, {r0, r2, r5, r6, r9, sl, sp, lr}^
    17a4:	4a006570 	bmi	1ad6c <_end+0x16d64>
    17a8:	614e494e 	cmpvs	lr, lr, asr #18
    17ac:	65766974 	ldrbvs	r6, [r6, #-2420]!	; 0xfffff68c
    17b0:	65746e49 	ldrbvs	r6, [r4, #-3657]!	; 0xfffff1b7
    17b4:	63616672 	cmnvs	r1, #119537664	; 0x7200000
    17b8:	4e4a0065 	cdpmi	0, 4, cr0, cr10, cr5, {3}
    17bc:	766e4549 	strbtvc	r4, [lr], -r9, asr #10
    17c0:	69687400 	stmdbvs	r8!, {sl, ip, sp, lr}^
    17c4:	6572007a 	ldrbvs	r0, [r2, #-122]!	; 0xffffff86
    17c8:	746c7573 	strbtvc	r7, [ip], #-1395	; 0xfffffa8d
    17cc:	64697000 	strbtvs	r7, [r9], #-0
    17d0:	6b5f5f00 	blvs	17d93d8 <_end+0x17d53d0>
    17d4:	656e7265 	strbvs	r7, [lr, #-613]!	; 0xfffffd9b
    17d8:	69705f6c 	ldmdbvs	r0!, {r2, r3, r5, r6, r8, r9, sl, fp, ip, lr}^
    17dc:	00745f64 	rsbseq	r5, r4, r4, ror #30
    17e0:	69705f5f 	ldmdbvs	r0!, {r0, r1, r2, r3, r4, r6, r8, r9, sl, fp, ip, lr}^
    17e4:	00745f64 	rsbseq	r5, r4, r4, ror #30
    17e8:	5f646970 	svcpl	0x00646970
    17ec:	69750074 	ldmdbvs	r5!, {r2, r4, r5, r6}^
    17f0:	6e750064 	cdpvs	0, 7, cr0, cr5, cr4, {3}
    17f4:	6e676973 			; <UNDEFINED> instruction: 0x6e676973
    17f8:	69206465 	stmdbvs	r0!, {r0, r2, r5, r6, sl, sp, lr}
    17fc:	5f00746e 	svcpl	0x0000746e
    1800:	72656b5f 	rsbvc	r6, r5, #97280	; 0x17c00
    1804:	5f6c656e 	svcpl	0x006c656e
    1808:	33646975 	cmncc	r4, #1916928	; 0x1d4000
    180c:	00745f32 	rsbseq	r5, r4, r2, lsr pc
    1810:	69755f5f 	ldmdbvs	r5!, {r0, r1, r2, r3, r4, r6, r8, r9, sl, fp, ip, lr}^
    1814:	00745f64 	rsbseq	r5, r4, r4, ror #30
    1818:	5f646975 	svcpl	0x00646975
    181c:	73750074 	cmnvc	r5, #116	; 0x74
    1820:	616e7265 	cmnvs	lr, r5, ror #4
    1824:	2f00656d 	svccs	0x0000656d
    1828:	6f77796d 	svcvs	0x0077796d
    182c:	672f6b72 			; <UNDEFINED> instruction: 0x672f6b72
    1830:	75687469 	strbvc	r7, [r8, #-1129]!	; 0xfffffb97
    1834:	6e612f62 	cdpvs	15, 6, cr2, cr1, cr2, {3}
    1838:	696f7264 	stmdbvs	pc!, {r2, r5, r6, r9, ip, sp, lr}^	; <UNPREDICTABLE>
    183c:	76657264 	strbtvc	r7, [r5], -r4, ror #4
    1840:	65737265 	ldrbvs	r7, [r3, #-613]!	; 0xfffffd9b
    1844:	6172632f 	cmnvs	r2, pc, lsr #6
    1848:	732f6873 			; <UNDEFINED> instruction: 0x732f6873
    184c:	6d2f6372 	stcvs	3, cr6, [pc, #-456]!	; 168c <unwind_phase2+0x4>
    1850:	2f6e6961 	svccs	0x006e6961
    1854:	2f707063 	svccs	0x00707063
    1858:	64616f6c 	strbtvs	r6, [r1], #-3948	; 0xfffff094
    185c:	6700632e 	strvs	r6, [r0, -lr, lsr #6]
    1860:	766a5f73 	uqsub16vc	r5, sl, r3
    1864:	4e4a006d 	cdpmi	0, 4, cr0, cr10, cr13, {3}
    1868:	6e4f5f49 	cdpvs	15, 4, cr5, cr15, cr9, {2}
    186c:	64616f4c 	strbtvs	r6, [r1], #-3916	; 0xfffff0b4
    1870:	006d7600 	rsbeq	r7, sp, r0, lsl #12
    1874:	65736572 	ldrbvs	r6, [r3, #-1394]!	; 0xfffffa8e
    1878:	64657672 	strbtvs	r7, [r5], #-1650	; 0xfffff98e
    187c:	675f5f00 	ldrbvs	r5, [pc, -r0, lsl #30]
    1880:	555f756e 	ldrbpl	r7, [pc, #-1390]	; 131a <Java_com_crash_test_HelloJni_stringFromJNI+0x32>
    1884:	6e69776e 	cdpvs	7, 6, cr7, cr9, cr14, {3}
    1888:	65525f64 	ldrbvs	r5, [r2, #-3940]	; 0xfffff09c
    188c:	726f7473 	rsbvc	r7, pc, #1929379840	; 0x73000000
    1890:	4d575f65 	ldclmi	15, cr5, [r7, #-404]	; 0xfffffe6c
    1894:	0043584d 	subeq	r5, r3, sp, asr #16
    1898:	6e675f5f 	mcrvs	15, 3, r5, cr7, cr15, {2}
    189c:	6e555f75 	mrcvs	15, 2, r5, cr5, cr5, {3}
    18a0:	646e6977 	strbtvs	r6, [lr], #-2423	; 0xfffff689
    18a4:	7365525f 	cmnvc	r5, #-268435451	; 0xf0000005
    18a8:	65726f74 	ldrbvs	r6, [r2, #-3956]!	; 0xfffff08c
    18ac:	4d4d575f 	stclmi	7, cr5, [sp, #-380]	; 0xfffffe84
    18b0:	65004458 	strvs	r4, [r0, #-1112]	; 0xfffffba8
    18b4:	70656378 	rsbvc	r6, r5, r8, ror r3
    18b8:	6e6f6974 			; <UNDEFINED> instruction: 0x6e6f6974
    18bc:	656c635f 	strbvs	r6, [ip, #-863]!	; 0xfffffca1
    18c0:	70756e61 	rsbsvc	r6, r5, r1, ror #28
    18c4:	6e555f00 	cdpvs	15, 5, cr5, cr5, cr0, {0}
    18c8:	646e6977 	strbtvs	r6, [lr], #-2423	; 0xfffff689
    18cc:	6365645f 	cmnvs	r5, #1593835520	; 0x5f000000
    18d0:	5f65646f 	svcpl	0x0065646f
    18d4:	65707974 	ldrbvs	r7, [r0, #-2420]!	; 0xfffff68c
    18d8:	6f666e69 	svcvs	0x00666e69
    18dc:	7274705f 	rsbsvc	r7, r4, #95	; 0x5f
    18e0:	56555f00 	ldrbpl	r5, [r5], -r0, lsl #30
    18e4:	5f445352 	svcpl	0x00445352
    18e8:	58504656 	ldmdapl	r0, {r1, r2, r4, r6, r9, sl, lr}^
    18ec:	76617300 	strbtvc	r7, [r1], -r0, lsl #6
    18f0:	765f6465 	ldrbvc	r6, [pc], -r5, ror #8
    18f4:	45007372 	strmi	r7, [r0, #-882]	; 0xfffffc8e
    18f8:	36315448 	ldrtcc	r5, [r1], -r8, asr #8
    18fc:	6e555f00 	cdpvs	15, 5, cr5, cr5, cr0, {0}
    1900:	646e6977 	strbtvs	r6, [lr], #-2423	; 0xfffff689
    1904:	5352565f 	cmppl	r2, #99614720	; 0x5f00000
    1908:	6765525f 			; <UNDEFINED> instruction: 0x6765525f
    190c:	73616c43 	cmnvc	r1, #17152	; 0x4300
    1910:	5f5f0073 	svcpl	0x005f0073
    1914:	5f756e67 	svcpl	0x00756e67
    1918:	69776e55 	ldmdbvs	r7!, {r0, r2, r4, r6, r9, sl, fp, sp, lr}^
    191c:	525f646e 	subspl	r6, pc, #1845493760	; 0x6e000000
    1920:	6f747365 	svcvs	0x00747365
    1924:	565f6572 			; <UNDEFINED> instruction: 0x565f6572
    1928:	62005046 	andvs	r5, r0, #70	; 0x46
    192c:	61707469 	cmnvs	r0, r9, ror #8
    1930:	72657474 	rsbvc	r7, r5, #116, 8	; 0x74000000
    1934:	555f006e 	ldrbpl	r0, [pc, #-110]	; 18ce <_Unwind_SetGR>
    1938:	52535256 	subspl	r5, r3, #1610612741	; 0x60000005
    193c:	004b4f5f 	subeq	r4, fp, pc, asr pc
    1940:	75746572 	ldrbvc	r6, [r4, #-1394]!	; 0xfffffa8e
    1944:	615f6e72 	cmpvs	pc, r2, ror lr	; <UNPREDICTABLE>
    1948:	65726464 	ldrbvs	r6, [r2, #-1124]!	; 0xfffffb9c
    194c:	63007373 	movwvs	r7, #883	; 0x373
    1950:	735f6d74 	cmpvc	pc, #116, 26	; 0x1d00
    1954:	65636375 	strbvs	r6, [r3, #-885]!	; 0xfffffc8b
    1958:	64656465 	strbtvs	r6, [r5], #-1125	; 0xfffffb9b
    195c:	675f5f00 	ldrbvs	r5, [pc, -r0, lsl #30]
    1960:	555f756e 	ldrbpl	r7, [pc, #-1390]	; 13fa <Java_com_crash_test_HelloJni_stringFromJNI+0x112>
    1964:	6e69776e 	cdpvs	7, 6, cr7, cr9, cr14, {3}
    1968:	65525f64 	ldrbvs	r5, [r2, #-3940]	; 0xfffff09c
    196c:	726f7473 	rsbvc	r7, pc, #1929379840	; 0x73000000
    1970:	46565f65 	ldrbmi	r5, [r6], -r5, ror #30
    1974:	5f445f50 	svcpl	0x00445f50
    1978:	745f3631 	ldrbvc	r3, [pc], #-1585	; 1980 <__gnu_unwind_pr_common+0x1e>
    197c:	31335f6f 	teqcc	r3, pc, ror #30
    1980:	78656e00 	stmdavc	r5!, {r9, sl, fp, sp, lr}^
    1984:	555f0074 	ldrbpl	r0, [pc, #-116]	; 1918 <__gnu_Unwind_Backtrace+0x30>
    1988:	6e69776e 	cdpvs	7, 6, cr7, cr9, cr14, {3}
    198c:	72545f64 	subsvc	r5, r4, #100, 30	; 0x190
    1990:	5f656361 	svcpl	0x00656361
    1994:	6d006e46 	stcvs	14, cr6, [r0, #-280]	; 0xfffffee8
    1998:	006b7361 	rsbeq	r7, fp, r1, ror #6
    199c:	7478656e 	ldrbtvc	r6, [r8], #-1390	; 0xfffffa92
    19a0:	7372765f 	cmnvc	r2, #99614720	; 0x5f00000
    19a4:	6e555f00 	cdpvs	15, 5, cr5, cr5, cr0, {0}
    19a8:	646e6977 	strbtvs	r6, [lr], #-2423	; 0xfffff689
    19ac:	5352565f 	cmppl	r2, #99614720	; 0x5f00000
    19b0:	7465535f 	strbtvc	r5, [r5], #-863	; 0xfffffca1
    19b4:	726f6300 	rsbvc	r6, pc, #0, 6
    19b8:	65725f65 	ldrbvs	r5, [r2, #-3941]!	; 0xfffff09b
    19bc:	76007367 	strvc	r7, [r0], -r7, ror #6
    19c0:	65756c61 	ldrbvs	r6, [r5, #-3169]!	; 0xfffff39f
    19c4:	6e690070 	mcrvs	0, 3, r0, cr9, cr0, {3}
    19c8:	6e61725f 	mcrvs	2, 3, r7, cr1, cr15, {2}
    19cc:	68006567 	stmdavs	r0, {r0, r1, r2, r5, r6, r8, sl, sp, lr}
    19d0:	6c646e61 	stclvs	14, cr6, [r4], #-388	; 0xfffffe7c
    19d4:	5f007265 	svcpl	0x00007265
    19d8:	756e675f 	strbvc	r6, [lr, #-1887]!	; 0xfffff8a1
    19dc:	776e755f 			; <UNDEFINED> instruction: 0x776e755f
    19e0:	5f646e69 	svcpl	0x00646e69
    19e4:	5f746567 	svcpl	0x00746567
    19e8:	615f7270 	cmpvs	pc, r0, ror r2	; <UNPREDICTABLE>
    19ec:	00726464 	rsbseq	r6, r2, r4, ror #8
    19f0:	5f706d74 	svcpl	0x00706d74
    19f4:	6e756f63 	cdpvs	15, 7, cr6, cr5, cr3, {3}
    19f8:	00325f74 	eorseq	r5, r2, r4, ror pc
    19fc:	64726f77 	ldrbtvs	r6, [r2], #-3959	; 0xfffff089
    1a00:	656c5f73 	strbvs	r5, [ip, #-3955]!	; 0xfffff08d
    1a04:	72007466 	andvc	r7, r0, #1711276032	; 0x66000000
    1a08:	65727065 	ldrbvs	r7, [r2, #-101]!	; 0xffffff9b
    1a0c:	746e6573 	strbtvc	r6, [lr], #-1395	; 0xfffffa8d
    1a10:	6f697461 	svcvs	0x00697461
    1a14:	7270006e 	rsbsvc	r0, r0, #110	; 0x6e
    1a18:	735f7665 	cmpvc	pc, #105906176	; 0x6500000
    1a1c:	555f0070 	ldrbpl	r0, [pc, #-112]	; 19b4 <__gnu_unwind_pr_common+0x52>
    1a20:	44535256 	ldrbmi	r5, [r3], #-598	; 0xfffffdaa
    1a24:	4e49555f 	mcrmi	5, 2, r5, cr9, cr15, {2}
    1a28:	00343654 	eorseq	r3, r4, r4, asr r6
    1a2c:	3677755f 			; <UNDEFINED> instruction: 0x3677755f
    1a30:	555f0034 	ldrbpl	r0, [pc, #-52]	; 1a04 <__gnu_unwind_pr_common+0xa2>
    1a34:	6e69776e 	cdpvs	7, 6, cr7, cr9, cr14, {3}
    1a38:	6f435f64 	svcvs	0x00435f64
    1a3c:	7865746e 	stmdavc	r5!, {r1, r2, r3, r5, r6, sl, ip, sp, lr}^
    1a40:	5f5f0074 	svcpl	0x005f0074
    1a44:	5f756e67 	svcpl	0x00756e67
    1a48:	69776e75 	ldmdbvs	r7!, {r0, r2, r4, r5, r6, r9, sl, fp, sp, lr}^
    1a4c:	705f646e 	subsvc	r6, pc, lr, ror #8
    1a50:	6f635f72 	svcvs	0x00635f72
    1a54:	6e6f6d6d 	cdpvs	13, 6, cr6, cr15, cr13, {3}
    1a58:	6d756e00 	ldclvs	14, cr6, [r5, #-0]
    1a5c:	7066765f 	rsbvc	r7, r6, pc, asr r6
    1a60:	725f3376 	subsvc	r3, pc, #-671088639	; 0xd8000001
    1a64:	00736765 	rsbseq	r6, r3, r5, ror #14
    1a68:	65615f5f 	strbvs	r5, [r1, #-3935]!	; 0xfffff0a1
    1a6c:	5f696261 	svcpl	0x00696261
    1a70:	69776e75 	ldmdbvs	r7!, {r0, r2, r4, r5, r6, r9, sl, fp, sp, lr}^
    1a74:	635f646e 	cmpvs	pc, #1845493760	; 0x6e000000
    1a78:	705f7070 	subsvc	r7, pc, r0, ror r0	; <UNPREDICTABLE>
    1a7c:	5f003072 	svcpl	0x00003072
    1a80:	6165615f 	cmnvs	r5, pc, asr r1
    1a84:	755f6962 	ldrbvc	r6, [pc, #-2402]	; 112a <Java_com_crash_test_HelloJni_nativeMsg+0x86>
    1a88:	6e69776e 	cdpvs	7, 6, cr7, cr9, cr14, {3}
    1a8c:	70635f64 	rsbvc	r5, r3, r4, ror #30
    1a90:	72705f70 	rsbsvc	r5, r0, #112, 30	; 0x1c0
    1a94:	5f5f0031 	svcpl	0x005f0031
    1a98:	62616561 	rsbvs	r6, r1, #406847488	; 0x18400000
    1a9c:	6e755f69 	cdpvs	15, 7, cr5, cr5, cr9, {3}
    1aa0:	646e6977 	strbtvs	r6, [lr], #-2423	; 0xfffff689
    1aa4:	7070635f 	rsbsvc	r6, r0, pc, asr r3
    1aa8:	3272705f 	rsbscc	r7, r2, #95	; 0x5f
    1aac:	54484500 	strbpl	r4, [r8], #-1280	; 0xfffffb00
    1ab0:	74003233 	strvc	r3, [r0], #-563	; 0xfffffdcd
    1ab4:	635f706d 	cmpvs	pc, #109	; 0x6d
    1ab8:	746e756f 	strbtvc	r7, [lr], #-1391	; 0xfffffa91
    1abc:	6e555f00 	cdpvs	15, 5, cr5, cr5, cr0, {0}
    1ac0:	646e6977 	strbtvs	r6, [lr], #-2423	; 0xfffff689
    1ac4:	7463415f 	strbtvc	r4, [r3], #-351	; 0xfffffea1
    1ac8:	006e6f69 	rsbeq	r6, lr, r9, ror #30
    1acc:	6e675f5f 	mcrvs	15, 3, r5, cr7, cr15, {2}
    1ad0:	6e555f75 	mrcvs	15, 2, r5, cr5, cr5, {3}
    1ad4:	646e6977 	strbtvs	r6, [lr], #-2423	; 0xfffff689
    1ad8:	7661535f 			; <UNDEFINED> instruction: 0x7661535f
    1adc:	46565f65 	ldrbmi	r5, [r6], -r5, ror #30
    1ae0:	555f0050 	ldrbpl	r0, [pc, #-80]	; 1a98 <__gnu_unwind_pr_common+0x136>
    1ae4:	4e455f53 	mcrmi	15, 2, r5, cr5, cr3, {2}
    1ae8:	464f5f44 	strbmi	r5, [pc], -r4, asr #30
    1aec:	4154535f 	cmpmi	r4, pc, asr r3
    1af0:	5f004b43 	svcpl	0x00004b43
    1af4:	69776e55 	ldmdbvs	r7!, {r0, r2, r4, r6, r9, sl, fp, sp, lr}^
    1af8:	455f646e 	ldrbmi	r6, [pc, #-1134]	; 1692 <unwind_phase2+0xa>
    1afc:	485f5448 	ldmdami	pc, {r3, r6, sl, ip, lr}^	; <UNPREDICTABLE>
    1b00:	65646165 	strbvs	r6, [r4, #-357]!	; 0xfffffe9b
    1b04:	65730072 	ldrbvs	r0, [r3, #-114]!	; 0xffffff8e
    1b08:	68637261 	stmdavs	r3!, {r0, r5, r6, r9, ip, sp, lr}^
    1b0c:	5449455f 	strbpl	r4, [r9], #-1375	; 0xfffffaa1
    1b10:	6261745f 	rsbvs	r7, r1, #1593835520	; 0x5f000000
    1b14:	5f00656c 	svcpl	0x0000656c
    1b18:	53525655 	cmppl	r2, #89128960	; 0x5500000
    1b1c:	4f445f44 	svcmi	0x00445f44
    1b20:	454c4255 	strbmi	r4, [ip, #-597]	; 0xfffffdab
    1b24:	53555f00 	cmppl	r5, #0, 30
    1b28:	574e555f 	smlsldpl	r5, lr, pc, r5	; <UNPREDICTABLE>
    1b2c:	5f444e49 	svcpl	0x00444e49
    1b30:	4d415246 	sfmmi	f5, 2, [r1, #-280]	; 0xfffffee8
    1b34:	54535f45 	ldrbpl	r5, [r3], #-3909	; 0xfffff0bb
    1b38:	49545241 	ldmdbmi	r4, {r0, r6, r9, ip, lr}^
    1b3c:	5f00474e 	svcpl	0x0000474e
    1b40:	756e675f 	strbvc	r6, [lr, #-1887]!	; 0xfffff8a1
    1b44:	776e555f 			; <UNDEFINED> instruction: 0x776e555f
    1b48:	5f646e69 	svcpl	0x00646e69
    1b4c:	73696152 	cmnvc	r9, #-2147483628	; 0x80000014
    1b50:	63784565 	cmnvs	r8, #423624704	; 0x19400000
    1b54:	69747065 	ldmdbvs	r4!, {r0, r2, r5, r6, ip, sp, lr}^
    1b58:	73006e6f 	movwvc	r6, #3695	; 0xe6f
    1b5c:	5f706f74 	svcpl	0x00706f74
    1b60:	5f006e66 	svcpl	0x00006e66
    1b64:	756e675f 	strbvc	r6, [lr, #-1887]!	; 0xfffff8a1
    1b68:	776e555f 			; <UNDEFINED> instruction: 0x776e555f
    1b6c:	5f646e69 	svcpl	0x00646e69
    1b70:	74736552 	ldrbtvc	r6, [r3], #-1362	; 0xfffffaae
    1b74:	5f65726f 	svcpl	0x0065726f
    1b78:	5f504656 	svcpl	0x00504656
    1b7c:	69650044 	stmdbvs	r5!, {r2, r6}^
    1b80:	5f007074 	svcpl	0x00007074
    1b84:	53525655 	cmppl	r2, #89128960	; 0x5500000
    1b88:	4f435f43 	svcmi	0x00435f43
    1b8c:	5f004552 	svcpl	0x00004552
    1b90:	53525655 	cmppl	r2, #89128960	; 0x5500000
    1b94:	4d575f43 	ldclmi	15, cr5, [r7, #-268]	; 0xfffffef4
    1b98:	0044584d 	subeq	r5, r4, sp, asr #16
    1b9c:	65736162 	ldrbvs	r6, [r3, #-354]!	; 0xfffffe9e
    1ba0:	756f6300 	strbvc	r6, [pc, #-768]!	; 18a8 <_Unwind_VRS_Set+0x8>
    1ba4:	6c00746e 	cfstrsvs	mvf7, [r0], {110}	; 0x6e
    1ba8:	20676e6f 	rsbcs	r6, r7, pc, ror #28
    1bac:	676e6f6c 	strbvs	r6, [lr, -ip, ror #30]!
    1bb0:	736e7520 	cmnvc	lr, #32, 10	; 0x8000000
    1bb4:	656e6769 	strbvs	r6, [lr, #-1897]!	; 0xfffff897
    1bb8:	6e692064 	cdpvs	0, 6, cr2, cr9, cr4, {3}
    1bbc:	666f0074 			; <UNDEFINED> instruction: 0x666f0074
    1bc0:	74657366 	strbtvc	r7, [r5], #-870	; 0xfffffc9a
    1bc4:	61727400 	cmnvs	r2, r0, lsl #8
    1bc8:	5f006563 	svcpl	0x00006563
    1bcc:	465f5355 			; <UNDEFINED> instruction: 0x465f5355
    1bd0:	4543524f 	strbmi	r5, [r3, #-591]	; 0xfffffdb1
    1bd4:	574e555f 	smlsldpl	r5, lr, pc, r5	; <UNPREDICTABLE>
    1bd8:	00444e49 	subeq	r4, r4, r9, asr #28
    1bdc:	73616870 	cmnvc	r1, #112, 16	; 0x700000
    1be0:	765f3165 	ldrbvc	r3, [pc], -r5, ror #2
    1be4:	70007372 	andvc	r7, r0, r2, ror r3
    1be8:	65725f72 	ldrbvs	r5, [r2, #-3954]!	; 0xfffff08e
    1bec:	746c7573 	strbtvc	r7, [ip], #-1395	; 0xfffffa8d
    1bf0:	675f5f00 	ldrbvs	r5, [pc, -r0, lsl #30]
    1bf4:	555f756e 	ldrbpl	r7, [pc, #-1390]	; 168e <unwind_phase2+0x6>
    1bf8:	6e69776e 	cdpvs	7, 6, cr7, cr9, cr14, {3}
    1bfc:	65525f64 	ldrbvs	r5, [r2, #-3940]	; 0xfffff09c
    1c00:	656d7573 	strbvs	r7, [sp, #-1395]!	; 0xfffffa8d
    1c04:	5f726f5f 	svcpl	0x00726f5f
    1c08:	68746552 	ldmdavs	r4!, {r1, r4, r6, r8, sl, sp, lr}^
    1c0c:	00776f72 	rsbseq	r6, r7, r2, ror pc
    1c10:	65726f63 	ldrbvs	r6, [r2, #-3939]!	; 0xfffff09d
    1c14:	6f626100 	svcvs	0x00626100
    1c18:	5f007472 	svcpl	0x00007472
    1c1c:	5f435255 	svcpl	0x00435255
    1c20:	544e4f43 	strbpl	r4, [lr], #-3907	; 0xfffff0bd
    1c24:	45554e49 	ldrbmi	r4, [r5, #-3657]	; 0xfffff1b7
    1c28:	574e555f 	smlsldpl	r5, lr, pc, r5	; <UNPREDICTABLE>
    1c2c:	00444e49 	subeq	r4, r4, r9, asr #28
    1c30:	65747962 	ldrbvs	r7, [r4, #-2402]!	; 0xfffff69e
    1c34:	656c5f73 	strbvs	r5, [ip, #-3955]!	; 0xfffff08d
    1c38:	77007466 	strvc	r7, [r0, -r6, ror #8]
    1c3c:	64786d6d 	ldrbtvs	r6, [r8], #-3437	; 0xfffff293
    1c40:	6765725f 			; <UNDEFINED> instruction: 0x6765725f
    1c44:	6c630073 	stclvs	0, cr0, [r3], #-460	; 0xfffffe34
    1c48:	756e6165 	strbvc	r6, [lr, #-357]!	; 0xfffffe9b
    1c4c:	61635f70 	smcvs	13808	; 0x35f0
    1c50:	00656863 	rsbeq	r6, r5, r3, ror #16
    1c54:	78655f5f 	stmdavc	r5!, {r0, r1, r2, r3, r4, r6, r8, r9, sl, fp, ip, lr}^
    1c58:	5f786469 	svcpl	0x00786469
    1c5c:	72617473 	rsbvc	r7, r1, #1929379840	; 0x73000000
    1c60:	68740074 	ldmdavs	r4!, {r2, r4, r5, r6}^
    1c64:	665f7369 	ldrbvs	r7, [pc], -r9, ror #6
    1c68:	6567006e 	strbvs	r0, [r7, #-110]!	; 0xffffff92
    1c6c:	69655f74 	stmdbvs	r5!, {r2, r4, r5, r6, r8, r9, sl, fp, ip, lr}^
    1c70:	6e655f74 	mcrvs	15, 3, r5, cr5, cr4, {3}
    1c74:	00797274 	rsbseq	r7, r9, r4, ror r2
    1c78:	5f706d74 	svcpl	0x00706d74
    1c7c:	745f3631 	ldrbvc	r3, [pc], #-1585	; 1c84 <_Unwind_VRS_Pop+0xac>
    1c80:	31335f6f 	teqcc	r3, pc, ror #30
    1c84:	675f5f00 	ldrbvs	r5, [pc, -r0, lsl #30]
    1c88:	555f756e 	ldrbpl	r7, [pc, #-1390]	; 1722 <unwind_phase2_forced+0x60>
    1c8c:	6e69776e 	cdpvs	7, 6, cr7, cr9, cr14, {3}
    1c90:	69465f64 	stmdbvs	r6, {r2, r5, r6, r8, r9, sl, fp, ip, lr}^
    1c94:	655f646e 	ldrbvs	r6, [pc, #-1134]	; 182e <__gnu_Unwind_Resume+0x34>
    1c98:	78646978 	stmdavc	r4!, {r3, r4, r5, r6, r8, fp, sp, lr}^
    1c9c:	646f6300 	strbtvs	r6, [pc], #-768	; 1ca4 <_Unwind_VRS_Pop+0xcc>
    1ca0:	5f5f0065 	svcpl	0x005f0065
    1ca4:	5f617863 	svcpl	0x00617863
    1ca8:	65707974 	ldrbvs	r7, [r0, #-2420]!	; 0xfffff68c
    1cac:	74616d5f 	strbtvc	r6, [r1], #-3423	; 0xfffff2a1
    1cb0:	5f006863 	svcpl	0x00006863
    1cb4:	69776e55 	ldmdbvs	r7!, {r0, r2, r4, r6, r9, sl, fp, sp, lr}^
    1cb8:	475f646e 	ldrbmi	r6, [pc, -lr, ror #8]
    1cbc:	46437465 	strbmi	r7, [r3], -r5, ror #8
    1cc0:	5f5f0041 	svcpl	0x005f0041
    1cc4:	5f756e67 	svcpl	0x00756e67
    1cc8:	69776e55 	ldmdbvs	r7!, {r0, r2, r4, r6, r9, sl, fp, sp, lr}^
    1ccc:	425f646e 	subsmi	r6, pc, #1845493760	; 0x6e000000
    1cd0:	746b6361 	strbtvc	r6, [fp], #-865	; 0xfffffc9f
    1cd4:	65636172 	strbvs	r6, [r3, #-370]!	; 0xfffffe8e
    1cd8:	70667600 	rsbvc	r7, r6, r0, lsl #12
    1cdc:	725f3376 	subsvc	r3, pc, #-671088639	; 0xd8000001
    1ce0:	00736765 	rsbseq	r6, r3, r5, ror #14
    1ce4:	63617274 	cmnvs	r1, #116, 4	; 0x40000007
    1ce8:	72615f65 	rsbvc	r5, r1, #404	; 0x194
    1cec:	656d7567 	strbvs	r7, [sp, #-1383]!	; 0xfffffa99
    1cf0:	7500746e 	strvc	r7, [r0, #-1134]	; 0xfffffb92
    1cf4:	6e69776e 	cdpvs	7, 6, cr7, cr9, cr14, {3}
    1cf8:	5f726564 	svcpl	0x00726564
    1cfc:	68636163 	stmdavs	r3!, {r0, r1, r5, r6, r8, sp, lr}^
    1d00:	555f0065 	ldrbpl	r0, [pc, #-101]	; 1ca3 <_Unwind_VRS_Pop+0xcb>
    1d04:	43415f53 	movtmi	r5, #8019	; 0x1f53
    1d08:	4e4f4954 			; <UNDEFINED> instruction: 0x4e4f4954
    1d0c:	53414d5f 	movtpl	r4, #7519	; 0x1d5f
    1d10:	555f004b 	ldrbpl	r0, [pc, #-75]	; 1ccd <_Unwind_VRS_Pop+0xf5>
    1d14:	495f4352 	ldmdbmi	pc, {r1, r4, r6, r8, r9, lr}^	; <UNPREDICTABLE>
    1d18:	4154534e 	cmpmi	r4, lr, asr #6
    1d1c:	435f4c4c 	cmpmi	pc, #76, 24	; 0x4c00
    1d20:	45544e4f 	ldrbmi	r4, [r4, #-3663]	; 0xfffff1b1
    1d24:	5f005458 	svcpl	0x00005458
    1d28:	69776e55 	ldmdbvs	r7!, {r0, r2, r4, r6, r9, sl, fp, sp, lr}^
    1d2c:	565f646e 	ldrbpl	r6, [pc], -lr, ror #8
    1d30:	525f5352 	subspl	r5, pc, #1207959553	; 0x48000001
    1d34:	6c757365 	ldclvs	3, cr7, [r5], #-404	; 0xfffffe6c
    1d38:	65720074 	ldrbvs	r0, [r2, #-116]!	; 0xffffff8c
    1d3c:	726f7473 	rsbvc	r7, pc, #1929379840	; 0x73000000
    1d40:	6f635f65 	svcvs	0x00635f65
    1d44:	725f6572 	subsvc	r6, pc, #478150656	; 0x1c800000
    1d48:	00736765 	rsbseq	r6, r3, r5, ror #14
    1d4c:	76706676 			; <UNDEFINED> instruction: 0x76706676
    1d50:	74735f33 	ldrbtvc	r5, [r3], #-3891	; 0xfffff0cd
    1d54:	00747261 	rsbseq	r7, r4, r1, ror #4
    1d58:	776e555f 			; <UNDEFINED> instruction: 0x776e555f
    1d5c:	5f646e69 	svcpl	0x00646e69
    1d60:	706f7453 	rsbvc	r7, pc, r3, asr r4	; <UNPREDICTABLE>
    1d64:	006e465f 	rsbeq	r4, lr, pc, asr r6
    1d68:	74535a5f 	ldrbvc	r5, [r3], #-2655	; 0xfffff5a1
    1d6c:	70797439 	rsbsvc	r7, r9, r9, lsr r4
    1d70:	6e695f65 	cdpvs	15, 6, cr5, cr9, cr5, {3}
    1d74:	72006f66 	andvc	r6, r0, #408	; 0x198
    1d78:	6c636765 	stclvs	7, cr6, [r3], #-404	; 0xfffffe6c
    1d7c:	00737361 	rsbseq	r7, r3, r1, ror #6
    1d80:	5256555f 	subspl	r5, r6, #398458880	; 0x17c00000
    1d84:	465f4453 			; <UNDEFINED> instruction: 0x465f4453
    1d88:	54414f4c 	strbpl	r4, [r1], #-3916	; 0xfffff0b4
    1d8c:	62617400 	rsbvs	r7, r1, #0, 8
    1d90:	6500656c 	strvs	r6, [r0, #-1388]	; 0xfffffa94
    1d94:	7972746e 	ldmdbvc	r2!, {r1, r2, r3, r5, r6, sl, ip, sp, lr}^
    1d98:	646f635f 	strbtvs	r6, [pc], #-863	; 1da0 <_Unwind_VRS_Pop+0x1c8>
    1d9c:	61640065 	cmnvs	r4, r5, rrx
    1da0:	5f006174 	svcpl	0x00006174
    1da4:	756e675f 	strbvc	r6, [lr, #-1887]!	; 0xfffff8a1
    1da8:	776e555f 			; <UNDEFINED> instruction: 0x776e555f
    1dac:	5f646e69 	svcpl	0x00646e69
    1db0:	63726f46 	cmnvs	r2, #280	; 0x118
    1db4:	6e556465 	cdpvs	4, 5, cr6, cr5, cr5, {3}
    1db8:	646e6977 	strbtvs	r6, [lr], #-2423	; 0xfffff689
    1dbc:	53555f00 	cmppl	r5, #0, 30
    1dc0:	574e555f 	smlsldpl	r5, lr, pc, r5	; <UNPREDICTABLE>
    1dc4:	5f444e49 	svcpl	0x00444e49
    1dc8:	4d415246 	sfmmi	f5, 2, [r1, #-280]	; 0xfffffee8
    1dcc:	45525f45 	ldrbmi	r5, [r2, #-3909]	; 0xfffff0bb
    1dd0:	454d5553 	strbmi	r5, [sp, #-1363]	; 0xfffffaad
    1dd4:	6d6d7700 	stclvs	7, cr7, [sp, #-0]
    1dd8:	77006378 	smlsdxvc	r0, r8, r3, r6
    1ddc:	64786d6d 	ldrbtvs	r6, [r8], #-3437	; 0xfffff293
    1de0:	6d656400 	cfstrdvs	mvd6, [r5, #-0]
    1de4:	5f646e61 	svcpl	0x00646e61
    1de8:	65766173 	ldrbvs	r6, [r6, #-371]!	; 0xfffffe8d
    1dec:	616c665f 	cmnvs	ip, pc, asr r6
    1df0:	5f007367 	svcpl	0x00007367
    1df4:	69776e55 	ldmdbvs	r7!, {r0, r2, r4, r6, r9, sl, fp, sp, lr}^
    1df8:	435f646e 	cmpmi	pc, #1845493760	; 0x6e000000
    1dfc:	6c706d6f 	ldclvs	13, cr6, [r0], #-444	; 0xfffffe44
    1e00:	00657465 	rsbeq	r7, r5, r5, ror #8
    1e04:	78635f5f 	stmdavc	r3!, {r0, r1, r2, r3, r4, r6, r8, r9, sl, fp, ip, lr}^
    1e08:	79745f61 	ldmdbvc	r4!, {r0, r5, r6, r8, r9, sl, fp, ip, lr}^
    1e0c:	6d5f6570 	cfldr64vs	mvdx6, [pc, #-448]	; 1c54 <_Unwind_VRS_Pop+0x7c>
    1e10:	68637461 	stmdavs	r3!, {r0, r5, r6, sl, ip, sp, lr}^
    1e14:	7365725f 	cmnvc	r5, #-268435451	; 0xf0000005
    1e18:	00746c75 	rsbseq	r6, r4, r5, ror ip
    1e1c:	776e555f 			; <UNDEFINED> instruction: 0x776e555f
    1e20:	5f646e69 	svcpl	0x00646e69
    1e24:	73616552 	cmnvc	r1, #343932928	; 0x14800000
    1e28:	435f6e6f 	cmpmi	pc, #1776	; 0x6f0
    1e2c:	0065646f 	rsbeq	r6, r5, pc, ror #8
    1e30:	49455f5f 	stmdbmi	r5, {r0, r1, r2, r3, r4, r6, r8, r9, sl, fp, ip, lr}^
    1e34:	6e655f54 	mcrvs	15, 3, r5, cr5, cr4, {2}
    1e38:	00797274 	rsbseq	r7, r9, r4, ror r2
    1e3c:	68676972 	stmdavs	r7!, {r1, r4, r5, r6, r8, fp, sp, lr}^
    1e40:	656e0074 	strbvs	r0, [lr, #-116]!	; 0xffffff8c
    1e44:	665f7478 			; <UNDEFINED> instruction: 0x665f7478
    1e48:	555f006e 	ldrbpl	r0, [pc, #-110]	; 1de2 <_Unwind_VRS_Pop+0x20a>
    1e4c:	485f4352 	ldmdami	pc, {r1, r4, r6, r8, r9, lr}^	; <UNPREDICTABLE>
    1e50:	4c444e41 	mcrrmi	14, 4, r4, r4, cr1
    1e54:	465f5245 	ldrbmi	r5, [pc], -r5, asr #4
    1e58:	444e554f 	strbmi	r5, [lr], #-1359	; 0xfffffab1
    1e5c:	74616d00 	strbtvc	r6, [r1], #-3328	; 0xfffff300
    1e60:	745f6863 	ldrbvc	r6, [pc], #-2147	; 1e68 <__gnu_Unwind_Restore_WMMXD+0x18>
    1e64:	00657079 	rsbeq	r7, r5, r9, ror r0
    1e68:	746e6f63 	strbtvc	r6, [lr], #-3939	; 0xfffff09d
    1e6c:	00747865 	rsbseq	r7, r4, r5, ror #16
    1e70:	20554e47 	subscs	r4, r5, r7, asr #28
    1e74:	2e342043 	cdpcs	0, 3, cr2, cr4, cr3, {2}
    1e78:	20782e39 	rsbscs	r2, r8, r9, lsr lr
    1e7c:	35313032 	ldrcc	r3, [r1, #-50]!	; 0xffffffce
    1e80:	33323130 	teqcc	r2, #48, 2
    1e84:	72702820 	rsbsvc	r2, r0, #32, 16	; 0x200000
    1e88:	6c657265 	sfmvs	f7, 2, [r5], #-404	; 0xfffffe6c
    1e8c:	65736165 	ldrbvs	r6, [r3, #-357]!	; 0xfffffe9b
    1e90:	6d2d2029 	stcvs	0, cr2, [sp, #-164]!	; 0xffffff5c
    1e94:	6e6f6962 	vnmulvs.f16	s13, s30, s5	; <UNPREDICTABLE>
    1e98:	2d206369 	stccs	3, cr6, [r0, #-420]!	; 0xfffffe5c
    1e9c:	6372616d 	cmnvs	r2, #1073741851	; 0x4000001b
    1ea0:	72613d68 	rsbvc	r3, r1, #104, 26	; 0x1a00
    1ea4:	2d37766d 	ldccs	6, cr7, [r7, #-436]!	; 0xfffffe4c
    1ea8:	6d2d2061 	stcvs	0, cr2, [sp, #-388]!	; 0xfffffe7c
    1eac:	6d756874 	ldclvs	8, cr6, [r5, #-464]!	; 0xfffffe30
    1eb0:	6d2d2062 	stcvs	0, cr2, [sp, #-392]!	; 0xfffffe78
    1eb4:	616f6c66 	cmnvs	pc, r6, ror #24
    1eb8:	62612d74 	rsbvs	r2, r1, #116, 26	; 0x1d00
    1ebc:	6f733d69 	svcvs	0x00733d69
    1ec0:	2d207466 	cfstrscs	mvf7, [r0, #-408]!	; 0xfffffe68
    1ec4:	7570666d 	ldrbvc	r6, [r0, #-1645]!	; 0xfffff993
    1ec8:	7066763d 	rsbvc	r7, r6, sp, lsr r6
    1ecc:	746d2d20 	strbtvc	r2, [sp], #-3360	; 0xfffff2e0
    1ed0:	642d736c 	strtvs	r7, [sp], #-876	; 0xfffffc94
    1ed4:	656c6169 	strbvs	r6, [ip, #-361]!	; 0xfffffe97
    1ed8:	673d7463 	ldrvs	r7, [sp, -r3, ror #8]!
    1edc:	2d20756e 	cfstr32cs	mvfx7, [r0, #-440]!	; 0xfffffe48
    1ee0:	672d2067 	strvs	r2, [sp, -r7, rrx]!
    1ee4:	20672d20 	rsbcs	r2, r7, r0, lsr #26
    1ee8:	20324f2d 	eorscs	r4, r2, sp, lsr #30
    1eec:	20734f2d 	rsbscs	r4, r3, sp, lsr #30
    1ef0:	20324f2d 	eorscs	r4, r2, sp, lsr #30
    1ef4:	20324f2d 	eorscs	r4, r2, sp, lsr #30
    1ef8:	20734f2d 	rsbscs	r4, r3, sp, lsr #30
    1efc:	6f6e662d 	svcvs	0x006e662d
    1f00:	6f68732d 	svcvs	0x0068732d
    1f04:	652d7472 	strvs	r7, [sp, #-1138]!	; 0xfffffb8e
    1f08:	736d756e 	cmnvc	sp, #461373440	; 0x1b800000
    1f0c:	62662d20 	rsbvs	r2, r6, #32, 26	; 0x800
    1f10:	646c6975 	strbtvs	r6, [ip], #-2421	; 0xfffff68b
    1f14:	2d676e69 	stclcs	14, cr6, [r7, #-420]!	; 0xfffffe5c
    1f18:	6762696c 	strbvs	r6, [r2, -ip, ror #18]!
    1f1c:	2d206363 	stccs	3, cr6, [r0, #-396]!	; 0xfffffe74
    1f20:	2d6f6e66 	stclcs	14, cr6, [pc, #-408]!	; 1d90 <_Unwind_VRS_Pop+0x1b8>
    1f24:	63617473 	cmnvs	r1, #1929379840	; 0x73000000
    1f28:	72702d6b 	rsbsvc	r2, r0, #6848	; 0x1ac0
    1f2c:	6365746f 	cmnvs	r5, #1862270976	; 0x6f000000
    1f30:	20726f74 	rsbscs	r6, r2, r4, ror pc
    1f34:	6e75662d 	cdpvs	6, 7, cr6, cr5, cr13, {1}
    1f38:	646e6977 	strbtvs	r6, [lr], #-2423	; 0xfffff689
    1f3c:	6261742d 	rsbvs	r7, r1, #754974720	; 0x2d000000
    1f40:	2073656c 	rsbscs	r6, r3, ip, ror #10
    1f44:	4950662d 	ldmdbmi	r0, {r0, r2, r3, r5, r9, sl, sp, lr}^
    1f48:	662d2043 	strtvs	r2, [sp], -r3, asr #32
    1f4c:	692d6f6e 	pushvs	{r1, r2, r3, r5, r6, r8, r9, sl, fp, sp, lr}
    1f50:	6e696c6e 	cdpvs	12, 6, cr6, cr9, cr14, {3}
    1f54:	662d2065 	strtvs	r2, [sp], -r5, rrx
    1f58:	65637865 	strbvs	r7, [r3, #-2149]!	; 0xfffff79b
    1f5c:	6f697470 	svcvs	0x00697470
    1f60:	6200736e 	andvs	r7, r0, #-1207959551	; 0xb8000001
    1f64:	006c6f6f 	rsbeq	r6, ip, pc, ror #30
    1f68:	74736572 	ldrbtvc	r6, [r3], #-1394	; 0xfffffa8e
    1f6c:	5f65726f 	svcpl	0x0065726f
    1f70:	5f6e6f6e 	svcpl	0x006e6f6e
    1f74:	65726f63 	ldrbvs	r6, [r2, #-3939]!	; 0xfffff09d
    1f78:	6765725f 			; <UNDEFINED> instruction: 0x6765725f
    1f7c:	555f0073 	ldrbpl	r0, [pc, #-115]	; 1f11 <_Unwind_RaiseException+0x11>
    1f80:	6e69776e 	cdpvs	7, 6, cr7, cr9, cr14, {3}
    1f84:	6f435f64 	svcvs	0x00435f64
    1f88:	6f72746e 	svcvs	0x0072746e
    1f8c:	6c425f6c 	mcrrvs	15, 6, r5, r2, cr12
    1f90:	006b636f 	rsbeq	r6, fp, pc, ror #6
    1f94:	69646461 	stmdbvs	r4!, {r0, r5, r6, sl, sp, lr}^
    1f98:	6e6f6974 			; <UNDEFINED> instruction: 0x6e6f6974
    1f9c:	5f006c61 	svcpl	0x00006c61
    1fa0:	756e675f 	strbvc	r6, [lr, #-1887]!	; 0xfffff8a1
    1fa4:	776e755f 			; <UNDEFINED> instruction: 0x776e755f
    1fa8:	5f646e69 	svcpl	0x00646e69
    1fac:	74617473 	strbtvc	r7, [r1], #-1139	; 0xfffffb8d
    1fb0:	555f0065 	ldrbpl	r0, [pc, #-101]	; 1f53 <_Unwind_Resume_or_Rethrow+0xb>
    1fb4:	6e69776e 	cdpvs	7, 6, cr7, cr9, cr14, {3}
    1fb8:	52565f64 	subspl	r5, r6, #100, 30	; 0x190
    1fbc:	6f505f53 	svcvs	0x00505f53
    1fc0:	65720070 	ldrbvs	r0, [r2, #-112]!	; 0xffffff90
    1fc4:	006f6e67 	rsbeq	r6, pc, r7, ror #28
    1fc8:	776e555f 			; <UNDEFINED> instruction: 0x776e555f
    1fcc:	5f646e69 	svcpl	0x00646e69
    1fd0:	75626544 	strbvc	r6, [r2, #-1348]!	; 0xfffffabc
    1fd4:	6f6f4867 	svcvs	0x006f4867
    1fd8:	6676006b 	ldrbtvs	r0, [r6], -fp, rrx
    1fdc:	65725f70 	ldrbvs	r5, [r2, #-3952]!	; 0xfffff090
    1fe0:	75007367 	strvc	r7, [r0, #-871]	; 0xfffffc99
    1fe4:	6e69776e 	cdpvs	7, 6, cr7, cr9, cr14, {3}
    1fe8:	68705f64 	ldmdavs	r0!, {r2, r5, r6, r8, r9, sl, fp, ip, lr}^
    1fec:	32657361 	rsbcc	r7, r5, #-2080374783	; 0x84000001
    1ff0:	726f665f 	rsbvc	r6, pc, #99614720	; 0x5f00000
    1ff4:	00646563 	rsbeq	r6, r4, r3, ror #10
    1ff8:	706f7473 	rsbvc	r7, pc, r3, ror r4	; <UNPREDICTABLE>
    1ffc:	646f635f 	strbtvs	r6, [pc], #-863	; 2004 <__gnu_unwind_execute+0xa>
    2000:	78650065 	stmdavc	r5!, {r0, r2, r5, r6}^
    2004:	74706563 	ldrbtvc	r6, [r0], #-1379	; 0xfffffa9d
    2008:	5f6e6f69 	svcpl	0x006e6f69
    200c:	73616c63 	cmnvc	r1, #25344	; 0x6300
    2010:	6f630073 	svcvs	0x00630073
    2014:	6361706d 	cmnvs	r1, #109	; 0x6d
    2018:	61620074 	smcvs	8196	; 0x2004
    201c:	65697272 	strbvs	r7, [r9, #-626]!	; 0xfffffd8e
    2020:	61635f72 	smcvs	13810	; 0x35f2
    2024:	00656863 	rsbeq	r6, r5, r3, ror #16
    2028:	5f6d7463 	svcpl	0x006d7463
    202c:	6c696166 	stfvse	f6, [r9], #-408	; 0xfffffe68
    2030:	5f006465 	svcpl	0x00006465
    2034:	53525655 	cmppl	r2, #89128960	; 0x5500000
    2038:	4f4e5f52 	svcmi	0x004e5f52
    203c:	4d495f54 	stclmi	15, cr5, [r9, #-336]	; 0xfffffeb0
    2040:	4d454c50 	stclmi	12, cr4, [r5, #-320]	; 0xfffffec0
    2044:	45544e45 	ldrbmi	r4, [r4, #-3653]	; 0xfffff1bb
    2048:	5f5f0044 	svcpl	0x005f0044
    204c:	5f617863 	svcpl	0x00617863
    2050:	69676562 	stmdbvs	r7!, {r1, r5, r6, r8, sl, sp, lr}^
    2054:	6c635f6e 	stclvs	15, cr5, [r3], #-440	; 0xfffffe48
    2058:	756e6165 	strbvc	r6, [lr, #-357]!	; 0xfffffe9b
    205c:	6e650070 	mcrvs	0, 3, r0, cr5, cr0, {3}
    2060:	5f797274 	svcpl	0x00797274
    2064:	00737276 	rsbseq	r7, r3, r6, ror r2
    2068:	3877755f 	ldmdacc	r7!, {r0, r1, r2, r3, r4, r6, r8, sl, ip, sp, lr}^
    206c:	675f5f00 	ldrbvs	r5, [pc, -r0, lsl #30]
    2070:	555f756e 	ldrbpl	r7, [pc, #-1390]	; 1b0a <__gnu_unwind_pr_common+0x1a8>
    2074:	6e69776e 	cdpvs	7, 6, cr7, cr9, cr14, {3}
    2078:	61535f64 	cmpvs	r3, r4, ror #30
    207c:	565f6576 			; <UNDEFINED> instruction: 0x565f6576
    2080:	445f5046 	ldrbmi	r5, [pc], #-70	; 2088 <__gnu_unwind_execute+0x8e>
    2084:	73696400 	cmnvc	r9, #0, 8
    2088:	6d697263 	sfmvs	f7, 2, [r9, #-396]!	; 0xfffffe74
    208c:	74616e69 	strbtvc	r6, [r1], #-3689	; 0xfffff197
    2090:	6300726f 	movwvs	r7, #623	; 0x26f
    2094:	735f6d74 	cmpvc	pc, #116, 26	; 0x1d00
    2098:	65636375 	strbvs	r6, [r3, #-885]!	; 0xfffffc8b
    209c:	64656465 	strbtvs	r6, [r5], #-1125	; 0xfffffb9b
    20a0:	7469775f 	strbtvc	r7, [r9], #-1887	; 0xfffff8a1
    20a4:	74705f68 	ldrbtvc	r5, [r0], #-3944	; 0xfffff098
    20a8:	6f745f72 	svcvs	0x00745f72
    20ac:	7361625f 	cmnvc	r1, #-268435451	; 0xf0000005
    20b0:	555f0065 	ldrbpl	r0, [pc, #-101]	; 2053 <__gnu_unwind_execute+0x59>
    20b4:	43535256 	cmpmi	r3, #1610612741	; 0x60000005
    20b8:	5046565f 	subpl	r5, r6, pc, asr r6
    20bc:	6f687300 	svcvs	0x00687300
    20c0:	69207472 	stmdbvs	r0!, {r1, r4, r5, r6, sl, ip, sp, lr}
    20c4:	5f00746e 	svcpl	0x0000746e
    20c8:	756e675f 	strbvc	r6, [lr, #-1887]!	; 0xfffff8a1
    20cc:	776e555f 			; <UNDEFINED> instruction: 0x776e555f
    20d0:	5f646e69 	svcpl	0x00646e69
    20d4:	65766153 	ldrbvs	r6, [r6, #-339]!	; 0xfffffead
    20d8:	5046565f 	subpl	r5, r6, pc, asr r6
    20dc:	315f445f 	cmpcc	pc, pc, asr r4	; <UNPREDICTABLE>
    20e0:	6f745f36 	svcvs	0x00745f36
    20e4:	0031335f 	eorseq	r3, r1, pc, asr r3
    20e8:	4352555f 	cmpmi	r2, #398458880	; 0x17c00000
    20ec:	444e455f 	strbmi	r4, [lr], #-1375	; 0xfffffaa1
    20f0:	5f464f5f 	svcpl	0x00464f5f
    20f4:	43415453 	movtmi	r5, #5203	; 0x1453
    20f8:	6f6c004b 	svcvs	0x006c004b
    20fc:	6920676e 	stmdbvs	r0!, {r1, r2, r3, r5, r6, r8, r9, sl, sp, lr}
    2100:	6c00746e 	cfstrsvs	mvf7, [r0], {110}	; 0x6e
    2104:	74676e65 	strbtvc	r6, [r7], #-3685	; 0xfffff19b
    2108:	79740068 	ldmdbvc	r4!, {r3, r5, r6}^
    210c:	695f6570 	ldmdbvs	pc, {r4, r5, r6, r8, sl, sp, lr}^	; <UNPREDICTABLE>
    2110:	006f666e 	rsbeq	r6, pc, lr, ror #12
    2114:	6e675f5f 	mcrvs	15, 3, r5, cr7, cr15, {2}
    2118:	6e555f75 	mrcvs	15, 2, r5, cr5, cr5, {3}
    211c:	646e6977 	strbtvs	r6, [lr], #-2423	; 0xfffff689
    2120:	7661535f 			; <UNDEFINED> instruction: 0x7661535f
    2124:	4d575f65 	ldclmi	15, cr5, [r7, #-404]	; 0xfffffe6c
    2128:	0043584d 	subeq	r5, r3, sp, asr #16
    212c:	6e675f5f 	mcrvs	15, 3, r5, cr7, cr15, {2}
    2130:	6e555f75 	mrcvs	15, 2, r5, cr5, cr5, {3}
    2134:	646e6977 	strbtvs	r6, [lr], #-2423	; 0xfffff689
    2138:	7661535f 			; <UNDEFINED> instruction: 0x7661535f
    213c:	4d575f65 	ldclmi	15, cr5, [r7, #-404]	; 0xfffffe6c
    2140:	0044584d 	subeq	r5, r4, sp, asr #16
    2144:	69776e75 	ldmdbvs	r7!, {r0, r2, r4, r5, r6, r9, sl, fp, sp, lr}^
    2148:	705f646e 	subsvc	r6, pc, lr, ror #8
    214c:	65736168 	ldrbvs	r6, [r3, #-360]!	; 0xfffffe98
    2150:	6e660032 	mcrvs	0, 3, r0, cr6, cr2, {1}
    2154:	7366666f 	cmnvc	r6, #116391936	; 0x6f00000
    2158:	61007465 	tstvs	r0, r5, ror #8
    215c:	6f697463 	svcvs	0x00697463
    2160:	656c006e 	strbvs	r0, [ip, #-110]!	; 0xffffff92
    2164:	72007466 	andvc	r7, r0, #1711276032	; 0x66000000
    2168:	72657365 	rsbvc	r7, r5, #-1811939327	; 0x94000001
    216c:	34646576 	strbtcc	r6, [r4], #-1398	; 0xfffffa8a
    2170:	73657200 	cmnvc	r5, #0, 4
    2174:	65767265 	ldrbvs	r7, [r6, #-613]!	; 0xfffffd9b
    2178:	5f003564 	svcpl	0x00003564
    217c:	5f435255 	svcpl	0x00435255
    2180:	45524f46 	ldrbmi	r4, [r2, #-3910]	; 0xfffff0ba
    2184:	5f4e4749 	svcpl	0x004e4749
    2188:	45435845 	strbmi	r5, [r3, #-2117]	; 0xfffff7bb
    218c:	4f495450 	svcmi	0x00495450
    2190:	41435f4e 	cmpmi	r3, lr, asr #30
    2194:	54484755 	strbpl	r4, [r8], #-1877	; 0xfffff8ab
    2198:	61747300 	cmnvs	r4, r0, lsl #6
    219c:	2f007472 	svccs	0x00007472
    21a0:	756c6f56 	strbvc	r6, [ip, #-3926]!	; 0xfffff0aa
    21a4:	2f73656d 	svccs	0x0073656d
    21a8:	72646e41 	rsbvc	r6, r4, #1040	; 0x410
    21ac:	2f64696f 	svccs	0x0064696f
    21b0:	6c697562 	cfstr64vs	mvdx7, [r9], #-392	; 0xfffffe78
    21b4:	746f6264 	strbtvc	r6, [pc], #-612	; 21bc <__gnu_unwind_execute+0x1c2>
    21b8:	6372732f 	cmnvs	r2, #-1140850688	; 0xbc000000
    21bc:	646e612f 	strbtvs	r6, [lr], #-303	; 0xfffffed1
    21c0:	64696f72 	strbtvs	r6, [r9], #-3954	; 0xfffff08e
    21c4:	6363672f 	cmnvs	r3, #12320768	; 0xbc0000
    21c8:	6f6f742f 	svcvs	0x006f742f
    21cc:	6168636c 	cmnvs	r8, ip, ror #6
    21d0:	622f6e69 	eorvs	r6, pc, #1680	; 0x690
    21d4:	646c6975 	strbtvs	r6, [ip], #-2421	; 0xfffff68b
    21d8:	2f2e2e2f 	svccs	0x002e2e2f
    21dc:	2f636367 	svccs	0x00636367
    21e0:	2d636367 	stclcs	3, cr6, [r3, #-412]!	; 0xfffffe64
    21e4:	2f392e34 	svccs	0x00392e34
    21e8:	6762696c 	strbvs	r6, [r2, -ip, ror #18]!
    21ec:	632f6363 			; <UNDEFINED> instruction: 0x632f6363
    21f0:	69666e6f 	stmdbvs	r6!, {r0, r1, r2, r3, r5, r6, r9, sl, fp, sp, lr}^
    21f4:	72612f67 	rsbvc	r2, r1, #412	; 0x19c
    21f8:	6e752f6d 	cdpvs	15, 7, cr2, cr5, cr13, {3}
    21fc:	646e6977 	strbtvs	r6, [lr], #-2423	; 0xfffff689
    2200:	6d72612d 	ldfvse	f6, [r2, #-180]!	; 0xffffff4c
    2204:	7500632e 	strvc	r6, [r0, #-814]	; 0xfffffcd2
    2208:	00706263 	rsbseq	r6, r0, r3, ror #4
    220c:	776e555f 			; <UNDEFINED> instruction: 0x776e555f
    2210:	5f646e69 	svcpl	0x00646e69
    2214:	64726f57 	ldrbtvs	r6, [r2], #-3927	; 0xfffff0a9
    2218:	56555f00 	ldrbpl	r5, [r5], -r0, lsl #30
    221c:	5f445352 	svcpl	0x00445352
    2220:	58415046 	stmdapl	r1, {r1, r2, r6, ip, lr}^
    2224:	74616d00 	strbtvc	r6, [r1], #-3328	; 0xfffff300
    2228:	64656863 	strbtvs	r6, [r5], #-2147	; 0xfffff79d
    222c:	6e6f6c00 	cdpvs	12, 6, cr6, cr15, cr0, {0}
    2230:	6e752067 	cdpvs	0, 7, cr2, cr5, cr7, {3}
    2234:	6e676973 			; <UNDEFINED> instruction: 0x6e676973
    2238:	69206465 	stmdbvs	r0!, {r0, r2, r5, r6, sl, sp, lr}
    223c:	5f00746e 	svcpl	0x0000746e
    2240:	69776e55 	ldmdbvs	r7!, {r0, r2, r4, r6, r9, sl, fp, sp, lr}^
    2244:	565f646e 	ldrbpl	r6, [pc], -lr, ror #8
    2248:	445f5352 	ldrbmi	r5, [pc], #-850	; 2250 <__gnu_unwind_execute+0x256>
    224c:	52617461 	rsbpl	r7, r1, #1627389952	; 0x61000000
    2250:	65727065 	ldrbvs	r7, [r2, #-101]!	; 0xffffff9b
    2254:	746e6573 	strbtvc	r6, [lr], #-1395	; 0xfffffa8d
    2258:	6f697461 	svcvs	0x00697461
    225c:	6d77006e 	ldclvs	0, cr0, [r7, #-440]!	; 0xfffffe48
    2260:	5f63786d 	svcpl	0x0063786d
    2264:	73676572 	cmnvc	r7, #478150656	; 0x1c800000
    2268:	73657200 	cmnvc	r5, #0, 4
    226c:	6e696d75 	mcrvs	13, 3, r6, cr9, cr5, {3}
    2270:	68650067 	stmdavs	r5!, {r0, r1, r2, r5, r6}^
    2274:	5f007074 	svcpl	0x00007074
    2278:	36317775 			; <UNDEFINED> instruction: 0x36317775
    227c:	61747300 	cmnvs	r4, r0, lsl #6
    2280:	5f006574 	svcpl	0x00006574
    2284:	69776e55 	ldmdbvs	r7!, {r0, r2, r4, r6, r9, sl, fp, sp, lr}^
    2288:	505f646e 	subspl	r6, pc, lr, ror #8
    228c:	66007274 			; <UNDEFINED> instruction: 0x66007274
    2290:	6563726f 	strbvs	r7, [r3, #-623]!	; 0xfffffd91
    2294:	6e755f64 	cdpvs	15, 7, cr5, cr5, cr4, {3}
    2298:	646e6977 	strbtvs	r6, [lr], #-2423	; 0xfffff689
    229c:	5f727000 	svcpl	0x00727000
    22a0:	68636163 	stmdavs	r3!, {r0, r1, r5, r6, r8, sp, lr}^
    22a4:	73690065 	cmnvc	r9, #101	; 0x65
    22a8:	6665725f 			; <UNDEFINED> instruction: 0x6665725f
    22ac:	6e657265 	cdpvs	2, 6, cr7, cr5, cr5, {3}
    22b0:	70006563 	andvc	r6, r0, r3, ror #10
    22b4:	65736168 	ldrbvs	r6, [r3, #-360]!	; 0xfffffe98
    22b8:	61635f32 	cmnvs	r3, r2, lsr pc
    22bc:	755f6c6c 	ldrbvc	r6, [pc, #-3180]	; 1658 <restore_non_core_regs+0x30>
    22c0:	7078656e 	rsbsvc	r6, r8, lr, ror #10
    22c4:	65746365 	ldrbvs	r6, [r4, #-869]!	; 0xfffffc9b
    22c8:	66615f64 	strbtvs	r5, [r1], -r4, ror #30
    22cc:	5f726574 	svcpl	0x00726574
    22d0:	69776e75 	ldmdbvs	r7!, {r0, r2, r4, r5, r6, r9, sl, fp, sp, lr}^
    22d4:	6600646e 	strvs	r6, [r0], -lr, ror #8
    22d8:	6174736e 	cmnvs	r4, lr, ror #6
    22dc:	2f007472 	svccs	0x00007472
    22e0:	756c6f56 	strbvc	r6, [ip, #-3926]!	; 0xfffff0aa
    22e4:	2f73656d 	svccs	0x0073656d
    22e8:	72646e41 	rsbvc	r6, r4, #1040	; 0x410
    22ec:	2f64696f 	svccs	0x0064696f
    22f0:	6c697562 	cfstr64vs	mvdx7, [r9], #-392	; 0xfffffe78
    22f4:	746f6264 	strbtvc	r6, [pc], #-612	; 22fc <_Unwind_GetTextRelBase+0x40>
    22f8:	706d742f 	rsbvc	r7, sp, pc, lsr #8
    22fc:	6975622f 	ldmdbvs	r5!, {r0, r1, r2, r3, r5, r9, sp, lr}^
    2300:	742f646c 	strtvc	r6, [pc], #-1132	; 2308 <__exidx_start+0x8>
    2304:	636c6f6f 	cmnvs	ip, #444	; 0x1bc
    2308:	6e696168 	powvsez	f6, f1, #0.0
    230c:	6363672f 	cmnvs	r3, #12320768	; 0xbc0000
    2310:	392e342d 	stmdbcc	lr!, {r0, r2, r3, r5, sl, ip, sp}
    2314:	6d72612f 	ldfvse	f6, [r2, #-188]!	; 0xffffff44
    2318:	6e696c2d 	cdpvs	12, 6, cr6, cr9, cr13, {1}
    231c:	612d7875 			; <UNDEFINED> instruction: 0x612d7875
    2320:	6f72646e 	svcvs	0x0072646e
    2324:	61656469 	cmnvs	r5, r9, ror #8
    2328:	612f6962 			; <UNDEFINED> instruction: 0x612f6962
    232c:	37766d72 			; <UNDEFINED> instruction: 0x37766d72
    2330:	742f612d 	strtvc	r6, [pc], #-301	; 2338 <__exidx_start+0x38>
    2334:	626d7568 	rsbvs	r7, sp, #104, 10	; 0x1a000000
    2338:	62696c2f 	rsbvs	r6, r9, #12032	; 0x2f00
    233c:	00636367 	rsbeq	r6, r3, r7, ror #6
    2340:	5256555f 	subspl	r5, r6, #398458880	; 0x17c00000
    2344:	465f5253 			; <UNDEFINED> instruction: 0x465f5253
    2348:	454c4941 	strbmi	r4, [ip, #-2369]	; 0xfffff6bf
    234c:	6f630044 	svcvs	0x00630044
    2350:	6e65746e 	cdpvs	4, 6, cr7, cr5, cr14, {3}
    2354:	64610074 	strbtvs	r0, [r1], #-116	; 0xffffff8c
    2358:	5f007264 	svcpl	0x00007264
    235c:	6978655f 	ldmdbvs	r8!, {r0, r1, r2, r3, r4, r6, r8, sl, sp, lr}^
    2360:	655f7864 	ldrbvs	r7, [pc, #-2148]	; 1b04 <__gnu_unwind_pr_common+0x1a2>
    2364:	5f00646e 	svcpl	0x0000646e
    2368:	69776e55 	ldmdbvs	r7!, {r0, r2, r4, r6, r9, sl, fp, sp, lr}^
    236c:	535f646e 	cmppl	pc, #1845493760	; 0x6e000000
    2370:	65746174 	ldrbvs	r6, [r4, #-372]!	; 0xfffffe8c
    2374:	56555f00 	ldrbpl	r5, [r5], -r0, lsl #30
    2378:	5f435352 	svcpl	0x00435352
    237c:	584d4d57 	stmdapl	sp, {r0, r1, r2, r4, r6, r8, sl, fp, lr}^
    2380:	66760043 	ldrbtvs	r0, [r6], -r3, asr #32
    2384:	65725f70 	ldrbvs	r5, [r2, #-3952]!	; 0xfffff090
    2388:	315f7367 	cmpcc	pc, r7, ror #6
    238c:	6f745f36 	svcvs	0x00745f36
    2390:	0031335f 	eorseq	r3, r1, pc, asr r3
    2394:	726f6873 	rsbvc	r6, pc, #7536640	; 0x730000
    2398:	6e752074 	mrcvs	0, 3, r2, cr5, cr4, {3}
    239c:	6e676973 			; <UNDEFINED> instruction: 0x6e676973
    23a0:	69206465 	stmdbvs	r0!, {r0, r2, r5, r6, sl, sp, lr}
    23a4:	7000746e 	andvc	r7, r0, lr, ror #8
    23a8:	65736168 	ldrbvs	r6, [r3, #-360]!	; 0xfffffe98
    23ac:	72765f32 	rsbsvc	r5, r6, #50, 30	; 0xc8
    23b0:	656d0073 	strbvs	r0, [sp, #-115]!	; 0xffffff8d
    23b4:	7970636d 	ldmdbvc	r0!, {r0, r2, r3, r5, r6, r8, r9, sp, lr}^
    23b8:	56555f00 	ldrbpl	r5, [r5], -r0, lsl #30
    23bc:	5f445352 	svcpl	0x00445352
    23c0:	544e4955 	strbpl	r4, [lr], #-2389	; 0xfffff6ab
    23c4:	70003233 	andvc	r3, r0, r3, lsr r2
    23c8:	6f737265 	svcvs	0x00737265
    23cc:	696c616e 	stmdbvs	ip!, {r1, r2, r3, r5, r6, r8, sp, lr}^
    23d0:	725f7974 	subsvc	r7, pc, #116, 18	; 0x1d0000
    23d4:	6974756f 	ldmdbvs	r4!, {r0, r1, r2, r3, r5, r6, r8, sl, ip, sp, lr}^
    23d8:	5f00656e 	svcpl	0x0000656e
    23dc:	756e675f 	strbvc	r6, [lr, #-1887]!	; 0xfffff8a1
    23e0:	776e755f 			; <UNDEFINED> instruction: 0x776e755f
    23e4:	5f646e69 	svcpl	0x00646e69
    23e8:	63657865 	cmnvs	r5, #6619136	; 0x650000
    23ec:	00657475 	rsbeq	r7, r5, r5, ror r4
    23f0:	706f7473 	rsbvc	r7, pc, r3, ror r4	; <UNPREDICTABLE>
    23f4:	6772615f 			; <UNDEFINED> instruction: 0x6772615f
    23f8:	6e555f00 	cdpvs	15, 5, cr5, cr5, cr0, {0}
    23fc:	646e6977 	strbtvs	r6, [lr], #-2423	; 0xfffff689
    2400:	7465535f 	strbtvc	r5, [r5], #-863	; 0xfffffca1
    2404:	5f005247 	svcpl	0x00005247
    2408:	69776e55 	ldmdbvs	r7!, {r0, r2, r4, r6, r9, sl, fp, sp, lr}^
    240c:	565f646e 	ldrbpl	r6, [pc], -lr, ror #8
    2410:	475f5352 			; <UNDEFINED> instruction: 0x475f5352
    2414:	72007465 	andvc	r7, r0, #1694498816	; 0x65000000
    2418:	00697474 	rsbeq	r7, r9, r4, ror r4
    241c:	69747472 	ldmdbvs	r4!, {r1, r4, r5, r6, sl, ip, sp, lr}^
    2420:	756f635f 	strbvc	r6, [pc, #-863]!	; 20c9 <__gnu_unwind_execute+0xcf>
    2424:	5f00746e 	svcpl	0x0000746e
    2428:	69776e55 	ldmdbvs	r7!, {r0, r2, r4, r6, r9, sl, fp, sp, lr}^
    242c:	445f646e 	ldrbmi	r6, [pc], #-1134	; 2434 <__exidx_end+0xc>
    2430:	74656c65 	strbtvc	r6, [r5], #-3173	; 0xfffff39b
    2434:	63784565 	cmnvs	r8, #423624704	; 0x19400000
    2438:	69747065 	ldmdbvs	r4!, {r0, r2, r5, r6, ip, sp, lr}^
    243c:	5f006e6f 	svcpl	0x00006e6f
    2440:	53525655 	cmppl	r2, #89128960	; 0x5500000
    2444:	50465f43 	subpl	r5, r6, r3, asr #30
    2448:	555f0041 	ldrbpl	r0, [pc, #-65]	; 240f <__exidx_start+0x10f>
    244c:	6e69776e 	cdpvs	7, 6, cr7, cr9, cr14, {3}
    2450:	65475f64 	strbvs	r5, [r7, #-3940]	; 0xfffff09c
    2454:	00524774 	subseq	r4, r2, r4, ror r7
    2458:	4352555f 	cmpmi	r2, #398458880	; 0x17c00000
    245c:	4941465f 	stmdbmi	r1, {r0, r1, r2, r3, r4, r6, r9, sl, lr}^
    2460:	4552554c 	ldrbmi	r5, [r2, #-1356]	; 0xfffffab4
    2464:	65726e00 	ldrbvs	r6, [r2, #-3584]!	; 0xfffff200
    2468:	555f0063 	ldrbpl	r0, [pc, #-99]	; 240d <__exidx_start+0x10d>
    246c:	49565f53 	ldmdbmi	r6, {r0, r1, r4, r6, r8, r9, sl, fp, ip, lr}^
    2470:	41555452 	cmpmi	r5, r2, asr r4
    2474:	4e555f4c 	cdpmi	15, 5, cr5, cr5, cr12, {2}
    2478:	444e4957 	strbmi	r4, [lr], #-2391	; 0xfffff6a9
    247c:	4152465f 	cmpmi	r2, pc, asr r6
    2480:	6400454d 	strvs	r4, [r0], #-1357	; 0xfffffab3
    2484:	00747365 	rsbseq	r7, r4, r5, ror #6
    2488:	6e675f5f 	mcrvs	15, 3, r5, cr7, cr15, {2}
    248c:	6e555f75 	mrcvs	15, 2, r5, cr5, cr5, {3}
    2490:	646e6977 	strbtvs	r6, [lr], #-2423	; 0xfffff689
    2494:	7365525f 	cmnvc	r5, #-268435451	; 0xf0000005
    2498:	00656d75 	rsbeq	r6, r5, r5, ror sp
    249c:	666c6573 			; <UNDEFINED> instruction: 0x666c6573
    24a0:	5f6c6572 	svcpl	0x006c6572
    24a4:	7366666f 	cmnvc	r6, #116391936	; 0x6f00000
    24a8:	31337465 	teqcc	r3, r5, ror #8
    24ac:	52555f00 	subspl	r5, r5, #0, 30
    24b0:	4b4f5f43 	blmi	13da1c4 <_end+0x13d61bc>
    24b4:	675f5f00 	ldrbvs	r5, [pc, -r0, lsl #30]
    24b8:	755f756e 	ldrbvc	r7, [pc, #-1390]	; 1f52 <_Unwind_Resume_or_Rethrow+0xa>
    24bc:	6e69776e 	cdpvs	7, 6, cr7, cr9, cr14, {3}
    24c0:	34325f64 	ldrtcc	r5, [r2], #-3940	; 0xfffff09c
    24c4:	00746962 	rsbseq	r6, r4, r2, ror #18
    24c8:	776e555f 			; <UNDEFINED> instruction: 0x776e555f
    24cc:	5f646e69 	svcpl	0x00646e69
    24d0:	52746547 	rsbspl	r6, r4, #297795584	; 0x11c00000
    24d4:	6f696765 	svcvs	0x00696765
    24d8:	6174536e 	cmnvs	r4, lr, ror #6
    24dc:	5f007472 	svcpl	0x00007472
    24e0:	756e675f 	strbvc	r6, [lr, #-1887]!	; 0xfffff8a1
    24e4:	776e755f 			; <UNDEFINED> instruction: 0x776e755f
    24e8:	5f646e69 	svcpl	0x00646e69
    24ec:	6d617266 	sfmvs	f7, 2, [r1, #-408]!	; 0xfffffe68
    24f0:	555f0065 	ldrbpl	r0, [pc, #-101]	; 2493 <__exidx_end+0x6b>
    24f4:	6e69776e 	cdpvs	7, 6, cr7, cr9, cr14, {3}
    24f8:	65475f64 	strbvs	r5, [r7, #-3940]	; 0xfffff09c
    24fc:	6e614c74 	mcrvs	12, 3, r4, cr1, cr4, {3}
    2500:	67617567 	strbvs	r7, [r1, -r7, ror #10]!
    2504:	65705365 	ldrbvs	r5, [r0, #-869]!	; 0xfffffc9b
    2508:	69666963 	stmdbvs	r6!, {r0, r1, r5, r6, r8, fp, sp, lr}^
    250c:	74614463 	strbtvc	r4, [r1], #-1123	; 0xfffffb9d
    2510:	656e0061 	strbvs	r0, [lr, #-97]!	; 0xffffff9f
    2514:	755f7478 	ldrbvc	r7, [pc, #-1144]	; 20a4 <__gnu_unwind_execute+0xaa>
    2518:	6e69776e 	cdpvs	7, 6, cr7, cr9, cr14, {3}
    251c:	79625f64 	stmdbvc	r2!, {r2, r5, r6, r8, r9, sl, fp, ip, lr}^
    2520:	2f006574 	svccs	0x00006574
    2524:	756c6f56 	strbvc	r6, [ip, #-3926]!	; 0xfffff0aa
    2528:	2f73656d 	svccs	0x0073656d
    252c:	72646e41 	rsbvc	r6, r4, #1040	; 0x410
    2530:	2f64696f 	svccs	0x0064696f
    2534:	6c697562 	cfstr64vs	mvdx7, [r9], #-392	; 0xfffffe78
    2538:	746f6264 	strbtvc	r6, [pc], #-612	; 2540 <__exidx_end+0x118>
    253c:	6372732f 	cmnvs	r2, #-1140850688	; 0xbc000000
    2540:	646e612f 	strbtvs	r6, [lr], #-303	; 0xfffffed1
    2544:	64696f72 	strbtvs	r6, [r9], #-3954	; 0xfffff08e
    2548:	6363672f 	cmnvs	r3, #12320768	; 0xbc0000
    254c:	6f6f742f 	svcvs	0x006f742f
    2550:	6168636c 	cmnvs	r8, ip, ror #6
    2554:	622f6e69 	eorvs	r6, pc, #1680	; 0x690
    2558:	646c6975 	strbtvs	r6, [ip], #-2421	; 0xfffff68b
    255c:	2f2e2e2f 	svccs	0x002e2e2f
    2560:	2f636367 	svccs	0x00636367
    2564:	2d636367 	stclcs	3, cr6, [r3, #-412]!	; 0xfffffe64
    2568:	2f392e34 	svccs	0x00392e34
    256c:	6762696c 	strbvs	r6, [r2, -ip, ror #18]!
    2570:	632f6363 			; <UNDEFINED> instruction: 0x632f6363
    2574:	69666e6f 	stmdbvs	r6!, {r0, r1, r2, r3, r5, r6, r9, sl, fp, sp, lr}^
    2578:	72612f67 	rsbvc	r2, r1, #412	; 0x19c
    257c:	72702f6d 	rsbsvc	r2, r0, #436	; 0x1b4
    2580:	7075732d 	rsbsvc	r7, r5, sp, lsr #6
    2584:	74726f70 	ldrbtvc	r6, [r2], #-3952	; 0xfffff090
    2588:	5f00632e 	svcpl	0x0000632e
    258c:	69776e55 	ldmdbvs	r7!, {r0, r2, r4, r6, r9, sl, fp, sp, lr}^
    2590:	475f646e 	ldrbmi	r6, [pc, -lr, ror #8]
    2594:	61447465 	cmpvs	r4, r5, ror #8
    2598:	65526174 	ldrbvs	r6, [r2, #-372]	; 0xfffffe8c
    259c:	7361426c 	cmnvc	r1, #108, 4	; 0xc0000006
    25a0:	6e750065 	cdpvs	0, 7, cr0, cr5, cr5, {3}
    25a4:	646e6977 	strbtvs	r6, [lr], #-2423	; 0xfffff689
    25a8:	4243555f 	submi	r5, r3, #398458880	; 0x17c00000
    25ac:	6f72665f 	svcvs	0x0072665f
    25b0:	6f635f6d 	svcvs	0x00635f6d
    25b4:	7865746e 	stmdavc	r5!, {r1, r2, r3, r5, r6, sl, ip, sp, lr}^
    25b8:	555f0074 	ldrbpl	r0, [pc, #-116]	; 254c <__exidx_end+0x124>
    25bc:	6e69776e 	cdpvs	7, 6, cr7, cr9, cr14, {3}
    25c0:	65475f64 	strbvs	r5, [r7, #-3940]	; 0xfffff09c
    25c4:	78655474 	stmdavc	r5!, {r2, r4, r5, r6, sl, ip, lr}^
    25c8:	6c655274 	sfmvs	f5, 2, [r5], #-464	; 0xfffffe30
    25cc:	65736142 	ldrbvs	r6, [r3, #-322]!	; 0xfffffebe
    25d0:	74657300 	strbtvc	r7, [r5], #-768	; 0xfffffd00
    25d4:	0063705f 	rsbeq	r7, r3, pc, asr r0
    25d8:	66696873 			; <UNDEFINED> instruction: 0x66696873
    25dc:	Address 0x00000000000025dc is out of bounds.


Disassembly of section .debug_loc:

00000000 <.debug_loc>:
       0:	00000000 	andeq	r0, r0, r0
       4:	00000010 	andeq	r0, r0, r0, lsl r0
       8:	10500001 	subsne	r0, r0, r1
       c:	12000000 	andne	r0, r0, #0
      10:	04000000 	streq	r0, [r0], #-0
      14:	5001f300 	andpl	pc, r1, r0, lsl #6
      18:	0000009f 	muleq	r0, pc, r0	; <UNPREDICTABLE>
      1c:	00000000 	andeq	r0, r0, r0
      20:	00001200 	andeq	r1, r0, r0, lsl #4
      24:	00002400 	andeq	r2, r0, r0, lsl #8
      28:	50000100 	andpl	r0, r0, r0, lsl #2
      2c:	00000024 	andeq	r0, r0, r4, lsr #32
      30:	00000066 	andeq	r0, r0, r6, rrx
      34:	66580001 	ldrbvs	r0, [r8], -r1
      38:	6a000000 	bvs	40 <note_android_ident-0xf4>
      3c:	01000000 	mrseq	r0, (UNDEF: 0)
      40:	006a5000 	rsbeq	r5, sl, r0
      44:	007a0000 	rsbseq	r0, sl, r0
      48:	00010000 	andeq	r0, r1, r0
      4c:	00000058 	andeq	r0, r0, r8, asr r0
      50:	00000000 	andeq	r0, r0, r0
      54:	00001200 	andeq	r1, r0, r0, lsl #4
      58:	00002400 	andeq	r2, r0, r0, lsl #8
      5c:	51000100 	mrspl	r0, (UNDEF: 16)
      60:	00000024 	andeq	r0, r0, r4, lsr #32
      64:	00000066 	andeq	r0, r0, r6, rrx
      68:	01770003 	cmneq	r7, r3
      6c:	0000669f 	muleq	r0, pc, r6	; <UNPREDICTABLE>
      70:	00006a00 	andeq	r6, r0, r0, lsl #20
      74:	51000100 	mrspl	r0, (UNDEF: 16)
      78:	0000006a 	andeq	r0, r0, sl, rrx
      7c:	00000072 	andeq	r0, r0, r2, ror r0
      80:	01770003 	cmneq	r7, r3
      84:	0000729f 	muleq	r0, pc, r2	; <UNPREDICTABLE>
      88:	00007a00 	andeq	r7, r0, r0, lsl #20
      8c:	f3000400 	vshl.u8	d0, d0, d0
      90:	009f5101 	addseq	r5, pc, r1, lsl #2
      94:	00000000 	andeq	r0, r0, r0
      98:	12000000 	andne	r0, r0, #0
      9c:	24000000 	strcs	r0, [r0], #-0
      a0:	01000000 	mrseq	r0, (UNDEF: 0)
      a4:	00245200 	eoreq	r5, r4, r0, lsl #4
      a8:	00660000 	rsbeq	r0, r6, r0
      ac:	00010000 	andeq	r0, r1, r0
      b0:	0000665a 	andeq	r6, r0, sl, asr r6
      b4:	00006a00 	andeq	r6, r0, r0, lsl #20
      b8:	52000100 	andpl	r0, r0, #0, 2
      bc:	0000006a 	andeq	r0, r0, sl, rrx
      c0:	0000007a 	andeq	r0, r0, sl, ror r0
      c4:	005a0001 	subseq	r0, sl, r1
      c8:	00000000 	andeq	r0, r0, r0
      cc:	4a000000 	bmi	d4 <note_android_ident-0x60>
      d0:	50000000 	andpl	r0, r0, r0
      d4:	03000000 	movweq	r0, #0
      d8:	9f7f7000 	svcls	0x007f7000
      dc:	0000005a 	andeq	r0, r0, sl, asr r0
      e0:	0000005c 	andeq	r0, r0, ip, asr r0
      e4:	7f700003 	svcvc	0x00700003
      e8:	00005c9f 	muleq	r0, pc, ip	; <UNPREDICTABLE>
      ec:	00006600 	andeq	r6, r0, r0, lsl #12
      f0:	50000100 	andpl	r0, r0, r0, lsl #2
      f4:	0000006e 	andeq	r0, r0, lr, rrx
      f8:	00000072 	andeq	r0, r0, r2, ror r0
      fc:	ff090003 			; <UNDEFINED> instruction: 0xff090003
     100:	0000009f 	muleq	r0, pc, r0	; <UNPREDICTABLE>
     104:	00000000 	andeq	r0, r0, r0
     108:	00003a00 	andeq	r3, r0, r0, lsl #20
     10c:	00004400 	andeq	r4, r0, r0, lsl #8
     110:	50000100 	andpl	r0, r0, r0, lsl #2
     114:	00000044 	andeq	r0, r0, r4, asr #32
     118:	00000050 	andeq	r0, r0, r0, asr r0
     11c:	54910002 	ldrpl	r0, [r1], #2
     120:	0000005a 	andeq	r0, r0, sl, asr r0
     124:	00000066 	andeq	r0, r0, r6, rrx
     128:	6e530001 	cdpvs	0, 5, cr0, cr3, cr1, {0}
     12c:	72000000 	andvc	r0, r0, #0
     130:	01000000 	mrseq	r0, (UNDEF: 0)
     134:	00005000 	andeq	r5, r0, r0
     138:	00000000 	andeq	r0, r0, r0
     13c:	002e0000 	eoreq	r0, lr, r0
     140:	00660000 	rsbeq	r0, r6, r0
     144:	00010000 	andeq	r0, r1, r0
     148:	00006a54 	andeq	r6, r0, r4, asr sl
     14c:	00007200 	andeq	r7, r0, r0, lsl #4
     150:	54000100 	strpl	r0, [r0], #-256	; 0xffffff00
	...
     15c:	0000001c 	andeq	r0, r0, ip, lsl r0
     160:	00000024 	andeq	r0, r0, r4, lsr #32
     164:	9f300002 	svcls	0x00300002
     168:	00000024 	andeq	r0, r0, r4, lsr #32
     16c:	00000066 	andeq	r0, r0, r6, rrx
     170:	6a5b0001 	bvs	16c017c <_end+0x16bc174>
     174:	72000000 	andvc	r0, r0, #0
     178:	01000000 	mrseq	r0, (UNDEF: 0)
     17c:	00005b00 	andeq	r5, r0, r0, lsl #22
     180:	00000000 	andeq	r0, r0, r0
     184:	001e0000 	andseq	r0, lr, r0
     188:	00240000 	eoreq	r0, r4, r0
     18c:	00010000 	andeq	r0, r1, r0
     190:	00002457 	andeq	r2, r0, r7, asr r4
     194:	00006600 	andeq	r6, r0, r0, lsl #12
     198:	59000100 	stmdbpl	r0, {r8}
     19c:	0000006a 	andeq	r0, r0, sl, rrx
     1a0:	00000072 	andeq	r0, r0, r2, ror r0
     1a4:	00590001 	subseq	r0, r9, r1
     1a8:	00000000 	andeq	r0, r0, r0
     1ac:	7a000000 	bvc	1b4 <ndk_build_number+0x28>
     1b0:	86000000 	strhi	r0, [r0], -r0
     1b4:	01000000 	mrseq	r0, (UNDEF: 0)
     1b8:	00865000 	addeq	r5, r6, r0
     1bc:	008c0000 	addeq	r0, ip, r0
     1c0:	00040000 	andeq	r0, r4, r0
     1c4:	9f5001f3 	svcls	0x005001f3
     1c8:	0000008c 	andeq	r0, r0, ip, lsl #1
     1cc:	0000008e 	andeq	r0, r0, lr, lsl #1
     1d0:	8e500001 	cdphi	0, 5, cr0, cr0, cr1, {0}
     1d4:	94000000 	strls	r0, [r0], #-0
     1d8:	04000000 	streq	r0, [r0], #-0
     1dc:	5001f300 	andpl	pc, r1, r0, lsl #6
     1e0:	0000949f 	muleq	r0, pc, r4	; <UNPREDICTABLE>
     1e4:	00009600 	andeq	r9, r0, r0, lsl #12
     1e8:	50000100 	andpl	r0, r0, r0, lsl #2
     1ec:	00000096 	muleq	r0, r6, r0
     1f0:	0000009c 	muleq	r0, ip, r0
     1f4:	01f30004 	mvnseq	r0, r4
     1f8:	009c9f50 	addseq	r9, ip, r0, asr pc
     1fc:	009e0000 	addseq	r0, lr, r0
     200:	00010000 	andeq	r0, r1, r0
     204:	00009e50 	andeq	r9, r0, r0, asr lr
     208:	0000ac00 	andeq	sl, r0, r0, lsl #24
     20c:	f3000400 	vshl.u8	d0, d0, d0
     210:	009f5001 	addseq	r5, pc, r1
     214:	00000000 	andeq	r0, r0, r0
     218:	ac000000 	stcge	0, cr0, [r0], {-0}
     21c:	bc000000 	stclt	0, cr0, [r0], {-0}
     220:	01000000 	mrseq	r0, (UNDEF: 0)
     224:	00bc5000 	adcseq	r5, ip, r0
     228:	00cc0000 	sbceq	r0, ip, r0
     22c:	00010000 	andeq	r0, r1, r0
     230:	0000cc54 	andeq	ip, r0, r4, asr ip
     234:	0000d000 	andeq	sp, r0, r0
     238:	50000100 	andpl	r0, r0, r0, lsl #2
     23c:	000000d0 	ldrdeq	r0, [r0], -r0	; <UNPREDICTABLE>
     240:	00000140 	andeq	r0, r0, r0, asr #2
     244:	40540001 	subsmi	r0, r4, r1
     248:	4c000001 	stcmi	0, cr0, [r0], {1}
     24c:	04000001 	streq	r0, [r0], #-1
     250:	5001f300 	andpl	pc, r1, r0, lsl #6
     254:	0000009f 	muleq	r0, pc, r0	; <UNPREDICTABLE>
     258:	00000000 	andeq	r0, r0, r0
     25c:	0000ac00 	andeq	sl, r0, r0, lsl #24
     260:	0000b800 	andeq	fp, r0, r0, lsl #16
     264:	51000100 	mrspl	r0, (UNDEF: 16)
     268:	000000b8 	strheq	r0, [r0], -r8
     26c:	000000c4 	andeq	r0, r0, r4, asr #1
     270:	c4550001 	ldrbgt	r0, [r5], #-1
     274:	cc000000 	stcgt	0, cr0, [r0], {-0}
     278:	06000000 	streq	r0, [r0], -r0
     27c:	5101f300 	mrspl	pc, SP_irq	; <UNPREDICTABLE>
     280:	cc9f1c32 	ldcgt	12, cr1, [pc], {50}	; 0x32
     284:	e8000000 	stmda	r0, {}	; <UNPREDICTABLE>
     288:	01000000 	mrseq	r0, (UNDEF: 0)
     28c:	00e85500 	rsceq	r5, r8, r0, lsl #10
     290:	014c0000 	mrseq	r0, (UNDEF: 76)
     294:	00060000 	andeq	r0, r6, r0
     298:	325101f3 	subscc	r0, r1, #-1073741764	; 0xc000003c
     29c:	00009f1c 	andeq	r9, r0, ip, lsl pc
     2a0:	00000000 	andeq	r0, r0, r0
     2a4:	00c20000 	sbceq	r0, r2, r0
     2a8:	00c80000 	sbceq	r0, r8, r0
     2ac:	00010000 	andeq	r0, r1, r0
     2b0:	0000de50 	andeq	sp, r0, r0, asr lr
     2b4:	0000e500 	andeq	lr, r0, r0, lsl #10
     2b8:	50000100 	andpl	r0, r0, r0, lsl #2
     2bc:	000000e6 	andeq	r0, r0, r6, ror #1
     2c0:	000000ef 	andeq	r0, r0, pc, ror #1
     2c4:	ef500001 	svc	0x00500001
     2c8:	3c000000 	stccc	0, cr0, [r0], {-0}
     2cc:	01000001 	tsteq	r0, r1
     2d0:	00005500 	andeq	r5, r0, r0, lsl #10
     2d4:	00000000 	andeq	r0, r0, r0
     2d8:	01200000 			; <UNDEFINED> instruction: 0x01200000
     2dc:	01270000 			; <UNDEFINED> instruction: 0x01270000
     2e0:	00070000 	andeq	r0, r7, r0
     2e4:	25480073 	strbcs	r0, [r8, #-115]	; 0xffffff8d
     2e8:	009f1a3f 	addseq	r1, pc, pc, lsr sl	; <UNPREDICTABLE>
     2ec:	00000000 	andeq	r0, r0, r0
     2f0:	4c000000 	stcmi	0, cr0, [r0], {-0}
     2f4:	54000001 	strpl	r0, [r0], #-1
     2f8:	01000001 	tsteq	r0, r1
     2fc:	01545000 	cmpeq	r4, r0
     300:	01940000 	orrseq	r0, r4, r0
     304:	00010000 	andeq	r0, r1, r0
     308:	00019454 	andeq	r9, r1, r4, asr r4
     30c:	00019700 	andeq	r9, r1, r0, lsl #14
     310:	70000400 	andvc	r0, r0, r0, lsl #8
     314:	979f7cb0 			; <UNDEFINED> instruction: 0x979f7cb0
     318:	98000001 	stmdals	r0, {r0}
     31c:	04000001 	streq	r0, [r0], #-1
     320:	5001f300 	andpl	pc, r1, r0, lsl #6
     324:	0001989f 	muleq	r1, pc, r8	; <UNPREDICTABLE>
     328:	00019a00 	andeq	r9, r1, r0, lsl #20
     32c:	54000100 	strpl	r0, [r0], #-256	; 0xffffff00
	...
     338:	0000019a 	muleq	r0, sl, r1
     33c:	000001a0 	andeq	r0, r0, r0, lsr #3
     340:	a0500001 	subsge	r0, r0, r1
     344:	a2000001 	andge	r0, r0, #1
     348:	04000001 	streq	r0, [r0], #-1
     34c:	5001f300 	andpl	pc, r1, r0, lsl #6
     350:	0001a29f 	muleq	r1, pc, r2	; <UNPREDICTABLE>
     354:	0001a400 	andeq	sl, r1, r0, lsl #8
     358:	50000100 	andpl	r0, r0, r0, lsl #2
     35c:	000001a4 	andeq	r0, r0, r4, lsr #3
     360:	000001a6 	andeq	r0, r0, r6, lsr #3
     364:	01f30004 	mvnseq	r0, r4
     368:	00009f50 	andeq	r9, r0, r0, asr pc
     36c:	00000000 	andeq	r0, r0, r0
     370:	019c0000 	orrseq	r0, ip, r0
     374:	019e0000 	orrseq	r0, lr, r0
     378:	00010000 	andeq	r0, r1, r0
     37c:	00019e53 	andeq	r9, r1, r3, asr lr
     380:	0001a000 	andeq	sl, r1, r0
     384:	73000600 	movwvc	r0, #1536	; 0x600
     388:	22007000 	andcs	r7, r0, #0
     38c:	0001a29f 	muleq	r1, pc, r2	; <UNPREDICTABLE>
     390:	0001a600 	andeq	sl, r1, r0, lsl #12
     394:	53000100 	movwpl	r0, #256	; 0x100
	...
     3a0:	000001ac 	andeq	r0, r0, ip, lsr #3
     3a4:	000001b2 			; <UNDEFINED> instruction: 0x000001b2
     3a8:	b2500001 	subslt	r0, r0, #1
     3ac:	e6000001 	str	r0, [r0], -r1
     3b0:	01000001 	tsteq	r0, r1
     3b4:	00005500 	andeq	r5, r0, r0, lsl #10
     3b8:	00000000 	andeq	r0, r0, r0
     3bc:	01ac0000 			; <UNDEFINED> instruction: 0x01ac0000
     3c0:	01b20000 			; <UNDEFINED> instruction: 0x01b20000
     3c4:	00010000 	andeq	r0, r1, r0
     3c8:	0001b251 	andeq	fp, r1, r1, asr r2
     3cc:	0001e600 	andeq	lr, r1, r0, lsl #12
     3d0:	54000100 	strpl	r0, [r0], #-256	; 0xffffff00
	...
     3dc:	000001d0 	ldrdeq	r0, [r0], -r0	; <UNPREDICTABLE>
     3e0:	000001da 	ldrdeq	r0, [r0], -sl
     3e4:	00500001 	subseq	r0, r0, r1
     3e8:	00000000 	andeq	r0, r0, r0
     3ec:	d8000000 	stmdale	r0, {}	; <UNPREDICTABLE>
     3f0:	df000001 	svcle	0x00000001
     3f4:	03000001 	movweq	r0, #1
     3f8:	00c07400 	sbceq	r7, r0, r0, lsl #8
	...
     404:	000001e6 	andeq	r0, r0, r6, ror #3
     408:	000001fa 	strdeq	r0, [r0], -sl
     40c:	fa500001 	blx	1400418 <_end+0x13fc410>
     410:	a4000001 	strge	r0, [r0], #-1
     414:	01000002 	tsteq	r0, r2
     418:	00005700 	andeq	r5, r0, r0, lsl #14
     41c:	00000000 	andeq	r0, r0, r0
     420:	01e60000 	mvneq	r0, r0
     424:	01fa0000 	mvnseq	r0, r0
     428:	00010000 	andeq	r0, r1, r0
     42c:	0001fa51 	andeq	pc, r1, r1, asr sl	; <UNPREDICTABLE>
     430:	00020a00 	andeq	r0, r2, r0, lsl #20
     434:	75000300 	strvc	r0, [r0, #-768]	; 0xfffffd00
     438:	020a9f6c 	andeq	r9, sl, #108, 30	; 0x1b0
     43c:	020e0000 	andeq	r0, lr, #0
     440:	00030000 	andeq	r0, r3, r0
     444:	0e9f5c75 	mrceq	12, 4, r5, cr15, cr5, {3}
     448:	16000002 	strne	r0, [r0], -r2
     44c:	03000002 	movweq	r0, #2
     450:	9f4c7500 	svcls	0x004c7500
     454:	00000216 	andeq	r0, r0, r6, lsl r2
     458:	000002a4 	andeq	r0, r0, r4, lsr #5
     45c:	01f30004 	mvnseq	r0, r4
     460:	00009f51 	andeq	r9, r0, r1, asr pc
     464:	00000000 	andeq	r0, r0, r0
     468:	01e60000 	mvneq	r0, r0
     46c:	01fa0000 	mvnseq	r0, r0
     470:	00010000 	andeq	r0, r1, r0
     474:	0001fa52 	andeq	pc, r1, r2, asr sl	; <UNPREDICTABLE>
     478:	00022e00 	andeq	r2, r2, r0, lsl #28
     47c:	5a000100 	bpl	884 <note_end+0x6b8>
     480:	00000232 	andeq	r0, r0, r2, lsr r2
     484:	000002a4 	andeq	r0, r0, r4, lsr #5
     488:	9f300002 	svcls	0x00300002
	...
     494:	000001f6 	strdeq	r0, [r0], -r6
     498:	0000021c 	andeq	r0, r0, ip, lsl r2
     49c:	9f300002 	svcls	0x00300002
     4a0:	0000021c 	andeq	r0, r0, ip, lsl r2
     4a4:	00000256 	andeq	r0, r0, r6, asr r2
     4a8:	56550001 	ldrbpl	r0, [r5], -r1
     4ac:	58000002 	stmdapl	r0, {r1}
     4b0:	01000002 	tsteq	r0, r2
     4b4:	02585000 	subseq	r5, r8, #0
     4b8:	02a40000 	adceq	r0, r4, #0
     4bc:	00010000 	andeq	r0, r1, r0
     4c0:	00000055 	andeq	r0, r0, r5, asr r0
     4c4:	00000000 	andeq	r0, r0, r0
     4c8:	00023200 	andeq	r3, r2, r0, lsl #4
     4cc:	00027c00 	andeq	r7, r2, r0, lsl #24
     4d0:	5a000100 	bpl	8d8 <note_end+0x70c>
     4d4:	0000029a 	muleq	r0, sl, r2
     4d8:	0000029c 	muleq	r0, ip, r2
     4dc:	005a0001 	subseq	r0, sl, r1
     4e0:	00000000 	andeq	r0, r0, r0
     4e4:	24000000 	strcs	r0, [r0], #-0
     4e8:	40000002 	andmi	r0, r0, r2
     4ec:	01000002 	tsteq	r0, r2
     4f0:	02405000 	subeq	r5, r0, #0
     4f4:	02580000 	subseq	r0, r8, #0
     4f8:	00010000 	andeq	r0, r1, r0
     4fc:	00025854 	andeq	r5, r2, r4, asr r8
     500:	00025e00 	andeq	r5, r2, r0, lsl #28
     504:	50000100 	andpl	r0, r0, r0, lsl #2
     508:	0000025e 	andeq	r0, r0, lr, asr r2
     50c:	000002a4 	andeq	r0, r0, r4, lsr #5
     510:	00540001 	subseq	r0, r4, r1
     514:	00000000 	andeq	r0, r0, r0
     518:	6e000000 	cdpvs	0, 0, cr0, cr0, cr0, {0}
     51c:	74000002 	strvc	r0, [r0], #-2
     520:	01000002 	tsteq	r0, r2
     524:	029a5000 	addseq	r5, sl, #0
     528:	029c0000 	addseq	r0, ip, #0
     52c:	00010000 	andeq	r0, r1, r0
     530:	00000050 	andeq	r0, r0, r0, asr r0
     534:	00000000 	andeq	r0, r0, r0
     538:	00028800 	andeq	r8, r2, r0, lsl #16
     53c:	00028f00 	andeq	r8, r2, r0, lsl #30
     540:	76000300 	strvc	r0, [r0], -r0, lsl #6
     544:	000000c0 	andeq	r0, r0, r0, asr #1
     548:	00000000 	andeq	r0, r0, r0
     54c:	02a40000 	adceq	r0, r4, #0
     550:	02a60000 	adceq	r0, r6, #0
     554:	00010000 	andeq	r0, r1, r0
     558:	0002a650 	andeq	sl, r2, r0, asr r6
     55c:	0002a800 	andeq	sl, r2, r0, lsl #16
     560:	f3000400 	vshl.u8	d0, d0, d0
     564:	009f5001 	addseq	r5, pc, r1
     568:	00000000 	andeq	r0, r0, r0
     56c:	a8000000 	stmdage	r0, {}	; <UNPREDICTABLE>
     570:	ba000002 	blt	580 <note_end+0x3b4>
     574:	01000002 	tsteq	r0, r2
     578:	02ba5000 	adcseq	r5, sl, #0
     57c:	030a0000 	movweq	r0, #40960	; 0xa000
     580:	00010000 	andeq	r0, r1, r0
     584:	00000057 	andeq	r0, r0, r7, asr r0
     588:	00000000 	andeq	r0, r0, r0
     58c:	0002a800 	andeq	sl, r2, r0, lsl #16
     590:	0002ba00 	andeq	fp, r2, r0, lsl #20
     594:	51000100 	mrspl	r0, (UNDEF: 16)
     598:	000002ba 			; <UNDEFINED> instruction: 0x000002ba
     59c:	0000030a 	andeq	r0, r0, sl, lsl #6
     5a0:	00560001 	subseq	r0, r6, r1
     5a4:	00000000 	andeq	r0, r0, r0
     5a8:	ee000000 	cdp	0, 0, cr0, cr0, cr0, {0}
     5ac:	f2000002 	vhadd.s8	d0, d0, d2
     5b0:	01000002 	tsteq	r0, r2
     5b4:	02f25000 	rscseq	r5, r2, #0
     5b8:	03020000 	movweq	r0, #8192	; 0x2000
     5bc:	00010000 	andeq	r0, r1, r0
     5c0:	00000054 	andeq	r0, r0, r4, asr r0
     5c4:	00000000 	andeq	r0, r0, r0
     5c8:	00030a00 	andeq	r0, r3, r0, lsl #20
     5cc:	00031d00 	andeq	r1, r3, r0, lsl #26
     5d0:	50000100 	andpl	r0, r0, r0, lsl #2
     5d4:	0000031d 	andeq	r0, r0, sp, lsl r3
     5d8:	0000031e 	andeq	r0, r0, lr, lsl r3
     5dc:	01f30004 	mvnseq	r0, r4
     5e0:	00009f50 	andeq	r9, r0, r0, asr pc
     5e4:	00000000 	andeq	r0, r0, r0
     5e8:	030a0000 	movweq	r0, #40960	; 0xa000
     5ec:	03140000 	tsteq	r4, #0
     5f0:	00010000 	andeq	r0, r1, r0
     5f4:	00031451 	andeq	r1, r3, r1, asr r4
     5f8:	00031d00 	andeq	r1, r3, r0, lsl #26
     5fc:	70000200 	andvc	r0, r0, r0, lsl #4
     600:	00031d0c 	andeq	r1, r3, ip, lsl #26
     604:	00031e00 	andeq	r1, r3, r0, lsl #28
     608:	f3000400 	vshl.u8	d0, d0, d0
     60c:	009f5101 	addseq	r5, pc, r1, lsl #2
     610:	00000000 	andeq	r0, r0, r0
     614:	0a000000 	beq	61c <note_end+0x450>
     618:	10000003 	andne	r0, r0, r3
     61c:	01000003 	tsteq	r0, r3
     620:	03105200 	tsteq	r0, #0, 4
     624:	031d0000 	tsteq	sp, #0
     628:	00020000 	andeq	r0, r2, r0
     62c:	031d1870 	tsteq	sp, #112, 16	; 0x700000
     630:	031e0000 	tsteq	lr, #0
     634:	00040000 	andeq	r0, r4, r0
     638:	9f5201f3 	svcls	0x005201f3
	...
     644:	0000030a 	andeq	r0, r0, sl, lsl #6
     648:	0000031d 	andeq	r0, r0, sp, lsl r3
     64c:	1d530001 	ldclne	0, cr0, [r3, #-4]
     650:	1e000003 	cdpne	0, 0, cr0, cr0, cr3, {0}
     654:	04000003 	streq	r0, [r0], #-3
     658:	5301f300 	movwpl	pc, #4864	; 0x1300	; <UNPREDICTABLE>
     65c:	0000009f 	muleq	r0, pc, r0	; <UNPREDICTABLE>
     660:	00000000 	andeq	r0, r0, r0
     664:	00031e00 	andeq	r1, r3, r0, lsl #28
     668:	00033100 	andeq	r3, r3, r0, lsl #2
     66c:	50000100 	andpl	r0, r0, r0, lsl #2
     670:	00000331 	andeq	r0, r0, r1, lsr r3
     674:	00000334 	andeq	r0, r0, r4, lsr r3
     678:	34550001 	ldrbcc	r0, [r5], #-1
     67c:	3a000003 	bcc	690 <note_end+0x4c4>
     680:	01000003 	tsteq	r0, r3
     684:	033a5000 	teqeq	sl, #0
     688:	03600000 	cmneq	r0, #0
     68c:	00010000 	andeq	r0, r1, r0
     690:	00000055 	andeq	r0, r0, r5, asr r0
     694:	00000000 	andeq	r0, r0, r0
     698:	00031e00 	andeq	r1, r3, r0, lsl #28
     69c:	00033100 	andeq	r3, r3, r0, lsl #2
     6a0:	51000100 	mrspl	r0, (UNDEF: 16)
     6a4:	00000331 	andeq	r0, r0, r1, lsr r3
     6a8:	00000334 	andeq	r0, r0, r4, lsr r3
     6ac:	34540001 	ldrbcc	r0, [r4], #-1
     6b0:	38000003 	stmdacc	r0, {r0, r1}
     6b4:	01000003 	tsteq	r0, r3
     6b8:	03385100 	teqeq	r8, #0, 2
     6bc:	03600000 	cmneq	r0, #0
     6c0:	00010000 	andeq	r0, r1, r0
     6c4:	00000054 	andeq	r0, r0, r4, asr r0
     6c8:	00000000 	andeq	r0, r0, r0
     6cc:	00033e00 	andeq	r3, r3, r0, lsl #28
     6d0:	00034800 	andeq	r4, r3, r0, lsl #16
     6d4:	50000100 	andpl	r0, r0, r0, lsl #2
     6d8:	0000034e 	andeq	r0, r0, lr, asr #6
     6dc:	00000350 	andeq	r0, r0, r0, asr r3
     6e0:	00500001 	subseq	r0, r0, r1
     6e4:	00000000 	andeq	r0, r0, r0
     6e8:	4e000000 	cdpmi	0, 0, cr0, cr0, cr0, {0}
     6ec:	55000003 	strpl	r0, [r0, #-3]
     6f0:	03000003 	movweq	r0, #3
     6f4:	00c07400 	sbceq	r7, r0, r0, lsl #8
	...
     700:	00000360 	andeq	r0, r0, r0, ror #6
     704:	00000367 	andeq	r0, r0, r7, ror #6
     708:	67500001 	ldrbvs	r0, [r0, -r1]
     70c:	68000003 	stmdavs	r0, {r0, r1}
     710:	04000003 	streq	r0, [r0], #-3
     714:	5001f300 	andpl	pc, r1, r0, lsl #6
     718:	0003689f 	muleq	r3, pc, r8	; <UNPREDICTABLE>
     71c:	00036f00 	andeq	r6, r3, r0, lsl #30
     720:	50000100 	andpl	r0, r0, r0, lsl #2
     724:	0000036f 	andeq	r0, r0, pc, ror #6
     728:	00000370 	andeq	r0, r0, r0, ror r3
     72c:	01f30004 	mvnseq	r0, r4
     730:	00009f50 	andeq	r9, r0, r0, asr pc
     734:	00000000 	andeq	r0, r0, r0
     738:	03600000 	cmneq	r0, #0
     73c:	03670000 	cmneq	r7, #0
     740:	00010000 	andeq	r0, r1, r0
     744:	00036751 	andeq	r6, r3, r1, asr r7
     748:	00036800 	andeq	r6, r3, r0, lsl #16
     74c:	f3000400 	vshl.u8	d0, d0, d0
     750:	689f5101 	ldmvs	pc, {r0, r8, ip, lr}	; <UNPREDICTABLE>
     754:	6f000003 	svcvs	0x00000003
     758:	01000003 	tsteq	r0, r3
     75c:	036f5100 	cmneq	pc, #0, 2
     760:	03700000 	cmneq	r0, #0
     764:	00040000 	andeq	r0, r4, r0
     768:	9f5101f3 	svcls	0x005101f3
	...
     774:	00000372 	andeq	r0, r0, r2, ror r3
     778:	0000037a 	andeq	r0, r0, sl, ror r3
     77c:	7a500001 	bvc	1400788 <_end+0x13fc780>
     780:	7b000003 	blvc	794 <note_end+0x5c8>
     784:	01000003 	tsteq	r0, r3
     788:	037b5100 	cmneq	fp, #0, 2
     78c:	037c0000 	cmneq	ip, #0
     790:	00040000 	andeq	r0, r4, r0
     794:	9f5001f3 	svcls	0x005001f3
     798:	0000037c 	andeq	r0, r0, ip, ror r3
     79c:	0000037e 	andeq	r0, r0, lr, ror r3
     7a0:	00500001 	subseq	r0, r0, r1
     7a4:	00000000 	andeq	r0, r0, r0
     7a8:	7e000000 	cdpvc	0, 0, cr0, cr0, cr0, {0}
     7ac:	98000003 	stmdals	r0, {r0, r1}
     7b0:	01000003 	tsteq	r0, r3
     7b4:	03985000 	orrseq	r5, r8, #0
     7b8:	03a20000 			; <UNDEFINED> instruction: 0x03a20000
     7bc:	00040000 	andeq	r0, r4, r0
     7c0:	9f5001f3 	svcls	0x005001f3
     7c4:	000003a2 	andeq	r0, r0, r2, lsr #7
     7c8:	000003a4 	andeq	r0, r0, r4, lsr #7
     7cc:	a4500001 	ldrbge	r0, [r0], #-1
     7d0:	a6000003 	strge	r0, [r0], -r3
     7d4:	04000003 	streq	r0, [r0], #-3
     7d8:	5001f300 	andpl	pc, r1, r0, lsl #6
     7dc:	0003a69f 	muleq	r3, pc, r6	; <UNPREDICTABLE>
     7e0:	0003a800 	andeq	sl, r3, r0, lsl #16
     7e4:	50000100 	andpl	r0, r0, r0, lsl #2
     7e8:	000003a8 	andeq	r0, r0, r8, lsr #7
     7ec:	000003ac 	andeq	r0, r0, ip, lsr #7
     7f0:	01f30004 	mvnseq	r0, r4
     7f4:	00009f50 	andeq	r9, r0, r0, asr pc
     7f8:	00000000 	andeq	r0, r0, r0
     7fc:	037e0000 	cmneq	lr, #0
     800:	03880000 	orreq	r0, r8, #0
     804:	00010000 	andeq	r0, r1, r0
     808:	00038851 	andeq	r8, r3, r1, asr r8
     80c:	0003ac00 	andeq	sl, r3, r0, lsl #24
     810:	f3000400 	vshl.u8	d0, d0, d0
     814:	009f5101 	addseq	r5, pc, r1, lsl #2
     818:	00000000 	andeq	r0, r0, r0
     81c:	7e000000 	cdpvc	0, 0, cr0, cr0, cr0, {0}
     820:	9a000003 	bls	834 <note_end+0x668>
     824:	01000003 	tsteq	r0, r3
     828:	039a5200 	orrseq	r5, sl, #0, 4
     82c:	03a20000 			; <UNDEFINED> instruction: 0x03a20000
     830:	00040000 	andeq	r0, r4, r0
     834:	9f5201f3 	svcls	0x005201f3
     838:	000003a2 	andeq	r0, r0, r2, lsr #7
     83c:	000003a8 	andeq	r0, r0, r8, lsr #7
     840:	a8520001 	ldmdage	r2, {r0}^
     844:	ac000003 	stcge	0, cr0, [r0], {3}
     848:	04000003 	streq	r0, [r0], #-3
     84c:	5201f300 	andpl	pc, r1, #0, 6
     850:	0000009f 	muleq	r0, pc, r0	; <UNPREDICTABLE>
     854:	00000000 	andeq	r0, r0, r0
     858:	0003ac00 	andeq	sl, r3, r0, lsl #24
     85c:	0003bb00 	andeq	fp, r3, r0, lsl #22
     860:	50000100 	andpl	r0, r0, r0, lsl #2
     864:	000003bb 			; <UNDEFINED> instruction: 0x000003bb
     868:	000003c4 	andeq	r0, r0, r4, asr #7
     86c:	01f30004 	mvnseq	r0, r4
     870:	00009f50 	andeq	r9, r0, r0, asr pc
     874:	00000000 	andeq	r0, r0, r0
     878:	03ac0000 			; <UNDEFINED> instruction: 0x03ac0000
     87c:	03b20000 			; <UNDEFINED> instruction: 0x03b20000
     880:	00010000 	andeq	r0, r1, r0
     884:	0003b251 	andeq	fp, r3, r1, asr r2
     888:	0003bb00 	andeq	fp, r3, r0, lsl #22
     88c:	52000100 	andpl	r0, r0, #0, 2
     890:	000003bb 			; <UNDEFINED> instruction: 0x000003bb
     894:	000003c4 	andeq	r0, r0, r4, asr #7
     898:	01f30004 	mvnseq	r0, r4
     89c:	00009f51 	andeq	r9, r0, r1, asr pc
     8a0:	00000000 	andeq	r0, r0, r0
     8a4:	03c40000 	biceq	r0, r4, #0
     8a8:	03e00000 	mvneq	r0, #0
     8ac:	00010000 	andeq	r0, r1, r0
     8b0:	0003e050 	andeq	lr, r3, r0, asr r0
     8b4:	0003e800 	andeq	lr, r3, r0, lsl #16
     8b8:	f3000400 	vshl.u8	d0, d0, d0
     8bc:	e89f5001 	ldm	pc, {r0, ip, lr}	; <UNPREDICTABLE>
     8c0:	ea000003 	b	8d4 <note_end+0x708>
     8c4:	01000003 	tsteq	r0, r3
     8c8:	03ea5000 	mvneq	r5, #0
     8cc:	03ec0000 	mvneq	r0, #0
     8d0:	00040000 	andeq	r0, r4, r0
     8d4:	9f5001f3 	svcls	0x005001f3
     8d8:	000003ec 	andeq	r0, r0, ip, ror #7
     8dc:	000003ee 	andeq	r0, r0, lr, ror #7
     8e0:	ee500001 	cdp	0, 5, cr0, cr0, cr1, {0}
     8e4:	f2000003 	vhadd.s8	d0, d0, d3
     8e8:	04000003 	streq	r0, [r0], #-3
     8ec:	5001f300 	andpl	pc, r1, r0, lsl #6
     8f0:	0000009f 	muleq	r0, pc, r0	; <UNPREDICTABLE>
     8f4:	00000000 	andeq	r0, r0, r0
     8f8:	0003c400 	andeq	ip, r3, r0, lsl #8
     8fc:	0003ce00 	andeq	ip, r3, r0, lsl #28
     900:	51000100 	mrspl	r0, (UNDEF: 16)
     904:	000003ce 	andeq	r0, r0, lr, asr #7
     908:	000003f2 	strdeq	r0, [r0], -r2
     90c:	01f30004 	mvnseq	r0, r4
     910:	00009f51 	andeq	r9, r0, r1, asr pc
     914:	00000000 	andeq	r0, r0, r0
     918:	03f20000 	mvnseq	r0, #0
     91c:	04070000 	streq	r0, [r7], #-0
     920:	00010000 	andeq	r0, r1, r0
     924:	00040750 	andeq	r0, r4, r0, asr r7
     928:	00040c00 	andeq	r0, r4, r0, lsl #24
     92c:	f3000400 	vshl.u8	d0, d0, d0
     930:	009f5001 	addseq	r5, pc, r1
     934:	00000000 	andeq	r0, r0, r0
     938:	f2000000 	vhadd.s8	d0, d0, d0
     93c:	fa000003 	blx	950 <pclose@plt+0x8>
     940:	01000003 	tsteq	r0, r3
     944:	03fa5100 	mvnseq	r5, #0, 2
     948:	040c0000 	streq	r0, [ip], #-0
     94c:	00010000 	andeq	r0, r1, r0
     950:	00000054 	andeq	r0, r0, r4, asr r0
     954:	00000000 	andeq	r0, r0, r0
     958:	0003f200 	andeq	pc, r3, r0, lsl #4
     95c:	00040000 	andeq	r0, r4, r0
     960:	52000100 	andpl	r0, r0, #0, 2
     964:	00000400 	andeq	r0, r0, r0, lsl #8
     968:	00000404 	andeq	r0, r0, r4, lsl #8
     96c:	00730002 	rsbseq	r0, r3, r2
     970:	00000404 	andeq	r0, r0, r4, lsl #8
     974:	00000407 	andeq	r0, r0, r7, lsl #8
     978:	007d0003 	rsbseq	r0, sp, r3
     97c:	00040706 	andeq	r0, r4, r6, lsl #14
     980:	00040a00 	andeq	r0, r4, r0, lsl #20
     984:	91000200 	mrsls	r0, R8_usr
     988:	00040a74 	andeq	r0, r4, r4, ror sl
     98c:	00040c00 	andeq	r0, r4, r0, lsl #24
     990:	7d000200 	sfmvc	f0, 4, [r0, #-0]
     994:	0000007c 	andeq	r0, r0, ip, ror r0
     998:	00000000 	andeq	r0, r0, r0
     99c:	00040c00 	andeq	r0, r4, r0, lsl #24
     9a0:	00042000 	andeq	r2, r4, r0
     9a4:	50000100 	andpl	r0, r0, r0, lsl #2
     9a8:	00000420 	andeq	r0, r0, r0, lsr #8
     9ac:	00000486 	andeq	r0, r0, r6, lsl #9
     9b0:	00570001 	subseq	r0, r7, r1
     9b4:	00000000 	andeq	r0, r0, r0
     9b8:	0c000000 	stceq	0, cr0, [r0], {-0}
     9bc:	20000004 	andcs	r0, r0, r4
     9c0:	01000004 	tsteq	r0, r4
     9c4:	04205100 	strteq	r5, [r0], #-256	; 0xffffff00
     9c8:	04860000 	streq	r0, [r6], #0
     9cc:	00010000 	andeq	r0, r1, r0
     9d0:	00000058 	andeq	r0, r0, r8, asr r0
     9d4:	00000000 	andeq	r0, r0, r0
     9d8:	00040c00 	andeq	r0, r4, r0, lsl #24
     9dc:	00042000 	andeq	r2, r4, r0
     9e0:	52000100 	andpl	r0, r0, #0, 2
     9e4:	00000420 	andeq	r0, r0, r0, lsr #8
     9e8:	00000428 	andeq	r0, r0, r8, lsr #8
     9ec:	6c740003 	ldclvs	0, cr0, [r4], #-12
     9f0:	0004289f 	muleq	r4, pc, r8	; <UNPREDICTABLE>
     9f4:	00042c00 	andeq	r2, r4, r0, lsl #24
     9f8:	74000300 	strvc	r0, [r0], #-768	; 0xfffffd00
     9fc:	042c9f5c 	strteq	r9, [ip], #-3932	; 0xfffff0a4
     a00:	043e0000 	ldrteq	r0, [lr], #-0
     a04:	00030000 	andeq	r0, r3, r0
     a08:	3e9f4c74 	mrccc	12, 4, r4, cr15, cr4, {3}
     a0c:	86000004 	strhi	r0, [r0], -r4
     a10:	04000004 	streq	r0, [r0], #-4
     a14:	5201f300 	andpl	pc, r1, #0, 6
     a18:	0000009f 	muleq	r0, pc, r0	; <UNPREDICTABLE>
     a1c:	00000000 	andeq	r0, r0, r0
     a20:	00046e00 	andeq	r6, r4, r0, lsl #28
     a24:	00047600 	andeq	r7, r4, r0, lsl #12
     a28:	50000100 	andpl	r0, r0, r0, lsl #2
     a2c:	00000476 	andeq	r0, r0, r6, ror r4
     a30:	00000486 	andeq	r0, r0, r6, lsl #9
     a34:	00540001 	subseq	r0, r4, r1
     a38:	00000000 	andeq	r0, r0, r0
     a3c:	1e000000 	cdpne	0, 0, cr0, cr0, cr0, {0}
     a40:	76000004 	strvc	r0, [r0], -r4
     a44:	01000004 	tsteq	r0, r4
     a48:	04765d00 	ldrbteq	r5, [r6], #-3328	; 0xfffff300
     a4c:	04860000 	streq	r0, [r6], #0
     a50:	00010000 	andeq	r0, r1, r0
     a54:	00000055 	andeq	r0, r0, r5, asr r0
     a58:	00000000 	andeq	r0, r0, r0
{
     a5c:	00048600 	andeq	r8, r4, r0, lsl #12
     a60:	00049600 	andeq	r9, r4, r0, lsl #12
     a64:	50000100 	andpl	r0, r0, r0, lsl #2
     a68:	00000496 	muleq	r0, r6, r4
     a6c:	000006ea 	andeq	r0, r0, sl, ror #13
    stream = popen("pwd", "r");
     a70:	ea580001 	b	1600a7c <_end+0x15fca74>
     a74:	f0000006 			; <UNDEFINED> instruction: 0xf0000006
     a78:	06000006 	streq	r0, [r0], -r6
     a7c:	06407d00 	strbeq	r7, [r0], -r0, lsl #26
    fgets(ch, 1024, stream);
     a80:	009f1a33 	addseq	r1, pc, r3, lsr sl	; <UNPREDICTABLE>
     a84:	00000000 	andeq	r0, r0, r0
     a88:	86000000 	strhi	r0, [r0], -r0
     a8c:	e2000004 	and	r0, r0, #4
    LOGW("pwd: %s",ch);
     a90:	01000004 	tsteq	r0, r4
     a94:	04e25100 	strbteq	r5, [r2], #256	; 0x100
     a98:	06880000 	streq	r0, [r8], r0
     a9c:	00010000 	andeq	r0, r1, r0
     aa0:	00068855 	andeq	r8, r6, r5, asr r8
     aa4:	00068c00 	andeq	r8, r6, r0, lsl #24
    pclose(stream);
     aa8:	51000100 	mrspl	r0, (UNDEF: 16)
     aac:	0000068c 	andeq	r0, r0, ip, lsl #13
    stream = popen("ls", "r");
     ab0:	000006ea 	andeq	r0, r0, sl, ror #13
     ab4:	ea550001 	b	1540ac0 <_end+0x153cab8>
     ab8:	f0000006 			; <UNDEFINED> instruction: 0xf0000006
     abc:	04000006 	streq	r0, [r0], #-6
    if( NULL == stream )
     ac0:	5101f300 	mrspl	pc, SP_irq	; <UNPREDICTABLE>
     ac4:	0000009f 	muleq	r0, pc, r0	; <UNPREDICTABLE>
        LOGE("Unable to execute the command");
     ac8:	00000000 	andeq	r0, r0, r0
     acc:	00048600 	andeq	r8, r4, r0, lsl #12
     ad0:	00048e00 	andeq	r8, r4, r0, lsl #28
     ad4:	52000100 	andpl	r0, r0, #0, 2
     ad8:	0000048e 	andeq	r0, r0, lr, lsl #9
     adc:	000006c6 	andeq	r0, r0, r6, asr #13
     ae0:	c6570001 	ldrbgt	r0, [r7], -r1
    }
     ae4:	c9000006 	stmdbgt	r0, {r1, r2}
        while( NULL != fgets(buffer, 1024, stream))
     ae8:	01000006 	tsteq	r0, r6
     aec:	06c95000 	strbeq	r5, [r9], r0
     af0:	06ea0000 	strbteq	r0, [sl], r0
     af4:	00010000 	andeq	r0, r1, r0
     af8:	0006ea57 	andeq	lr, r6, r7, asr sl
            LOGE("read: %s", buffer);
     afc:	0006f000 	andeq	pc, r6, r0
     b00:	f3000400 	vshl.u8	d0, d0, d0
     b04:	009f5201 	addseq	r5, pc, r1, lsl #4
     b08:	00000000 	andeq	r0, r0, r0
     b0c:	86000000 	strhi	r0, [r0], -r0
     b10:	ae000004 	cdpge	0, 0, cr0, cr0, cr4, {0}
     b14:	01000004 	tsteq	r0, r4
        while( NULL != fgets(buffer, 1024, stream))
     b18:	04ae5300 	strteq	r5, [lr], #768	; 0x300
        status = pclose(stream);
     b1c:	04b40000 	ldrteq	r0, [r4], #0
     b20:	00010000 	andeq	r0, r1, r0
        LOGW("process exited with status %d", status);
     b24:	0004b459 	andeq	fp, r4, r9, asr r4
     b28:	0004ba00 	andeq	fp, r4, r0, lsl #20
     b2c:	53000100 	movwpl	r0, #256	; 0x100
     b30:	000004ba 			; <UNDEFINED> instruction: 0x000004ba
     b34:	000006ea 	andeq	r0, r0, sl, ror #13
     b38:	ea590001 	b	1640b44 <_end+0x163cb3c>
     b3c:	f0000006 			; <UNDEFINED> instruction: 0xf0000006
     b40:	04000006 	streq	r0, [r0], #-6
     b44:	5301f300 	movwpl	pc, #4864	; 0x1300	; <UNPREDICTABLE>
     b48:	0000009f 	muleq	r0, pc, r0	; <UNPREDICTABLE>
     b4c:	00000000 	andeq	r0, r0, r0
     b50:	00049600 	andeq	r9, r4, r0, lsl #12
}
     b54:	00049800 	andeq	r9, r4, r0, lsl #16
     b58:	52000100 	andpl	r0, r0, #0, 2
     b5c:	00000498 	muleq	r0, r8, r4
     b60:	00000500 	andeq	r0, r0, r0, lsl #10
     b64:	00540001 	subseq	r0, r4, r1
     b68:	0e000005 	cdpeq	0, 0, cr0, cr0, cr5, {0}
     b6c:	03000005 	movweq	r0, #5
     b70:	9f087400 	svcls	0x00087400
     b74:	0000050e 	andeq	r0, r0, lr, lsl #10
     b78:	00000512 	andeq	r0, r0, r2, lsl r5
     b7c:	04740003 	ldrbteq	r0, [r4], #-3
     b80:	0005e09f 	muleq	r5, pc, r0	; <UNPREDICTABLE>
     b84:	0005e200 	andeq	lr, r5, r0, lsl #4
     b88:	54000100 	strpl	r0, [r0], #-256	; 0xffffff00
     b8c:	0000067e 	andeq	r0, r0, lr, ror r6
{
     b90:	00000682 	andeq	r0, r0, r2, lsl #13
     b94:	04760003 	ldrbteq	r0, [r6], #-3
     b98:	0006869f 	muleq	r6, pc, r6	; <UNPREDICTABLE>
     b9c:	0006c600 	andeq	ip, r6, r0, lsl #12
    if(0 == __system_property_get("ro.product.model", value))
     ba0:	54000100 	strpl	r0, [r0], #-256	; 0xffffff00
	...
     bac:	00000500 	andeq	r0, r0, r0, lsl #10
        LOGE("error");
     bb0:	0000050a 	andeq	r0, r0, sl, lsl #10
     bb4:	0e5b0001 	cdpeq	0, 5, cr0, cr11, cr1, {0}
     bb8:	34000005 	strcc	r0, [r0], #-5
     bbc:	01000005 	tsteq	r0, r5
     bc0:	00005b00 	andeq	r5, r0, r0, lsl #22
     bc4:	00000000 	andeq	r0, r0, r0
     bc8:	04f20000 	ldrbteq	r0, [r2], #0
    }
     bcc:	05820000 	streq	r0, [r2]
        LOGW("product model: %s", value);
     bd0:	00010000 	andeq	r0, r1, r0
     bd4:	0005c45a 	andeq	ip, r5, sl, asr r4
     bd8:	0005dc00 	andeq	sp, r5, r0, lsl #24
     bdc:	5a000100 	bpl	fe4 <testParameter+0x2dc>
     be0:	000005e2 	andeq	r0, r0, r2, ror #11
     be4:	00000602 	andeq	r0, r0, r2, lsl #12
     be8:	2e5a0001 	cdpcs	0, 5, cr0, cr10, cr1, {0}
     bec:	36000006 	strcc	r0, [r0], -r6
    property = __system_property_find("ro.product.model");
     bf0:	01000006 	tsteq	r0, r6
     bf4:	00005a00 	andeq	r5, r0, r0, lsl #20
    if( NULL == property )
     bf8:	00000000 	andeq	r0, r0, r0
     bfc:	05e80000 	strbeq	r0, [r8, #0]!
        LOGE("error");
     c00:	065e0000 	ldrbeq	r0, [lr], -r0
     c04:	00010000 	andeq	r0, r1, r0
     c08:	00067454 	andeq	r7, r6, r4, asr r4
     c0c:	00067c00 	andeq	r7, r6, r0, lsl #24
     c10:	54000100 	strpl	r0, [r0], #-256	; 0xffffff00
     c14:	0000067c 	andeq	r0, r0, ip, ror r6
     c18:	00000686 	andeq	r0, r0, r6, lsl #13
    }
     c1c:	7f740003 	svcvc	0x00740003
        if( 0 == __system_property_read(property, name, value))
     c20:	0006d29f 	muleq	r6, pc, r2	; <UNPREDICTABLE>
     c24:	0006de00 	andeq	sp, r6, r0, lsl #28
     c28:	54000100 	strpl	r0, [r0], #-256	; 0xffffff00
	...
            LOGE("is empty");
     c34:	0000048c 	andeq	r0, r0, ip, lsl #9
     c38:	000004e2 	andeq	r0, r0, r2, ror #9
     c3c:	9f300002 	svcls	0x00300002
     c40:	00000688 	andeq	r0, r0, r8, lsl #13
     c44:	0000068c 	andeq	r0, r0, ip, lsl #13
        }
     c48:	9f300002 	svcls	0x00300002
            LOGW("%s, %s", name, value);
     c4c:	0000068c 	andeq	r0, r0, ip, lsl #13
     c50:	000006c6 	andeq	r0, r0, r6, asr #13
     c54:	bc910003 	ldclt	0, cr0, [r1], {3}
     c58:	0000007f 	andeq	r0, r0, pc, ror r0
     c5c:	00000000 	andeq	r0, r0, r0
     c60:	00048c00 	andeq	r8, r4, r0, lsl #24
     c64:	0004e200 	andeq	lr, r4, r0, lsl #4
     c68:	30000200 	andcc	r0, r0, r0, lsl #4
     c6c:	0005309f 	muleq	r5, pc, r0	; <UNPREDICTABLE>
     c70:	00055600 	andeq	r5, r5, r0, lsl #12
     c74:	50000100 	andpl	r0, r0, r0, lsl #2
     c78:	00000572 	andeq	r0, r0, r2, ror r5
     c7c:	00000594 	muleq	r0, r4, r5
     c80:	c4500001 	ldrbgt	r0, [r0], #-1
    return;
     c84:	c6000005 	strgt	r0, [r0], -r5
     c88:	01000005 	tsteq	r0, r5
     c8c:	05e25000 	strbeq	r5, [r2, #0]!
     c90:	06080000 	streq	r0, [r8], -r0
     c94:	00010000 	andeq	r0, r1, r0
     c98:	00062e50 	andeq	r2, r6, r0, asr lr
     c9c:	00063000 	andeq	r3, r6, r0
     ca0:	50000100 	andpl	r0, r0, r0, lsl #2
     ca4:	00000688 	andeq	r0, r0, r8, lsl #13
     ca8:	0000068c 	andeq	r0, r0, ip, lsl #13
     cac:	9f300002 	svcls	0x00300002
	...
     cb8:	00000490 	muleq	r0, r0, r4
     cbc:	0000049a 	muleq	r0, sl, r4
     cc0:	40910006 	addsmi	r0, r1, r6
{
     cc4:	9f1a3806 	svcls	0x001a3806
	...
    LOGE("%s, %d, ", __FUNCTION__, a1);
     cd0:	0000051a 	andeq	r0, r0, sl, lsl r5
     cd4:	0000052a 	andeq	r0, r0, sl, lsr #10
     cd8:	2e500001 	cdpcs	0, 5, cr0, cr0, cr1, {0}
     cdc:	30000005 	andcc	r0, r0, r5
     ce0:	01000005 	tsteq	r0, r5
     ce4:	00005000 	andeq	r5, r0, r0
     ce8:	00000000 	andeq	r0, r0, r0
     cec:	05140000 	ldreq	r0, [r4, #-0]
     cf0:	05380000 	ldreq	r0, [r8, #-0]!
}
     cf4:	00010000 	andeq	r0, r1, r0
     cf8:	00000054 	andeq	r0, r0, r4, asr r0
     cfc:	00000000 	andeq	r0, r0, r0
     d00:	00055e00 	andeq	r5, r5, r0, lsl #28
     d04:	00056000 	andeq	r6, r5, r0
{
     d08:	50000100 	andpl	r0, r0, r0, lsl #2
     d0c:	00000560 	andeq	r0, r0, r0, ror #10
     d10:	00000572 	andeq	r0, r0, r2, ror r5
     d14:	00560001 	subseq	r0, r6, r1
     d18:	00000000 	andeq	r0, r0, r0
     d1c:	9e000000 	cdpls	0, 0, cr0, cr0, cr0, {0}
     d20:	a0000005 	andge	r0, r0, r5
     d24:	01000005 	tsteq	r0, r5
     d28:	05a05000 	streq	r5, [r0, #0]!
     d2c:	05a30000 	streq	r0, [r3, #0]!
     d30:	00010000 	andeq	r0, r1, r0
     d34:	00000051 	andeq	r0, r0, r1, asr r0
     d38:	00000000 	andeq	r0, r0, r0
     d3c:	00058200 	andeq	r8, r5, r0, lsl #4
     d40:	0005c400 	andeq	ip, r5, r0, lsl #8
     d44:	5a000100 	bpl	114c <Java_com_crash_test_HelloJni_nativeMsg+0xa8>
	...
     d50:	000005a4 	andeq	r0, r0, r4, lsr #11
     d54:	000005a8 	andeq	r0, r0, r8, lsr #11
     d58:	00500001 	subseq	r0, r0, r1
     d5c:	00000000 	andeq	r0, r0, r0
     d60:	08000000 	stmdaeq	r0, {}	; <UNPREDICTABLE>
     d64:	12000006 	andne	r0, r0, #6
     d68:	01000006 	tsteq	r0, r6
     d6c:	06125a00 	ldreq	r5, [r2], -r0, lsl #20
     d70:	062e0000 	strteq	r0, [lr], -r0
     d74:	00030000 	andeq	r0, r3, r0
     d78:	d29f7f7a 	addsle	r7, pc, #488	; 0x1e8
     d7c:	de000006 	cdple	0, 0, cr0, cr0, cr6, {0}
     d80:	01000006 	tsteq	r0, r6
     d84:	00005a00 	andeq	r5, r0, r0, lsl #20
     d88:	00000000 	andeq	r0, r0, r0
     d8c:	06220000 	strteq	r0, [r2], -r0
     d90:	06240000 	strteq	r0, [r4], -r0
     d94:	00010000 	andeq	r0, r1, r0
     d98:	00062450 	andeq	r2, r6, r0, asr r4
     d9c:	00062700 	andeq	r2, r6, r0, lsl #14
     da0:	51000100 	mrspl	r0, (UNDEF: 16)
	...
     dac:	00000666 	andeq	r0, r0, r6, ror #12
     db0:	00000668 	andeq	r0, r0, r8, ror #12
     db4:	68500001 	ldmdavs	r0, {r0}^
     db8:	6b000006 	blvs	dd8 <testParameter+0xd0>
     dbc:	01000006 	tsteq	r0, r6
     dc0:	00005200 	andeq	r5, r0, r0, lsl #4
     dc4:	00000000 	andeq	r0, r0, r0
     dc8:	06f00000 	ldrbteq	r0, [r0], r0
     dcc:	06f30000 	ldrbteq	r0, [r3], r0
     dd0:	00010000 	andeq	r0, r1, r0
     dd4:	0006f350 	andeq	pc, r6, r0, asr r3	; <UNPREDICTABLE>
     dd8:	0006f400 	andeq	pc, r6, r0, lsl #8
     ddc:	f3000400 	vshl.u8	d0, d0, d0
     de0:	009f5001 	addseq	r5, pc, r1
     de4:	00000000 	andeq	r0, r0, r0
     de8:	f0000000 			; <UNDEFINED> instruction: 0xf0000000
     dec:	f3000006 	vhadd.u8	d0, d0, d6
     df0:	01000006 	tsteq	r0, r6
     df4:	06f35100 	ldrbteq	r5, [r3], r0, lsl #2
    LOGE("%d, %d, %d, %d, %d, %d, %d, %d, %d, %d, \
     df8:	06f40000 	ldrbteq	r0, [r4], r0
     dfc:	00040000 	andeq	r0, r4, r0
     e00:	9f5101f3 	svcls	0x005101f3
	...
     e0c:	000006f0 	strdeq	r0, [r0], -r0	; <UNPREDICTABLE>
     e10:	000006f3 	strdeq	r0, [r0], -r3
     e14:	f3520001 	vhadd.u16	d16, d2, d1
     e18:	f4000006 	vst4.8	{d0-d3}, [r0], r6
     e1c:	04000006 	streq	r0, [r0], #-6
     e20:	5201f300 	andpl	pc, r1, #0, 6
     e24:	0000009f 	muleq	r0, pc, r0	; <UNPREDICTABLE>
     e28:	00000000 	andeq	r0, r0, r0
     e2c:	0006f400 	andeq	pc, r6, r0, lsl #8
     e30:	0006f700 	andeq	pc, r6, r0, lsl #14
     e34:	50000100 	andpl	r0, r0, r0, lsl #2
     e38:	000006f7 	strdeq	r0, [r0], -r7
     e3c:	000006f8 	strdeq	r0, [r0], -r8
     e40:	01f30004 	mvnseq	r0, r4
     e44:	00009f50 	andeq	r9, r0, r0, asr pc
     e48:	00000000 	andeq	r0, r0, r0
     e4c:	06f40000 	ldrbteq	r0, [r4], r0
     e50:	06f70000 	ldrbteq	r0, [r7], r0
     e54:	00010000 	andeq	r0, r1, r0
     e58:	0006f751 	andeq	pc, r6, r1, asr r7	; <UNPREDICTABLE>
     e5c:	0006f800 	andeq	pc, r6, r0, lsl #16
     e60:	f3000400 	vshl.u8	d0, d0, d0
     e64:	009f5101 	addseq	r5, pc, r1, lsl #2
     e68:	00000000 	andeq	r0, r0, r0
     e6c:	f4000000 	vst4.8	{d0-d3}, [r0], r0
     e70:	f7000006 			; <UNDEFINED> instruction: 0xf7000006
     e74:	01000006 	tsteq	r0, r6
     e78:	06f75200 	ldrbteq	r5, [r7], r0, lsl #4
     e7c:	06f80000 	ldrbteq	r0, [r8], r0
     e80:	00040000 	andeq	r0, r4, r0
     e84:	9f5201f3 	svcls	0x005201f3
	...
     e90:	000006f8 	strdeq	r0, [r0], -r8
     e94:	000006fb 	strdeq	r0, [r0], -fp
     e98:	fb500001 	blx	1400ea6 <_end+0x13fce9e>
     e9c:	fc000006 	stc2	0, cr0, [r0], {6}
     ea0:	04000006 	streq	r0, [r0], #-6
     ea4:	5001f300 	andpl	pc, r1, r0, lsl #6
     ea8:	0000009f 	muleq	r0, pc, r0	; <UNPREDICTABLE>
     eac:	00000000 	andeq	r0, r0, r0
     eb0:	0006f800 	andeq	pc, r6, r0, lsl #16
     eb4:	0006fb00 	andeq	pc, r6, r0, lsl #22
     eb8:	51000100 	mrspl	r0, (UNDEF: 16)
     ebc:	000006fb 	strdeq	r0, [r0], -fp
     ec0:	000006fc 	strdeq	r0, [r0], -ip
     ec4:	01f30004 	mvnseq	r0, r4
     ec8:	00009f51 	andeq	r9, r0, r1, asr pc
     ecc:	00000000 	andeq	r0, r0, r0
     ed0:	06f80000 	ldrbteq	r0, [r8], r0
     ed4:	06fb0000 	ldrbteq	r0, [fp], r0
     ed8:	00010000 	andeq	r0, r1, r0
     edc:	0006fb52 	andeq	pc, r6, r2, asr fp	; <UNPREDICTABLE>
     ee0:	0006fc00 	andeq	pc, r6, r0, lsl #24
     ee4:	f3000400 	vshl.u8	d0, d0, d0
     ee8:	009f5201 	addseq	r5, pc, r1, lsl #4
     eec:	00000000 	andeq	r0, r0, r0
     ef0:	fc000000 	stc2	0, cr0, [r0], {-0}
     ef4:	22000006 	andcs	r0, r0, #6
     ef8:	01000007 	tsteq	r0, r7
     efc:	07225000 	streq	r5, [r2, -r0]!
     f00:	07440000 	strbeq	r0, [r4, -r0]
     f04:	00010000 	andeq	r0, r1, r0
     f08:	00074455 	andeq	r4, r7, r5, asr r4
     f0c:	00077a00 	andeq	r7, r7, r0, lsl #20
     f10:	50000100 	andpl	r0, r0, r0, lsl #2
     f14:	0000077a 	andeq	r0, r0, sl, ror r7
     f18:	000007aa 	andeq	r0, r0, sl, lsr #15
     f1c:	aa550001 	bge	1540f28 <_end+0x153cf20>
     f20:	c0000007 	andgt	r0, r0, r7
     f24:	01000007 	tsteq	r0, r7
     f28:	07c05000 	strbeq	r5, [r0, r0]
     f2c:	07f20000 	ldrbeq	r0, [r2, r0]!
     f30:	00010000 	andeq	r0, r1, r0
     f34:	0007f255 	andeq	pc, r7, r5, asr r2	; <UNPREDICTABLE>
     f38:	0007fe00 	andeq	pc, r7, r0, lsl #28
     f3c:	50000100 	andpl	r0, r0, r0, lsl #2
     f40:	000007fe 	strdeq	r0, [r0], -lr
     f44:	00000816 	andeq	r0, r0, r6, lsl r8
     f48:	16550001 	ldrbne	r0, [r5], -r1
     f4c:	3a000008 	bcc	f74 <testParameter+0x26c>
     f50:	01000008 	tsteq	r0, r8
     f54:	083a5000 	ldmdaeq	sl!, {ip, lr}
     f58:	08fa0000 	ldmeq	sl!, {}^	; <UNPREDICTABLE>
     f5c:	00010000 	andeq	r0, r1, r0
     f60:	0008fa55 	andeq	pc, r8, r5, asr sl	; <UNPREDICTABLE>
     f64:	00090800 	andeq	r0, r9, r0, lsl #16
     f68:	50000100 	andpl	r0, r0, r0, lsl #2
     f6c:	00000908 	andeq	r0, r0, r8, lsl #18
     f70:	0000092a 	andeq	r0, r0, sl, lsr #18
     f74:	00550001 	subseq	r0, r5, r1
     f78:	00000000 	andeq	r0, r0, r0
     f7c:	fc000000 	stc2	0, cr0, [r0], {-0}
     f80:	1e000006 	cdpne	0, 0, cr0, cr0, cr6, {0}
     f84:	01000007 	tsteq	r0, r7
     f88:	071e5100 	ldreq	r5, [lr, -r0, lsl #2]
     f8c:	07440000 	strbeq	r0, [r4, -r0]
     f90:	00040000 	andeq	r0, r4, r0
     f94:	9f5101f3 	svcls	0x005101f3
     f98:	00000744 	andeq	r0, r0, r4, asr #14
     f9c:	0000076e 	andeq	r0, r0, lr, ror #14
     fa0:	6e510001 	cdpvs	0, 5, cr0, cr1, cr1, {0}
     fa4:	aa000007 	bge	fc8 <testParameter+0x2c0>
     fa8:	04000007 	streq	r0, [r0], #-7
     fac:	5101f300 	mrspl	pc, SP_irq	; <UNPREDICTABLE>
     fb0:	0007aa9f 	muleq	r7, pc, sl	; <UNPREDICTABLE>
     fb4:	0007c300 	andeq	ip, r7, r0, lsl #6
     fb8:	51000100 	mrspl	r0, (UNDEF: 16)
     fbc:	000007c3 	andeq	r0, r0, r3, asr #15
     fc0:	000007f2 	strdeq	r0, [r0], -r2
     fc4:	01f30004 	mvnseq	r0, r4
     fc8:	07f29f51 	ubfxeq	r9, r1, #30, #19
     fcc:	08000000 	stmdaeq	r0, {}	; <UNPREDICTABLE>
     fd0:	00010000 	andeq	r0, r1, r0
     fd4:	00080051 	andeq	r0, r8, r1, asr r0
     fd8:	00081600 	andeq	r1, r8, r0, lsl #12
     fdc:	f3000400 	vshl.u8	d0, d0, d0
     fe0:	169f5101 	ldrne	r5, [pc], r1, lsl #2
     fe4:	4d000008 	stcmi	0, cr0, [r0, #-32]	; 0xffffffe0
     fe8:	01000008 	tsteq	r0, r8
     fec:	084d5100 	stmdaeq	sp, {r8, ip, lr}^
     ff0:	08c40000 	stmiaeq	r4, {}^	; <UNPREDICTABLE>
     ff4:	00040000 	andeq	r0, r4, r0
    return;
     ff8:	9f5101f3 	svcls	0x005101f3
     ffc:	000008c4 	andeq	r0, r0, r4, asr #17
    1000:	000008cd 	andeq	r0, r0, sp, asr #17
    1004:	cd510001 	ldclgt	0, cr0, [r1, #-4]
    1008:	fa000008 	blx	1030 <willCrash+0x24>
{
    100c:	04000008 	streq	r0, [r0], #-8
    1010:	5101f300 	mrspl	pc, SP_irq	; <UNPREDICTABLE>
    int *p = NULL;
    1014:	0008fa9f 	muleq	r8, pc, sl	; <UNPREDICTABLE>
    *p = 10;
    1018:	00090800 	andeq	r0, r9, r0, lsl #16
    LOGE("Fun : %s, Line : %d", __FUNCTION__, __LINE__ );
    101c:	51000100 	mrspl	r0, (UNDEF: 16)
    1020:	00000908 	andeq	r0, r0, r8, lsl #18
    1024:	0000092a 	andeq	r0, r0, sl, lsr #18
    1028:	01f30004 	mvnseq	r0, r4
    102c:	00009f51 	andeq	r9, r0, r1, asr pc
    1030:	00000000 	andeq	r0, r0, r0
    1034:	06fc0000 	ldrbteq	r0, [ip], r0
    1038:	07100000 	ldreq	r0, [r0, -r0]
    103c:	00010000 	andeq	r0, r1, r0
    1040:	00071052 	andeq	r1, r7, r2, asr r0
    1044:	00075400 	andeq	r5, r7, r0, lsl #8
}
    1048:	54000100 	strpl	r0, [r0], #-256	; 0xffffff00
    104c:	00000754 	andeq	r0, r0, r4, asr r7
    1050:	0000075c 	andeq	r0, r0, ip, asr r7
    1054:	01f30004 	mvnseq	r0, r4
    1058:	075c9f52 			; <UNDEFINED> instruction: 0x075c9f52
{
    105c:	07640000 	strbeq	r0, [r4, -r0]!
    1060:	00010000 	andeq	r0, r1, r0
    1064:	00076454 	andeq	r6, r7, r4, asr r4
    pdata[0] = 'a';
    1068:	0007aa00 	andeq	sl, r7, r0, lsl #20
    LOGE("Fun : %s, Line : %d", __FUNCTION__, __LINE__ );
    106c:	f3000400 	vshl.u8	d0, d0, d0
    1070:	aa9f5201 	bge	fe7d587c <_end+0xfe7d1874>
    1074:	f2000007 	vhadd.s8	d0, d0, d7
    1078:	01000007 	tsteq	r0, r7
    107c:	07f25400 	ldrbeq	r5, [r2, r0, lsl #8]!
    1080:	092a0000 	stmdbeq	sl!, {}	; <UNPREDICTABLE>
    1084:	00040000 	andeq	r0, r4, r0
    1088:	9f5201f3 	svcls	0x005201f3
	...
}
    1094:	000006fc 	strdeq	r0, [r0], -ip
    1098:	00000710 	andeq	r0, r0, r0, lsl r7
    109c:	10530001 	subsne	r0, r3, r1
    10a0:	80000007 	andhi	r0, r0, r7
{
    10a4:	01000007 	tsteq	r0, r7
    10a8:	07805700 	streq	r5, [r0, r0, lsl #14]
    10ac:	07aa0000 	streq	r0, [sl, r0]!
    10b0:	00040000 	andeq	r0, r4, r0
    int result = 0;
    10b4:	9f5301f3 	svcls	0x005301f3
    result = system("mkdir /data/data/com.bar.hellojni/temp");
    10b8:	000007aa 	andeq	r0, r0, sl, lsr #15
    10bc:	00000812 	andeq	r0, r0, r2, lsl r8
    10c0:	12570001 	subsne	r0, r7, #1
    if( -1 == result || 127 == result )
    10c4:	16000008 	strne	r0, [r0], -r8
    10c8:	04000008 	streq	r0, [r0], #-8
    10cc:	5301f300 	movwpl	pc, #4864	; 0x1300	; <UNPREDICTABLE>
    10d0:	0008169f 	muleq	r8, pc, r6	; <UNPREDICTABLE>
    10d4:	00092400 	andeq	r2, r9, r0, lsl #8
        LOGE("error");
    10d8:	57000100 	strpl	r0, [r0, -r0, lsl #2]
    10dc:	00000924 	andeq	r0, r0, r4, lsr #18
    10e0:	0000092a 	andeq	r0, r0, sl, lsr #18
    10e4:	01f30004 	mvnseq	r0, r4
    10e8:	00009f53 	andeq	r9, r0, r3, asr pc
    10ec:	00000000 	andeq	r0, r0, r0
    }
    10f0:	07200000 	streq	r0, [r0, -r0]!
    10f4:	07220000 	streq	r0, [r2, -r0]!
    testString(NULL);
    10f8:	00010000 	andeq	r0, r1, r0
    willCrash();
    10fc:	00072252 	andeq	r2, r7, r2, asr r2
    pid_t pid = getpid();
    1100:	00073000 	andeq	r3, r7, r0
    uid_t uid = getuid();
    1104:	72000300 	andvc	r0, r0, #0, 6
    1108:	07309f04 	ldreq	r9, [r0, -r4, lsl #30]!
    testNoPara();
    110c:	07440000 	strbeq	r0, [r4, -r0]
    testOnePara(2);
    1110:	00010000 	andeq	r0, r1, r0
    1114:	00000052 	andeq	r0, r0, r2, asr r0
    testParameter(1, 2, 3, 4, 5, 6, 7, 8, 9, 10,
    1118:	00000000 	andeq	r0, r0, r0
    111c:	00071e00 	andeq	r1, r7, r0, lsl #28
    1120:	00074400 	andeq	r4, r7, r0, lsl #8
    1124:	51000100 	mrspl	r0, (UNDEF: 16)
	...
    1130:	00000720 	andeq	r0, r0, r0, lsr #14
    1134:	00000722 	andeq	r0, r0, r2, lsr #14
    1138:	9f300002 	svcls	0x00300002
    113c:	00000722 	andeq	r0, r0, r2, lsr #14
    1140:	00000724 	andeq	r0, r0, r4, lsr #14
    1144:	7f730003 	svcvc	0x00730003
    1148:	0007249f 	muleq	r7, pc, r4	; <UNPREDICTABLE>
    114c:	00072800 	andeq	r2, r7, r0, lsl #16
    1150:	56000100 	strpl	r0, [r0], -r0, lsl #2
    1154:	00000728 	andeq	r0, r0, r8, lsr #14
    1158:	00000730 	andeq	r0, r0, r0, lsr r7
    115c:	7f730003 	svcvc	0x00730003
    1160:	0007309f 	muleq	r7, pc, r0	; <UNPREDICTABLE>
    1164:	00073600 	andeq	r3, r7, r0, lsl #12
    1168:	53000100 	movwpl	r0, #256	; 0x100
    116c:	00000736 	andeq	r0, r0, r6, lsr r7
    1170:	00000744 	andeq	r0, r0, r4, asr #14
    1174:	7f730003 	svcvc	0x00730003
    1178:	0000009f 	muleq	r0, pc, r0	; <UNPREDICTABLE>
    117c:	00000000 	andeq	r0, r0, r0
    1180:	00074400 	andeq	r4, r7, r0, lsl #8
    1184:	00075200 	andeq	r5, r7, r0, lsl #4
    1188:	74000500 	strvc	r0, [r0], #-1280	; 0xfffffb00
    118c:	9f254000 	svcls	0x00254000
    1190:	00000752 	andeq	r0, r0, r2, asr r7
    1194:	0000075c 	andeq	r0, r0, ip, asr r7
    1198:	f2580001 	vhadd.s16	d16, d8, d1
    119c:	fc000007 	stc2	0, cr0, [r0], {7}
    11a0:	01000007 	tsteq	r0, r7
    11a4:	08005800 	stmdaeq	r0, {fp, ip, lr}
    11a8:	08120000 	ldmdaeq	r2, {}	; <UNPREDICTABLE>
    11ac:	00010000 	andeq	r0, r1, r0
    11b0:	00081658 	andeq	r1, r8, r8, asr r6
    11b4:	00092400 	andeq	r2, r9, r0, lsl #8
    11b8:	58000100 	stmdapl	r0, {r8}
	...
    11c4:	00000744 	andeq	r0, r0, r4, asr #14
    11c8:	00000754 	andeq	r0, r0, r4, asr r7
    11cc:	00740007 	rsbseq	r0, r4, r7
    11d0:	1affff0a 	bne	e00 <testParameter+0xf8>
    11d4:	0007549f 	muleq	r7, pc, r4	; <UNPREDICTABLE>
    11d8:	00075c00 	andeq	r5, r7, r0, lsl #24
    11dc:	f3000800 	vsub.i8	d0, d0, d0
    11e0:	ff0a5201 			; <UNDEFINED> instruction: 0xff0a5201
    11e4:	f29f1aff 			; <UNDEFINED> instruction: 0xf29f1aff
    11e8:	fc000007 	stc2	0, cr0, [r0], {7}
    11ec:	08000007 	stmdaeq	r0, {r0, r1, r2}
    11f0:	5201f300 	andpl	pc, r1, #0, 6
    11f4:	1affff0a 	bne	e24 <testParameter+0x11c>
    11f8:	0008009f 	muleq	r8, pc, r0	; <UNPREDICTABLE>
    11fc:	00081200 	andeq	r1, r8, r0, lsl #4
    1200:	f3000800 	vsub.i8	d0, d0, d0
    1204:	ff0a5201 			; <UNDEFINED> instruction: 0xff0a5201
    1208:	169f1aff 			; <UNDEFINED> instruction: 0x169f1aff
    120c:	24000008 	strcs	r0, [r0], #-8
    1210:	08000009 	stmdaeq	r0, {r0, r3}
    1214:	5201f300 	andpl	pc, r1, #0, 6
    1218:	1affff0a 	bne	e48 <testParameter+0x140>
    121c:	0000009f 	muleq	r0, pc, r0	; <UNPREDICTABLE>
    1220:	00000000 	andeq	r0, r0, r0
    1224:	00085e00 	andeq	r5, r8, r0, lsl #28
    1228:	00086600 	andeq	r6, r8, r0, lsl #12
    122c:	54000100 	strpl	r0, [r0], #-256	; 0xffffff00
    1230:	00000866 	andeq	r0, r0, r6, ror #16
    1234:	0000086a 	andeq	r0, r0, sl, ror #16
    1238:	00740005 	rsbseq	r0, r4, r5
    123c:	6a9f2431 	bvs	fe7ca308 <_end+0xfe7c6300>
    1240:	70000008 	andvc	r0, r0, r8
    1244:	01000008 	tsteq	r0, r8
    1248:	00005400 	andeq	r5, r0, r0, lsl #8
    124c:	00000000 	andeq	r0, r0, r0
    1250:	08020000 	stmdaeq	r2, {}	; <UNPREDICTABLE>
    1254:	08060000 	stmdaeq	r6, {}	; <UNPREDICTABLE>
    1258:	00030000 	andeq	r0, r3, r0
    125c:	649f0473 	ldrvs	r0, [pc], #1139	; 1264 <Java_com_crash_test_HelloJni_nativeMsg+0x1c0>
    1260:	70000008 	andvc	r0, r0, r8
    1264:	01000008 	tsteq	r0, r8
    1268:	08745200 	ldmdaeq	r4!, {r9, ip, lr}^
    126c:	087e0000 	ldmdaeq	lr!, {}^	; <UNPREDICTABLE>
    1270:	000a0000 	andeq	r0, sl, r0
    1274:	24320073 	ldrtcs	r0, [r2], #-115	; 0xffffff8d
    1278:	23220072 			; <UNDEFINED> instruction: 0x23220072
    127c:	087e9f04 	ldmdaeq	lr!, {r2, r8, r9, sl, fp, ip, pc}^
    1280:	08800000 	stmeq	r0, {}	; <UNPREDICTABLE>
    1284:	000a0000 	andeq	r0, sl, r0
    1288:	24327f73 	ldrtcs	r7, [r2], #-3955	; 0xfffff08d
    128c:	23220072 			; <UNDEFINED> instruction: 0x23220072
    1290:	08a29f04 	stmiaeq	r2!, {r2, r8, r9, sl, fp, ip, pc}
    char *username = getlogin();
    1294:	08a60000 	stmiaeq	r6!, {}	; <UNPREDICTABLE>
    1298:	00030000 	andeq	r0, r3, r0
    LOGE("F:%s,%s", __FUNCTION__, username);
    129c:	a69f0473 			; <UNDEFINED> instruction: 0xa69f0473
    12a0:	ac000008 	stcge	0, cr0, [r0], {8}
    12a4:	01000008 	tsteq	r0, r8
    12a8:	00005300 	andeq	r5, r0, r0, lsl #6
    12ac:	00000000 	andeq	r0, r0, r0
    12b0:	086e0000 	stmdaeq	lr!, {}^	; <UNPREDICTABLE>
    12b4:	08700000 	ldmdaeq	r0!, {}^	; <UNPREDICTABLE>
    12b8:	00010000 	andeq	r0, r1, r0
    12bc:	00087450 	andeq	r7, r8, r0, asr r4
    12c0:	00087e00 	andeq	r7, r8, r0, lsl #28
    12c4:	73000800 	movwvc	r0, #2048	; 0x800
}
    12c8:	70243201 	eorvc	r3, r4, r1, lsl #4
    12cc:	7e9f2200 	cdpvc	2, 9, cr2, cr15, cr0, {0}
    12d0:	80000008 	andhi	r0, r0, r8
    12d4:	08000008 	stmdaeq	r0, {r3}
    12d8:	32007300 	andcc	r7, r0, #0, 6
    12dc:	22007024 	andcs	r7, r0, #36	; 0x24
    12e0:	0008889f 	muleq	r8, pc, r8	; <UNPREDICTABLE>
    12e4:	0008a200 	andeq	sl, r8, r0, lsl #4
{
    12e8:	78002000 	stmdavc	r0, {sp}
    12ec:	4b401200 	blmi	1005af4 <_end+0x1001aec>
    12f0:	16402224 	strbne	r2, [r0], -r4, lsr #4
    12f4:	244b4014 	strbcs	r4, [fp], #-20	; 0xffffffec
    LOGE(__FUNCTION__);
    12f8:	01282b22 			; <UNDEFINED> instruction: 0x01282b22
    12fc:	40131600 	andsmi	r1, r3, r0, lsl #12
    1300:	9124331c 			; <UNDEFINED> instruction: 0x9124331c
    1304:	200a2200 	andcs	r2, sl, r0, lsl #4
    1308:	a29f1c01 	addsge	r1, pc, #256	; 0x100
    130c:	ac000008 	stcge	0, cr0, [r0], {8}
    1310:	20000008 	andcs	r0, r0, r8
    1314:	12007800 	andne	r7, r0, #0, 16
    1318:	22244b40 	eorcs	r4, r4, #64, 22	; 0x10000
    if( JNI_OK == (*env)->MonitorEnter(env, thiz)){
    131c:	40141640 	andsmi	r1, r4, r0, asr #12
    1320:	2b22244b 	blcs	88a454 <_end+0x88644c>
    1324:	16000128 	strne	r0, [r0], -r8, lsr #2
    1328:	331c4013 	tstcc	ip, #19
    132c:	22009124 	andcs	r9, r0, #36, 2
    1330:	1c011c0a 	stcne	12, cr1, [r1], {10}
        LOGE("MonitorEnterr");
    1334:	0000009f 	muleq	r0, pc, r0	; <UNPREDICTABLE>
    1338:	00000000 	andeq	r0, r0, r0
    133c:	00074400 	andeq	r4, r7, r0, lsl #8
    1340:	00075c00 	andeq	r5, r7, r0, lsl #24
    1344:	30000200 	andcc	r0, r0, r0, lsl #4
    1348:	0007f29f 	muleq	r7, pc, r2	; <UNPREDICTABLE>
    134c:	0007fc00 	andeq	pc, r7, r0, lsl #24
    }
    1350:	30000200 	andcc	r0, r0, r0, lsl #4
    int result = 0;
    1354:	0008169f 	muleq	r8, pc, r6	; <UNPREDICTABLE>
    result = system("mkdir /data/data/com.bar.hellojni/temp");
    1358:	00082000 	andeq	r2, r8, r0
    135c:	30000200 	andcc	r0, r0, r0, lsl #4
    if( -1 == result || 127 == result )
    1360:	0008209f 	muleq	r8, pc, r0	; <UNPREDICTABLE>
    1364:	00082600 	andeq	r2, r8, r0, lsl #12
    1368:	f3000800 	vsub.i8	d0, d0, d0
    136c:	ff0a5201 			; <UNDEFINED> instruction: 0xff0a5201
    1370:	269f1aff 			; <UNDEFINED> instruction: 0x269f1aff
        LOGE("error");
    1374:	2a000008 	bcs	139c <Java_com_crash_test_HelloJni_stringFromJNI+0xb4>
    1378:	02000008 	andeq	r0, r0, #8
    137c:	2a9f3000 	bcs	fe7cd384 <_end+0xfe7c937c>
    1380:	30000008 	andcc	r0, r0, r8
    1384:	03000008 	movweq	r0, #8
    1388:	9f707600 	svcls	0x00707600
    }
    138c:	000008fa 	strdeq	r0, [r0], -sl
    pid_t pid = getpid();
    1390:	000008fe 	strdeq	r0, [r0], -lr
    1394:	9f300002 	svcls	0x00300002
    uid_t uid = getuid();
    1398:	000008fe 	strdeq	r0, [r0], -lr
    char *username = getlogin();
    139c:	00000908 	andeq	r0, r0, r8, lsl #18
    13a0:	01f30008 	mvnseq	r0, r8
    LOGE("%s", username);
    13a4:	ffff0a52 			; <UNDEFINED> instruction: 0xffff0a52
    13a8:	00009f1a 	andeq	r9, r0, sl, lsl pc
    13ac:	00000000 	andeq	r0, r0, r0
    13b0:	08880000 	stmeq	r8, {}	; <UNPREDICTABLE>
    13b4:	089e0000 	ldmeq	lr, {}	; <UNPREDICTABLE>
    13b8:	00050000 	andeq	r0, r5, r0
    if(JNI_OK == (*env)->MonitorExit(env, thiz)){
    13bc:	24310076 	ldrtcs	r0, [r1], #-118	; 0xffffff8a
    13c0:	0000009f 	muleq	r0, pc, r0	; <UNPREDICTABLE>
    13c4:	00000000 	andeq	r0, r0, r0
    13c8:	00088800 	andeq	r8, r8, r0, lsl #16
    13cc:	0008ac00 	andeq	sl, r8, r0, lsl #24
    13d0:	78001500 	stmdavc	r0, {r8, sl, ip}
        LOGE("MonitorExit");
    13d4:	4b401200 	blmi	1005bdc <_end+0x1001bd4>
    13d8:	16402224 	strbne	r2, [r0], -r4, lsr #4
    13dc:	244b4014 	strbcs	r4, [fp], #-20	; 0xffffffec
    13e0:	01282b22 			; <UNDEFINED> instruction: 0x01282b22
    13e4:	9f131600 	svcls	0x00131600
	...
    }
    13f0:	0000075c 	andeq	r0, r0, ip, asr r7
    return (*env)->NewStringUTF(env, "Hello from JNI !  Compiled with ABI " ABI ".");
    13f4:	00000762 	andeq	r0, r0, r2, ror #14
    13f8:	00740005 	rsbseq	r0, r4, r5
    13fc:	629f2540 	addsvs	r2, pc, #64, 10	; 0x10000000
    1400:	84000007 	strhi	r0, [r0], #-7
    1404:	01000007 	tsteq	r0, r7
    1408:	07845600 	streq	r5, [r4, r0, lsl #12]
    140c:	07aa0000 	streq	r0, [sl, r0]!
    1410:	00060000 	andeq	r0, r6, r0
    1414:	405201f3 	ldrshmi	r0, [r2], #-19	; 0xffffffed
    1418:	00009f25 	andeq	r9, r0, r5, lsr #30
    141c:	00000000 	andeq	r0, r0, r0
    1420:	075c0000 	ldrbeq	r0, [ip, -r0]
    1424:	07640000 	strbeq	r0, [r4, -r0]!
    1428:	00070000 	andeq	r0, r7, r0
    142c:	ff0a0074 			; <UNDEFINED> instruction: 0xff0a0074
    1430:	649f1aff 	ldrvs	r1, [pc], #2815	; 1438 <Java_com_crash_test_HelloJni_stringFromJNI+0x150>
    1434:	8e000007 	cdphi	0, 0, cr0, cr0, cr7, {0}
    1438:	08000007 	stmdaeq	r0, {r0, r1, r2}
{
    143c:	5201f300 	andpl	pc, r1, #0, 6
    1440:	1affff0a 	bne	1070 <testString+0x14>
    1444:	00078e9f 	muleq	r7, pc, lr	; <UNPREDICTABLE>
    1448:	00079200 	andeq	r9, r7, r0, lsl #4
    return (*env)->NewStringUTF(env, "stringFromJNI_11");
    144c:	74000500 	strvc	r0, [r0], #-1280	; 0xfffffb00
    1450:	9f243100 	svcls	0x00243100
	...
    145c:	0000078e 	andeq	r0, r0, lr, lsl #15
    1460:	0000079a 	muleq	r0, sl, r7
    1464:	9a530001 	bls	14c1470 <_end+0x14bd468>
    1468:	a0000007 	andge	r0, r0, r7
    146c:	03000007 	movweq	r0, #7
{
    1470:	9f7c7300 	svcls	0x007c7300
    1474:	000007a0 	andeq	r0, r0, r0, lsr #15
    LOGE(" %s", __FUNCTION__ );
    1478:	000007a7 	andeq	r0, r0, r7, lsr #15
    147c:	00530001 	subseq	r0, r3, r1
    1480:	00000000 	andeq	r0, r0, r0
    1484:	ce000000 	cdpgt	0, 0, cr0, cr0, cr0, {0}
    1488:	d2000007 	andle	r0, r0, #7
    148c:	02000007 	andeq	r0, r0, #7
    1490:	d29f3000 	addsle	r3, pc, #0
    1494:	ef000007 	svc	0x00000007
    1498:	01000007 	tsteq	r0, r7
}
    149c:	00005300 	andeq	r5, r0, r0, lsl #6
    14a0:	00000000 	andeq	r0, r0, r0
    14a4:	07ce0000 	strbeq	r0, [lr, r0]
    14a8:	07d20000 	ldrbeq	r0, [r2, r0]
    14ac:	00010000 	andeq	r0, r1, r0
jint JNI_OnLoad( JavaVM* vm, void *reserved){
    14b0:	0007d252 	andeq	sp, r7, r2, asr r2
    14b4:	0007de00 	andeq	sp, r7, r0, lsl #28
    14b8:	72000300 	andvc	r0, r0, #0, 6
    gs_jvm = vm;
    14bc:	07de9f04 	ldrbeq	r9, [lr, r4, lsl #30]
    14c0:	07ef0000 	strbeq	r0, [pc, r0]!
    jint result = JNI_VERSION_1_4;
    14c4:	00010000 	andeq	r0, r1, r0
    14c8:	00000052 	andeq	r0, r0, r2, asr r0
	...
    return  result;
    14d4:	00002600 	andeq	r2, r0, r0, lsl #12
    14d8:	50000100 	andpl	r0, r0, r0, lsl #2
    14dc:	00000026 	andeq	r0, r0, r6, lsr #32
    14e0:	00000028 	andeq	r0, r0, r8, lsr #32
    14e4:	01f30004 	mvnseq	r0, r4
    14e8:	00289f50 	eoreq	r9, r8, r0, asr pc
    14ec:	002a0000 	eoreq	r0, sl, r0
    14f0:	00010000 	andeq	r0, r1, r0
    14f4:	00002a50 	andeq	r2, r0, r0, asr sl
    14f8:	00002c00 	andeq	r2, r0, r0, lsl #24
    14fc:	f3000400 	vshl.u8	d0, d0, d0
    1500:	009f5001 	addseq	r5, pc, r1
    1504:	00000000 	andeq	r0, r0, r0
    1508:	20000000 	andcs	r0, r0, r0
    150c:	28000000 	stmdacs	r0, {}	; <UNPREDICTABLE>
    1510:	05000000 	streq	r0, [r0, #-0]
    1514:	48007300 	stmdami	r0, {r8, r9, ip, sp, lr}
    1518:	00009f25 	andeq	r9, r0, r5, lsr #30
    151c:	00000000 	andeq	r0, r0, r0
    1520:	002c0000 	eoreq	r0, ip, r0
    1524:	003b0000 	eorseq	r0, fp, r0
    1528:	00010000 	andeq	r0, r1, r0
    152c:	00003b50 	andeq	r3, r0, r0, asr fp
    1530:	00004400 	andeq	r4, r0, r0, lsl #8
    1534:	f3000400 	vshl.u8	d0, d0, d0
    1538:	009f5001 	addseq	r5, pc, r1
    153c:	00000000 	andeq	r0, r0, r0
    1540:	44000000 	strmi	r0, [r0], #-0
    1544:	45000000 	strmi	r0, [r0, #-0]
    1548:	01000000 	mrseq	r0, (UNDEF: 0)
    154c:	00455000 	subeq	r5, r5, r0
    1550:	00460000 	subeq	r0, r6, r0
    1554:	00040000 	andeq	r0, r4, r0
    1558:	9f5001f3 	svcls	0x005001f3
	...
    1564:	00000046 	andeq	r0, r0, r6, asr #32
    1568:	00000052 	andeq	r0, r0, r2, asr r0
    156c:	52500001 	subspl	r0, r0, #1
    1570:	24000000 	strcs	r0, [r0], #-0
    1574:	01000001 	tsteq	r0, r1
    1578:	01245500 			; <UNDEFINED> instruction: 0x01245500
    157c:	012b0000 			; <UNDEFINED> instruction: 0x012b0000
    1580:	00010000 	andeq	r0, r1, r0
    1584:	00012b50 	andeq	r2, r1, r0, asr fp
    1588:	00016c00 	andeq	r6, r1, r0, lsl #24
    158c:	55000100 	strpl	r0, [r0, #-256]	; 0xffffff00
    1590:	0000016c 	andeq	r0, r0, ip, ror #2
    1594:	00000170 	andeq	r0, r0, r0, ror r1
    1598:	70500001 	subsvc	r0, r0, r1
    159c:	10000001 	andne	r0, r0, r1
    15a0:	01000002 	tsteq	r0, r2
    15a4:	02105500 	andseq	r5, r0, #0, 10
    15a8:	02160000 	andseq	r0, r6, #0
    15ac:	00010000 	andeq	r0, r1, r0
    15b0:	00021650 	andeq	r1, r2, r0, asr r6
    15b4:	0002a600 	andeq	sl, r2, r0, lsl #12
    15b8:	55000100 	strpl	r0, [r0, #-256]	; 0xffffff00
    15bc:	000002a6 	andeq	r0, r0, r6, lsr #5
    15c0:	000002bc 			; <UNDEFINED> instruction: 0x000002bc
    15c4:	00500001 	subseq	r0, r0, r1
    15c8:	00000000 	andeq	r0, r0, r0
    15cc:	46000000 	strmi	r0, [r0], -r0
    15d0:	52000000 	andpl	r0, r0, #0
    15d4:	01000000 	mrseq	r0, (UNDEF: 0)
    15d8:	00525100 	subseq	r5, r2, r0, lsl #2
    15dc:	02bc0000 	adcseq	r0, ip, #0
    15e0:	00010000 	andeq	r0, r1, r0
    15e4:	00000057 	andeq	r0, r0, r7, asr r0
    15e8:	00000000 	andeq	r0, r0, r0
    15ec:	00005c00 	andeq	r5, r0, r0, lsl #24
    15f0:	00006e00 	andeq	r6, r0, r0, lsl #28
    15f4:	50000100 	andpl	r0, r0, r0, lsl #2
    15f8:	00000084 	andeq	r0, r0, r4, lsl #1
    15fc:	0000009e 	muleq	r0, lr, r0
    1600:	9e500001 	cdpls	0, 5, cr0, cr0, cr1, {0}
    1604:	c2000000 	andgt	r0, r0, #0
    1608:	01000000 	mrseq	r0, (UNDEF: 0)
    160c:	00c25400 	sbceq	r5, r2, r0, lsl #8
    1610:	00ce0000 	sbceq	r0, lr, r0
    1614:	00010000 	andeq	r0, r1, r0
    1618:	0000d450 	andeq	sp, r0, r0, asr r4
    161c:	0000da00 	andeq	sp, r0, r0, lsl #20
    1620:	50000100 	andpl	r0, r0, r0, lsl #2
    1624:	000000de 	ldrdeq	r0, [r0], -lr
    1628:	000000e0 	andeq	r0, r0, r0, ror #1
    162c:	e0500001 	subs	r0, r0, r1
    1630:	fa000000 	blx	1638 <restore_non_core_regs+0x10>
    1634:	07000000 	streq	r0, [r0, -r0]
    1638:	0a007400 	beq	1e640 <_end+0x1a638>
    163c:	9f1affff 	svcls	0x001affff
    1640:	000000fa 	strdeq	r0, [r0], -sl
    1644:	000000fe 	strdeq	r0, [r0], -lr
    1648:	fe500001 	cdp2	0, 5, cr0, cr0, cr1, {0}
    164c:	0e000000 	cdpeq	0, 0, cr0, cr0, cr0, {0}
    1650:	08000001 	stmdaeq	r0, {r0}
    1654:	3f007000 	svccc	0x00007000
    1658:	1aff081a 	bne	fffc36c8 <_end+0xfffbf6c0>
    165c:	00012e9f 	muleq	r1, pc, lr	; <UNPREDICTABLE>
    1660:	00014800 	andeq	r4, r1, r0, lsl #16
    1664:	50000100 	andpl	r0, r0, r0, lsl #2
    1668:	00000148 	andeq	r0, r0, r8, asr #2
    166c:	00000150 	andeq	r0, r0, r0, asr r1
    1670:	50540001 	subspl	r0, r4, r1
    1674:	5a000001 	bpl	1680 <_Unwind_decode_typeinfo_ptr.isra.0+0xa>
    1678:	01000001 	tsteq	r0, r1
    167c:	015a5000 	cmpeq	sl, r0
    1680:	015e0000 	cmpeq	lr, r0
    1684:	00010000 	andeq	r0, r1, r0
    1688:	00015e54 	andeq	r5, r1, r4, asr lr
    168c:	00016c00 	andeq	r6, r1, r0, lsl #24
    1690:	50000100 	andpl	r0, r0, r0, lsl #2
    1694:	00000170 	andeq	r0, r0, r0, ror r1
    1698:	0000017c 	andeq	r0, r0, ip, ror r1
    169c:	8a500001 	bhi	14016a8 <_end+0x13fd6a0>
    16a0:	98000001 	stmdals	r0, {r0}
    16a4:	01000001 	tsteq	r0, r1
    16a8:	01ac5000 			; <UNDEFINED> instruction: 0x01ac5000
    16ac:	01ae0000 			; <UNDEFINED> instruction: 0x01ae0000
    16b0:	00010000 	andeq	r0, r1, r0
    16b4:	0001c050 	andeq	ip, r1, r0, asr r0
    16b8:	0001c600 	andeq	ip, r1, r0, lsl #12
    16bc:	50000100 	andpl	r0, r0, r0, lsl #2
    16c0:	000001c6 	andeq	r0, r0, r6, asr #3
    16c4:	000001ca 	andeq	r0, r0, sl, asr #3
    16c8:	ca540001 	bgt	15016d4 <_end+0x14fd6cc>
    16cc:	d8000001 	stmdale	r0, {r0}
    16d0:	15000001 	strne	r0, [r0, #-1]
    16d4:	3f007000 	svccc	0x00007000
    16d8:	1aff081a 	bne	fffc3748 <_end+0xfffbf740>
    16dc:	00700123 	rsbseq	r0, r0, r3, lsr #2
    16e0:	081af009 	ldmdaeq	sl, {r0, r3, ip, sp, lr, pc}
    16e4:	243c1aff 	ldrtcs	r1, [ip], #-2815	; 0xfffff501
    16e8:	01da9f21 	bicseq	r9, sl, r1, lsr #30
    16ec:	01e40000 	mvneq	r0, r0
    16f0:	00010000 	andeq	r0, r1, r0
    16f4:	0001e450 	andeq	lr, r1, r0, asr r4
    16f8:	0001ee00 	andeq	lr, r1, r0, lsl #28
    16fc:	70000e00 	andvc	r0, r0, r0, lsl #28
    1700:	081a3700 	ldmdaeq	sl, {r8, r9, sl, ip, sp}
    1704:	01231aff 	strdeq	r1, [r3, -pc]!
    1708:	21243f40 			; <UNDEFINED> instruction: 0x21243f40
    170c:	0001f49f 	muleq	r1, pc, r4	; <UNPREDICTABLE>
    1710:	0001fe00 	andeq	pc, r1, r0, lsl #28
    1714:	50000100 	andpl	r0, r0, r0, lsl #2
    1718:	000001fe 	strdeq	r0, [r0], -lr
    171c:	00000202 	andeq	r0, r0, r2, lsl #4
    1720:	02540001 	subseq	r0, r4, #1
    1724:	10000002 	andne	r0, r0, r2
    1728:	15000002 	strne	r0, [r0, #-2]
    172c:	3f007000 	svccc	0x00007000
    1730:	1aff081a 	bne	fffc37a0 <_end+0xfffbf798>
    1734:	00700123 	rsbseq	r0, r0, r3, lsr #2
    1738:	081af009 	ldmdaeq	sl, {r0, r3, ip, sp, lr, pc}
    173c:	243c1aff 	ldrtcs	r1, [ip], #-2815	; 0xfffff501
    1740:	02169f21 	andseq	r9, r6, #33, 30	; 0x84
    1744:	021c0000 	andseq	r0, ip, #0
    1748:	00010000 	andeq	r0, r1, r0
    174c:	00021c50 	andeq	r1, r2, r0, asr ip
    1750:	00022000 	andeq	r2, r2, r0
    1754:	54000100 	strpl	r0, [r0], #-256	; 0xffffff00
    1758:	00000220 	andeq	r0, r0, r0, lsr #4
    175c:	00000232 	andeq	r0, r0, r2, lsr r2
    1760:	32500001 	subscc	r0, r0, #1
    1764:	36000002 	strcc	r0, [r0], -r2
    1768:	01000002 	tsteq	r0, r2
    176c:	02365200 	eorseq	r5, r6, #0, 4
    1770:	023e0000 	eorseq	r0, lr, #0
    1774:	00010000 	andeq	r0, r1, r0
    1778:	00023e50 	andeq	r3, r2, r0, asr lr
    177c:	00024800 	andeq	r4, r2, r0, lsl #16
    1780:	70000e00 	andvc	r0, r0, r0, lsl #28
    1784:	081a3f00 	ldmdaeq	sl, {r8, r9, sl, fp, ip, sp}
    1788:	01231aff 	strdeq	r1, [r3, -pc]!
    178c:	21243f44 			; <UNDEFINED> instruction: 0x21243f44
    1790:	00024e9f 	muleq	r2, pc, lr	; <UNPREDICTABLE>
    1794:	00025400 	andeq	r5, r2, r0, lsl #8
    1798:	50000100 	andpl	r0, r0, r0, lsl #2
    179c:	00000254 	andeq	r0, r0, r4, asr r2
    17a0:	00000258 	andeq	r0, r0, r8, asr r2
    17a4:	58540001 	ldmdapl	r4, {r0}^
    17a8:	62000002 	andvs	r0, r0, #2
    17ac:	17000002 	strne	r0, [r0, -r2]
    17b0:	3f007000 	svccc	0x00007000
    17b4:	1aff081a 	bne	fffc3824 <_end+0xfffbf81c>
    17b8:	00700123 	rsbseq	r0, r0, r3, lsr #2
    17bc:	081af009 	ldmdaeq	sl, {r0, r3, ip, sp, lr, pc}
    17c0:	10231aff 	strdne	r1, [r3], -pc	; <UNPREDICTABLE>
    17c4:	9f21243c 	svcls	0x0021243c
    17c8:	0000026e 	andeq	r0, r0, lr, ror #4
    17cc:	00000276 	andeq	r0, r0, r6, ror r2
    17d0:	76500001 	ldrbvc	r0, [r0], -r1
    17d4:	7a000002 	bvc	17e4 <__gnu_Unwind_RaiseException+0x60>
    17d8:	01000002 	tsteq	r0, r2
    17dc:	027a5400 	rsbseq	r5, sl, #0, 8
    17e0:	02880000 	addeq	r0, r8, #0
    17e4:	00150000 	andseq	r0, r5, r0
    17e8:	1a3f0070 	bne	fc19b0 <_end+0xfbd9a8>
    17ec:	231aff08 	tstcs	sl, #8, 30	; <UNPREDICTABLE>
    17f0:	09007001 	stmdbeq	r0, {r0, ip, sp, lr}
    17f4:	ff081af0 			; <UNDEFINED> instruction: 0xff081af0
    17f8:	21243c1a 			; <UNDEFINED> instruction: 0x21243c1a
    17fc:	00028e9f 	muleq	r2, pc, lr	; <UNPREDICTABLE>
    1800:	00029800 	andeq	r9, r2, r0, lsl #16
    1804:	50000100 	andpl	r0, r0, r0, lsl #2
    1808:	00000298 	muleq	r0, r8, r2
    180c:	000002a2 	andeq	r0, r0, r2, lsr #5
    1810:	0070000e 	rsbseq	r0, r0, lr
    1814:	ff081a37 			; <UNDEFINED> instruction: 0xff081a37
    1818:	4001231a 	andmi	r2, r1, sl, lsl r3
    181c:	9f21243f 	svcls	0x0021243f
	...
    1828:	00000046 	andeq	r0, r0, r6, asr #32
    182c:	00000052 	andeq	r0, r0, r2, asr r0
    1830:	9f300002 	svcls	0x00300002
    1834:	00000052 	andeq	r0, r0, r2, asr r0
    1838:	000000f8 	strdeq	r0, [r0], -r8
    183c:	fa560001 	blx	1581848 <_end+0x157d840>
    1840:	bc000000 	stclt	0, cr0, [r0], {-0}
    1844:	01000002 	tsteq	r0, r2
    1848:	00005600 	andeq	r5, r0, r0, lsl #12
    184c:	00000000 	andeq	r0, r0, r0
    1850:	00b20000 	adcseq	r0, r2, r0
    1854:	00c20000 	sbceq	r0, r2, r0
    1858:	00010000 	andeq	r0, r1, r0
    185c:	00000058 	andeq	r0, r0, r8, asr r0
    1860:	00000000 	andeq	r0, r0, r0
    1864:	00014600 	andeq	r4, r1, r0, lsl #12
    1868:	00015000 	andeq	r5, r1, r0
    186c:	52000100 	andpl	r0, r0, #0, 2
	...
    1878:	0000018a 	andeq	r0, r0, sl, lsl #3
    187c:	0000018e 	andeq	r0, r0, lr, lsl #3
    1880:	9f320002 	svcls	0x00320002
    1884:	0000018e 	andeq	r0, r0, lr, lsl #3
    1888:	000001c0 	andeq	r0, r0, r0, asr #3
    188c:	00580001 	subseq	r0, r8, r1
    1890:	00000000 	andeq	r0, r0, r0
    1894:	bc000000 	stclt	0, cr0, [r0], {-0}
    1898:	c2000002 	andgt	r0, r0, #2
    189c:	01000002 	tsteq	r0, r2
    18a0:	02c25000 	sbceq	r5, r2, #0
    18a4:	02e60000 	rsceq	r0, r6, #0
    18a8:	00040000 	andeq	r0, r4, r0
    18ac:	9f5001f3 	svcls	0x005001f3
	...
    18b8:	000002bc 			; <UNDEFINED> instruction: 0x000002bc
    18bc:	000002c4 	andeq	r0, r0, r4, asr #5
    18c0:	c4510001 	ldrbgt	r0, [r1], #-1
    18c4:	df000002 	svcle	0x00000002
    18c8:	01000002 	tsteq	r0, r2
    18cc:	02df5000 	sbcseq	r5, pc, #0
    18d0:	02e60000 	rsceq	r0, r6, #0
    18d4:	00040000 	andeq	r0, r4, r0
    18d8:	9f5101f3 	svcls	0x005101f3
	...
    18e4:	000002c0 	andeq	r0, r0, r0, asr #5
    18e8:	000002d8 	ldrdeq	r0, [r0], -r8
    18ec:	04730003 	ldrbteq	r0, [r3], #-3
    18f0:	0002d89f 	muleq	r2, pc, r8	; <UNPREDICTABLE>
    18f4:	0002df00 	andeq	sp, r2, r0, lsl #30
    18f8:	91000600 	tstls	r0, r0, lsl #12
    18fc:	1c340670 	ldcne	6, cr0, [r4], #-448	; 0xfffffe40
    1900:	0000009f 	muleq	r0, pc, r0	; <UNPREDICTABLE>
    1904:	00000000 	andeq	r0, r0, r0
    1908:	0002e600 	andeq	lr, r2, r0, lsl #12
    190c:	0002eb00 	andeq	lr, r2, r0, lsl #22
    1910:	50000100 	andpl	r0, r0, r0, lsl #2
    1914:	000002eb 	andeq	r0, r0, fp, ror #5
    1918:	000002f0 	strdeq	r0, [r0], -r0	; <UNPREDICTABLE>
    191c:	01f30004 	mvnseq	r0, r4
    1920:	00009f50 	andeq	r9, r0, r0, asr pc
    1924:	00000000 	andeq	r0, r0, r0
    1928:	02ec0000 	rsceq	r0, ip, #0
    192c:	02ee0000 	rsceq	r0, lr, #0
    1930:	00010000 	andeq	r0, r1, r0
    1934:	00000050 	andeq	r0, r0, r0, asr r0
    1938:	00000000 	andeq	r0, r0, r0
    193c:	0002f000 	andeq	pc, r2, r0
    1940:	0002f500 	andeq	pc, r2, r0, lsl #10
    1944:	50000100 	andpl	r0, r0, r0, lsl #2
    1948:	000002f5 	strdeq	r0, [r0], -r5
    194c:	00000302 	andeq	r0, r0, r2, lsl #6
    1950:	01f30004 	mvnseq	r0, r4
    1954:	00009f50 	andeq	r9, r0, r0, asr pc
    1958:	00000000 	andeq	r0, r0, r0
    195c:	02f60000 	rscseq	r0, r6, #0
    1960:	02fa0000 	rscseq	r0, sl, #0
    1964:	00010000 	andeq	r0, r1, r0
    1968:	00000050 	andeq	r0, r0, r0, asr r0
    196c:	00000000 	andeq	r0, r0, r0
    1970:	0002f800 	andeq	pc, r2, r0, lsl #16
    1974:	0002fe00 	andeq	pc, r2, r0, lsl #28
    1978:	73000300 	movwvc	r0, #768	; 0x300
    197c:	02fe9f04 	rscseq	r9, lr, #4, 30
    1980:	03020000 	movweq	r0, #8192	; 0x2000
    1984:	000f0000 	andeq	r0, pc, r0
    1988:	01940773 	orrseq	r0, r4, r3, ror r7
    198c:	321aff08 	andscc	pc, sl, #8, 30
    1990:	22007324 	andcs	r7, r0, #36, 6	; 0x90000000
    1994:	009f0823 	addseq	r0, pc, r3, lsr #16
    1998:	00000000 	andeq	r0, r0, r0
    199c:	02000000 	andeq	r0, r0, #0
    19a0:	07000003 	streq	r0, [r0, -r3]
    19a4:	01000003 	tsteq	r0, r3
    19a8:	03075000 	movweq	r5, #28672	; 0x7000
    19ac:	03080000 	movweq	r0, #32768	; 0x8000
    19b0:	00040000 	andeq	r0, r4, r0
    19b4:	9f5001f3 	svcls	0x005001f3
	...
    19c0:	00000308 	andeq	r0, r0, r8, lsl #6
    19c4:	0000030d 	andeq	r0, r0, sp, lsl #6
    19c8:	0d500001 	ldcleq	0, cr0, [r0, #-4]
    19cc:	0e000003 	cdpeq	0, 0, cr0, cr0, cr3, {0}
    19d0:	04000003 	streq	r0, [r0], #-3
    19d4:	5001f300 	andpl	pc, r1, r0, lsl #6
    19d8:	0000009f 	muleq	r0, pc, r0	; <UNPREDICTABLE>
    19dc:	00000000 	andeq	r0, r0, r0
	...

Disassembly of section .debug_abbrev:

00000000 <.debug_abbrev>:
   0:	25011101 	strcs	r1, [r1, #-257]	; 0xfffffeff
   4:	0305130e 	movweq	r1, #21262	; 0x530e
   8:	1b17100e 	blne	5c4048 <_end+0x5c0040>
   c:	5501110e 	strpl	r1, [r1, #-270]	; 0xfffffef2
  10:	02000017 	andeq	r0, r0, #23
  14:	0e030104 	adfeqs	f0, f3, f4
  18:	0b3a0b0b 	bleq	e82c4c <_end+0xe7ec44>
  1c:	00000b3b 	andeq	r0, r0, fp, lsr fp
  20:	03002803 	movweq	r2, #2051	; 0x803
  24:	000d1c0e 	andeq	r1, sp, lr, lsl #24
  28:	000f0400 	andeq	r0, pc, r0, lsl #8
  2c:	2e050000 	cdpcs	0, 0, cr0, cr5, cr0, {0}
  30:	12011101 	andne	r1, r1, #1073741824	; 0x40000000
  34:	03184006 	tsteq	r8, #6
  38:	3b0b3a0e 	blcc	2ce878 <_end+0x2ca870>
  3c:	00193f0b 	andseq	r3, r9, fp, lsl #30
  40:	00340600 	eorseq	r0, r4, r0, lsl #12
  44:	0e031802 	cdpeq	8, 0, cr1, cr3, cr2, {0}
  48:	0b3b0b3a 	bleq	ec2d38 <_end+0xebed30>
  4c:	00001349 	andeq	r1, r0, r9, asr #6
  50:	11010b07 	tstne	r1, r7, lsl #22
  54:	00061201 	andeq	r1, r6, r1, lsl #4
  58:	012e0800 			; <UNDEFINED> instruction: 0x012e0800
  5c:	06120111 			; <UNDEFINED> instruction: 0x06120111
  60:	0e031840 	cdpeq	8, 0, cr1, cr3, cr0, {2}
  64:	0b3b0b3a 	bleq	ec2d54 <_end+0xebed4c>
  68:	193f1927 	ldmdbne	pc!, {r0, r1, r2, r5, r8, fp, ip}	; <UNPREDICTABLE>
  6c:	05090000 	streq	r0, [r9, #-0]
  70:	03180200 	tsteq	r8, #0, 4
  74:	3b0b3a0e 	blcc	2ce8b4 <_end+0x2ca8ac>
  78:	0013490b 	andseq	r4, r3, fp, lsl #18
  7c:	012e0a00 			; <UNDEFINED> instruction: 0x012e0a00
  80:	06120111 			; <UNDEFINED> instruction: 0x06120111
  84:	0e031840 	cdpeq	8, 0, cr1, cr3, cr0, {2}
  88:	0b3b0b3a 	bleq	ec2d78 <_end+0xebed70>
  8c:	13491927 	movtne	r1, #39207	; 0x9927
  90:	0000193f 	andeq	r1, r0, pc, lsr r9
  94:	11002e0b 	tstne	r0, fp, lsl #28
  98:	40061201 	andmi	r1, r6, r1, lsl #4
  9c:	3a0e0318 	bcc	380d04 <_end+0x37ccfc>
  a0:	000b3b0b 	andeq	r3, fp, fp, lsl #22
  a4:	00160c00 	andseq	r0, r6, r0, lsl #24
  a8:	0e031349 	cdpeq	3, 0, cr1, cr3, cr9, {2}
  ac:	0b3b0b3a 	bleq	ec2d9c <_end+0xebed94>
  b0:	0f0d0000 	svceq	0x000d0000
  b4:	00134900 	andseq	r4, r3, r0, lsl #18
  b8:	01130e00 	tsteq	r3, r0, lsl #28
  bc:	0b0b0e03 	bleq	2c38d0 <_end+0x2bf8c8>
  c0:	0b3b0b3a 	bleq	ec2db0 <_end+0xebeda8>
  c4:	000f0188 	andeq	r0, pc, r8, lsl #3
  c8:	000d0f00 	andeq	r0, sp, r0, lsl #30
  cc:	13490e03 	movtne	r0, #40451	; 0x9e03
  d0:	0b3b0b3a 	bleq	ec2dc0 <_end+0xebedb8>
  d4:	00000b38 	andeq	r0, r0, r8, lsr fp
  d8:	49010110 	stmdbmi	r1, {r4, r8}
  dc:	11000013 	tstne	r0, r3, lsl r0
  e0:	13490021 	movtne	r0, #36897	; 0x9021
  e4:	00000b37 	andeq	r0, r0, r7, lsr fp
  e8:	03002412 	movweq	r2, #1042	; 0x412
  ec:	0b0b3e0e 	bleq	2cf92c <_end+0x2cb924>
  f0:	1300000b 	movwne	r0, #11
  f4:	0e030024 	cdpeq	0, 0, cr0, cr3, cr4, {1}
  f8:	0b3e0b0b 	bleq	f82d2c <_end+0xf7ed24>
  fc:	21140000 	tstcs	r4, r0
 100:	37134900 	ldrcc	r4, [r3, -r0, lsl #18]
 104:	15000005 	strne	r0, [r0, #-5]
 108:	13490026 	movtne	r0, #36902	; 0x9026
 10c:	13160000 	tstne	r6, #0
 110:	3c0e0300 	stccc	3, cr0, [lr], {-0}
 114:	17000019 	smladne	r0, r9, r0, r0
 118:	0e030113 	mcreq	1, 0, r0, cr3, cr3, {0}
 11c:	0b3a050b 	bleq	e81550 <_end+0xe7d548>
 120:	00000b3b 	andeq	r0, r0, fp, lsr fp
 124:	03000d18 	movweq	r0, #3352	; 0xd18
 128:	3a13490e 	bcc	4d2568 <_end+0x4ce560>
 12c:	380b3b0b 	stmdacc	fp, {r0, r1, r3, r8, r9, fp, ip, sp}
 130:	19000005 	stmdbne	r0, {r0, r2}
 134:	0e03000d 	cdpeq	0, 0, cr0, cr3, cr13, {0}
 138:	0b3a1349 	bleq	e84e64 <_end+0xe80e5c>
 13c:	0538053b 	ldreq	r0, [r8, #-1339]!	; 0xfffffac5
 140:	151a0000 	ldrne	r0, [sl, #-0]
 144:	27134901 	ldrcs	r4, [r3, -r1, lsl #18]
 148:	1b000019 	blne	1b4 <ndk_build_number+0x28>
 14c:	13490005 	movtne	r0, #36869	; 0x9005
 150:	151c0000 	ldrne	r0, [ip, #-0]
 154:	00192701 	andseq	r2, r9, r1, lsl #14
 158:	00181d00 	andseq	r1, r8, r0, lsl #26
 15c:	131e0000 	tstne	lr, #0
 160:	0b0e0301 	bleq	380d6c <_end+0x37cd64>
 164:	3b0b3a0b 	blcc	2ce998 <_end+0x2ca990>
 168:	1f00000b 	svcne	0x0000000b
 16c:	0e030117 	mcreq	1, 0, r0, cr3, cr7, {0}
 170:	0b3a0b0b 	bleq	e82da4 <_end+0xe7ed9c>
 174:	00000b3b 	andeq	r0, r0, fp, lsr fp
 178:	0b011320 	bleq	44e00 <_end+0x40df8>
 17c:	3b0b3a0b 	blcc	2ce9b0 <_end+0x2ca9a8>
 180:	2100000b 	tstcs	r0, fp
 184:	0e030113 	mcreq	1, 0, r0, cr3, cr3, {0}
 188:	0b3a0b0b 	bleq	e82dbc <_end+0xe7edb4>
 18c:	0000053b 	andeq	r0, r0, fp, lsr r5
 190:	03000d22 	movweq	r0, #3362	; 0xd22
 194:	3a13490e 	bcc	4d25d4 <_end+0x4ce5cc>
 198:	38053b0b 	stmdacc	r5, {r0, r1, r3, r8, r9, fp, ip, sp}
 19c:	0000000b 	andeq	r0, r0, fp
 1a0:	25011101 	strcs	r1, [r1, #-257]	; 0xfffffeff
 1a4:	0305130e 	movweq	r1, #21262	; 0x530e
 1a8:	1b17100e 	blne	5c41e8 <_end+0x5c01e0>
 1ac:	1201110e 	andne	r1, r1, #-2147483645	; 0x80000003
 1b0:	02000006 	andeq	r0, r0, #6
 1b4:	0e030034 	mcreq	0, 0, r0, cr3, cr4, {1}
 1b8:	193f1349 	ldmdbne	pc!, {r0, r3, r6, r8, r9, ip}	; <UNPREDICTABLE>
 1bc:	0b3b0b3a 	bleq	ec2eac <_end+0xebeea4>
 1c0:	00001802 	andeq	r1, r0, r2, lsl #16
 1c4:	49000f03 	stmdbmi	r0, {r0, r1, r8, r9, sl, fp}
 1c8:	04000013 	streq	r0, [r0], #-19	; 0xffffffed
 1cc:	13490016 	movtne	r0, #36886	; 0x9016
 1d0:	0b3a0e03 	bleq	e839e4 <_end+0xe7f9dc>
 1d4:	00000b3b 	andeq	r0, r0, fp, lsr fp
 1d8:	49002605 	stmdbmi	r0, {r0, r2, r9, sl, sp}
 1dc:	06000013 			; <UNDEFINED> instruction: 0x06000013
 1e0:	0e030113 	mcreq	1, 0, r0, cr3, cr3, {0}
 1e4:	0b3a0b0b 	bleq	e82e18 <_end+0xe7ee10>
 1e8:	0000053b 	andeq	r0, r0, fp, lsr r5
 1ec:	03000d07 	movweq	r0, #3335	; 0xd07
 1f0:	3a13490e 	bcc	4d2630 <_end+0x4ce628>
 1f4:	38053b0b 	stmdacc	r5, {r0, r1, r3, r8, r9, fp, ip, sp}
 1f8:	0800000b 	stmdaeq	r0, {r0, r1, r3}
 1fc:	0000000f 	andeq	r0, r0, pc
 200:	49011509 	stmdbmi	r1, {r0, r3, r8, sl, ip}
 204:	00192713 	andseq	r2, r9, r3, lsl r7
 208:	00050a00 	andeq	r0, r5, r0, lsl #20
 20c:	00001349 	andeq	r1, r0, r9, asr #6
 210:	0300240b 	movweq	r2, #1035	; 0x40b
 214:	0b0b3e0e 	bleq	2cfa54 <_end+0x2cba4c>
 218:	0c00000b 	stceq	0, cr0, [r0], {11}
 21c:	0e030113 	mcreq	1, 0, r0, cr3, cr3, {0}
 220:	0b3a050b 	bleq	e81654 <_end+0xe7d64c>
 224:	00000b3b 	andeq	r0, r0, fp, lsr fp
 228:	03000d0d 	movweq	r0, #3341	; 0xd0d
 22c:	3a13490e 	bcc	4d266c <_end+0x4ce664>
 230:	380b3b0b 	stmdacc	fp, {r0, r1, r3, r8, r9, fp, ip, sp}
 234:	0e00000b 	cdpeq	0, 0, cr0, cr0, cr11, {0}
 238:	0e03000d 	cdpeq	0, 0, cr0, cr3, cr13, {0}
 23c:	0b3a1349 	bleq	e84f68 <_end+0xe80f60>
 240:	05380b3b 	ldreq	r0, [r8, #-2875]!	; 0xfffff4c5
 244:	0d0f0000 	stceq	0, cr0, [pc, #-0]	; 24c <note_end+0x80>
 248:	490e0300 	stmdbmi	lr, {r8, r9}
 24c:	3b0b3a13 	blcc	2ceaa0 <_end+0x2caa98>
 250:	00053805 	andeq	r3, r5, r5, lsl #16
 254:	00131000 	andseq	r1, r3, r0
 258:	193c0e03 	ldmdbne	ip!, {r0, r1, r9, sl, fp}
 25c:	15110000 	ldrne	r0, [r1, #-0]
 260:	00192701 	andseq	r2, r9, r1, lsl #14
 264:	00181200 	andseq	r1, r8, r0, lsl #4
 268:	13130000 	tstne	r3, #0
 26c:	0b0e0301 	bleq	380e78 <_end+0x37ce70>
 270:	3b0b3a0b 	blcc	2ceaa4 <_end+0x2caa9c>
 274:	1400000b 	strne	r0, [r0], #-11
 278:	0e030117 	mcreq	1, 0, r0, cr3, cr7, {0}
 27c:	0b3a0b0b 	bleq	e82eb0 <_end+0xe7eea8>
 280:	00000b3b 	andeq	r0, r0, fp, lsr fp
 284:	0b011315 	bleq	44ee0 <_end+0x40ed8>
 288:	3b0b3a0b 	blcc	2ceabc <_end+0x2caab4>
 28c:	1600000b 	strne	r0, [r0], -fp
 290:	0e030104 	adfeqs	f0, f3, f4
 294:	0b3a0b0b 	bleq	e82ec8 <_end+0xe7eec0>
 298:	00000b3b 	andeq	r0, r0, fp, lsr fp
 29c:	03002817 	movweq	r2, #2071	; 0x817
 2a0:	000d1c0e 	andeq	r1, sp, lr, lsl #24
 2a4:	012e1800 			; <UNDEFINED> instruction: 0x012e1800
 2a8:	06120111 			; <UNDEFINED> instruction: 0x06120111
 2ac:	0e031840 	cdpeq	8, 0, cr1, cr3, cr0, {2}
 2b0:	0b3b0b3a 	bleq	ec2fa0 <_end+0xebef98>
 2b4:	13491927 	movtne	r1, #39207	; 0x9927
 2b8:	0000193f 	andeq	r1, r0, pc, lsr r9
 2bc:	02000519 	andeq	r0, r0, #104857600	; 0x6400000
 2c0:	3a0e0318 	bcc	380f28 <_end+0x37cf20>
 2c4:	490b3b0b 	stmdbmi	fp, {r0, r1, r3, r8, r9, fp, ip, sp}
 2c8:	1a000013 	bne	31c <note_end+0x150>
 2cc:	18020034 	stmdane	r2, {r2, r4, r5}
 2d0:	0b3a0e03 	bleq	e83ae4 <_end+0xe7fadc>
 2d4:	13490b3b 	movtne	r0, #39739	; 0x9b3b
 2d8:	01000000 	mrseq	r0, (UNDEF: 0)
 2dc:	0e250111 	mcreq	1, 1, r0, cr5, cr1, {0}
 2e0:	0e030b13 	vmoveq.32	d3[0], r0
 2e4:	01110e1b 	tsteq	r1, fp, lsl lr
 2e8:	17100612 			; <UNDEFINED> instruction: 0x17100612
 2ec:	16020000 	strne	r0, [r2], -r0
 2f0:	3a0e0300 	bcc	380ef8 <_end+0x37cef0>
 2f4:	490b3b0b 	stmdbmi	fp, {r0, r1, r3, r8, r9, fp, ip, sp}
 2f8:	03000013 	movweq	r0, #19
 2fc:	0b0b0024 	bleq	2c0394 <_end+0x2bc38c>
 300:	0e030b3e 	vmoveq.16	d3[0], r0
 304:	24040000 	strcs	r0, [r4], #-0
 308:	3e0b0b00 	vmlacc.f64	d0, d11, d0
 30c:	0008030b 	andeq	r0, r8, fp, lsl #6
 310:	00160500 	andseq	r0, r6, r0, lsl #10
 314:	0b3a0803 	bleq	e82328 <_end+0xe7e320>
 318:	13490b3b 	movtne	r0, #39739	; 0x9b3b
 31c:	04060000 	streq	r0, [r6], #-0
 320:	3a0b0b01 	bcc	2c2f2c <_end+0x2bef24>
 324:	010b3b0b 	tsteq	fp, fp, lsl #22
 328:	07000013 	smladeq	r0, r3, r0, r0
 32c:	0e030028 	cdpeq	0, 0, cr0, cr3, cr8, {1}
 330:	00000d1c 	andeq	r0, r0, ip, lsl sp
 334:	03011308 	movweq	r1, #4872	; 0x1308
 338:	3a0b0b0e 	bcc	2c2f78 <_end+0x2bef70>
 33c:	010b3b0b 	tsteq	fp, fp, lsl #22
 340:	09000013 	stmdbeq	r0, {r0, r1, r4}
 344:	0e03000d 	cdpeq	0, 0, cr0, cr3, cr13, {0}
 348:	0b3b0b3a 	bleq	ec3038 <_end+0xebf030>
 34c:	0b381349 	bleq	e05078 <_end+0xe01070>
 350:	130a0000 	movwne	r0, #40960	; 0xa000
 354:	3c0e0300 	stccc	3, cr0, [lr], {-0}
 358:	0b000019 	bleq	3c4 <note_end+0x1f8>
 35c:	0b0b0113 	bleq	2c07b0 <_end+0x2bc7a8>
 360:	0b3b0b3a 	bleq	ec3050 <_end+0xebf048>
 364:	00001301 	andeq	r1, r0, r1, lsl #6
 368:	03000d0c 	movweq	r0, #3340	; 0xd0c
 36c:	3b0b3a08 	blcc	2ceb94 <_end+0x2cab8c>
 370:	3813490b 	ldmdacc	r3, {r0, r1, r3, r8, fp, lr}
 374:	0d00000b 	stceq	0, cr0, [r0, #-44]	; 0xffffffd4
 378:	13490101 	movtne	r0, #37121	; 0x9101
 37c:	00001301 	andeq	r1, r0, r1, lsl #6
 380:	4900210e 	stmdbmi	r0, {r1, r2, r3, r8, sp}
 384:	000b2f13 	andeq	r2, fp, r3, lsl pc
 388:	000f0f00 	andeq	r0, pc, r0, lsl #30
 38c:	13490b0b 	movtne	r0, #39691	; 0x9b0b
 390:	15100000 	ldrne	r0, [r0, #-0]
 394:	01192701 	tsteq	r9, r1, lsl #14
 398:	11000013 	tstne	r0, r3, lsl r0
 39c:	13490005 	movtne	r0, #36869	; 0x9005
 3a0:	15120000 	ldrne	r0, [r2, #-0]
 3a4:	49192701 	ldmdbmi	r9, {r0, r8, r9, sl, sp}
 3a8:	00130113 	andseq	r0, r3, r3, lsl r1
 3ac:	000f1300 	andeq	r1, pc, r0, lsl #6
 3b0:	00000b0b 	andeq	r0, r0, fp, lsl #22
 3b4:	0b011314 	bleq	4500c <_end+0x41004>
 3b8:	3b0b3a05 	blcc	2cebd4 <_end+0x2cabcc>
 3bc:	0013010b 	andseq	r0, r3, fp, lsl #2
 3c0:	000d1500 	andeq	r1, sp, r0, lsl #10
 3c4:	0b3a0e03 	bleq	e83bd8 <_end+0xe7fbd0>
 3c8:	13490b3b 	movtne	r0, #39739	; 0x9b3b
 3cc:	00000538 	andeq	r0, r0, r8, lsr r5
 3d0:	00002616 	andeq	r2, r0, r6, lsl r6
 3d4:	01041700 	tsteq	r4, r0, lsl #14
 3d8:	0b0b0e03 	bleq	2c3bec <_end+0x2bfbe4>
 3dc:	0b3b0b3a 	bleq	ec30cc <_end+0xebf0c4>
 3e0:	00001301 	andeq	r1, r0, r1, lsl #6
 3e4:	03012e18 	movweq	r2, #7704	; 0x1e18
 3e8:	3b0b3a0e 	blcc	2cec28 <_end+0x2cac20>
 3ec:	4919270b 	ldmdbmi	r9, {r0, r1, r3, r8, r9, sl, sp}
 3f0:	010b2013 	tsteq	fp, r3, lsl r0
 3f4:	19000013 	stmdbne	r0, {r0, r1, r4}
 3f8:	0e030005 	cdpeq	0, 0, cr0, cr3, cr5, {0}
 3fc:	0b3b0b3a 	bleq	ec30ec <_end+0xebf0e4>
 400:	00001349 	andeq	r1, r0, r9, asr #6
 404:	0300051a 	movweq	r0, #1306	; 0x51a
 408:	3b0b3a08 	blcc	2cec30 <_end+0x2cac28>
 40c:	0013490b 	andseq	r4, r3, fp, lsl #18
 410:	00341b00 	eorseq	r1, r4, r0, lsl #22
 414:	0b3a0803 	bleq	e82428 <_end+0xe7e420>
 418:	13490b3b 	movtne	r0, #39739	; 0x9b3b
 41c:	2e1c0000 	cdpcs	0, 1, cr0, cr12, cr0, {0}
 420:	3a0e0301 	bcc	38102c <_end+0x37d024>
 424:	27053b0b 	strcs	r3, [r5, -fp, lsl #22]
 428:	11134919 	tstne	r3, r9, lsl r9
 42c:	40061201 	andmi	r1, r6, r1, lsl #4
 430:	19429718 	stmdbne	r2, {r3, r4, r8, r9, sl, ip, pc}^
 434:	00001301 	andeq	r1, r0, r1, lsl #6
 438:	0300051d 	movweq	r0, #1309	; 0x51d
 43c:	3b0b3a08 	blcc	2cec64 <_end+0x2cac5c>
 440:	02134905 	andseq	r4, r3, #81920	; 0x14000
 444:	1e000017 	mcrne	0, 0, r0, cr0, cr7, {0}
 448:	0e030034 	mcreq	0, 0, r0, cr3, cr4, {1}
 44c:	053b0b3a 	ldreq	r0, [fp, #-2874]!	; 0xfffff4c6
 450:	18021349 	stmdane	r2, {r0, r3, r6, r8, r9, ip}
 454:	261f0000 	ldrcs	r0, [pc], -r0
 458:	00134900 	andseq	r4, r3, r0, lsl #18
 45c:	012e2000 			; <UNDEFINED> instruction: 0x012e2000
 460:	0b3a0e03 	bleq	e83c74 <_end+0xe7fc6c>
 464:	19270b3b 	stmdbne	r7!, {r0, r1, r3, r4, r5, r8, r9, fp}
 468:	01111349 	tsteq	r1, r9, asr #6
 46c:	18400612 	stmdane	r0, {r1, r4, r9, sl}^
 470:	01194297 			; <UNDEFINED> instruction: 0x01194297
 474:	21000013 	tstcs	r0, r3, lsl r0
 478:	0e030005 	cdpeq	0, 0, cr0, cr3, cr5, {0}
 47c:	0b3b0b3a 	bleq	ec316c <_end+0xebf164>
 480:	17021349 	strne	r1, [r2, -r9, asr #6]
 484:	34220000 	strtcc	r0, [r2], #-0
 488:	3a0e0300 	bcc	381090 <_end+0x37d088>
 48c:	490b3b0b 	stmdbmi	fp, {r0, r1, r3, r8, r9, fp, ip, sp}
 490:	00170213 	andseq	r0, r7, r3, lsl r2
 494:	00342300 	eorseq	r2, r4, r0, lsl #6
 498:	0b3a0803 	bleq	e824ac <_end+0xe7e4a4>
 49c:	13490b3b 	movtne	r0, #39739	; 0x9b3b
 4a0:	00001702 	andeq	r1, r0, r2, lsl #14
 4a4:	01828924 	orreq	r8, r2, r4, lsr #18
 4a8:	31011101 	tstcc	r1, r1, lsl #2
 4ac:	00130113 	andseq	r0, r3, r3, lsl r1
 4b0:	828a2500 	addhi	r2, sl, #0, 10
 4b4:	18020001 	stmdane	r2, {r0}
 4b8:	00184291 	mulseq	r8, r1, r2
 4bc:	82892600 	addhi	r2, r9, #0, 12
 4c0:	01110101 	tsteq	r1, r1, lsl #2
 4c4:	00001331 	andeq	r1, r0, r1, lsr r3
 4c8:	03003427 	movweq	r3, #1063	; 0x427
 4cc:	3b0b3a0e 	blcc	2ced0c <_end+0x2cad04>
 4d0:	0213490b 	andseq	r4, r3, #180224	; 0x2c000
 4d4:	28000018 	stmdacs	r0, {r3, r4}
 4d8:	1755010b 	ldrbne	r0, [r5, -fp, lsl #2]
 4dc:	00001301 	andeq	r1, r0, r1, lsl #6
 4e0:	03003429 	movweq	r3, #1065	; 0x429
 4e4:	3b0b3a08 	blcc	2ced0c <_end+0x2cad04>
 4e8:	02134905 	andseq	r4, r3, #81920	; 0x14000
 4ec:	2a000017 	bcs	550 <note_end+0x384>
 4f0:	00018289 	andeq	r8, r1, r9, lsl #5
 4f4:	13310111 	teqne	r1, #1073741828	; 0x40000004
 4f8:	2e2b0000 	cdpcs	0, 2, cr0, cr11, cr0, {0}
 4fc:	3a0e0301 	bcc	381108 <_end+0x37d100>
 500:	270b3b0b 	strcs	r3, [fp, -fp, lsl #22]
 504:	12011119 	andne	r1, r1, #1073741830	; 0x40000006
 508:	97184006 	ldrls	r4, [r8, -r6]
 50c:	13011942 	movwne	r1, #6466	; 0x1942
 510:	052c0000 	streq	r0, [ip, #-0]!
 514:	3a080300 	bcc	20111c <_end+0x1fd114>
 518:	490b3b0b 	stmdbmi	fp, {r0, r1, r3, r8, r9, fp, ip, sp}
 51c:	00170213 	andseq	r0, r7, r3, lsl r2
 520:	82892d00 	addhi	r2, r9, #0, 26
 524:	01110101 	tsteq	r1, r1, lsl #2
 528:	31194295 			; <UNDEFINED> instruction: 0x31194295
 52c:	2e000013 	mcrcs	0, 0, r0, cr0, cr3, {0}
 530:	1331012e 	teqne	r1, #-2147483637	; 0x8000000b
 534:	06120111 			; <UNDEFINED> instruction: 0x06120111
 538:	42971840 	addsmi	r1, r7, #64, 16	; 0x400000
 53c:	00130119 	andseq	r0, r3, r9, lsl r1
 540:	00052f00 	andeq	r2, r5, r0, lsl #30
 544:	17021331 	smladxne	r2, r1, r3, r1
 548:	05300000 	ldreq	r0, [r0, #-0]!
 54c:	02133100 	andseq	r3, r3, #0, 2
 550:	31000018 	tstcc	r0, r8, lsl r0
 554:	13310034 	teqne	r1, #52	; 0x34
 558:	00001702 	andeq	r1, r0, r2, lsl #14
 55c:	03000532 	movweq	r0, #1330	; 0x532
 560:	3b0b3a08 	blcc	2ced88 <_end+0x2cad80>
 564:	0213490b 	andseq	r4, r3, #180224	; 0x2c000
 568:	33000018 	movwcc	r0, #24
 56c:	0e030005 	cdpeq	0, 0, cr0, cr3, cr5, {0}
 570:	0b3b0b3a 	bleq	ec3260 <_end+0xebf258>
 574:	18021349 	stmdane	r2, {r0, r3, r6, r8, r9, ip}
 578:	2e340000 	cdpcs	0, 3, cr0, cr4, cr0, {0}
 57c:	3a0e0301 	bcc	381188 <_end+0x37d180>
 580:	27053b0b 	strcs	r3, [r5, -fp, lsl #22]
 584:	12011119 	andne	r1, r1, #1073741830	; 0x40000006
 588:	97184006 	ldrls	r4, [r8, -r6]
 58c:	13011942 	movwne	r1, #6466	; 0x1942
 590:	05350000 	ldreq	r0, [r5, #-0]!
 594:	3a0e0300 	bcc	38119c <_end+0x37d194>
 598:	49053b0b 	stmdbmi	r5, {r0, r1, r3, r8, r9, fp, ip, sp}
 59c:	00170213 	andseq	r0, r7, r3, lsl r2
 5a0:	00343600 	eorseq	r3, r4, r0, lsl #12
 5a4:	0b3a0e03 	bleq	e83db8 <_end+0xe7fdb0>
 5a8:	1349053b 	movtne	r0, #38203	; 0x953b
 5ac:	00001702 	andeq	r1, r0, r2, lsl #14
 5b0:	11010b37 	tstne	r1, r7, lsr fp
 5b4:	01061201 	tsteq	r6, r1, lsl #4
 5b8:	38000013 	stmdacc	r0, {r0, r1, r4}
 5bc:	01018289 	smlabbeq	r1, r9, r2, r8
 5c0:	00000111 	andeq	r0, r0, r1, lsl r1
 5c4:	01828939 	orreq	r8, r2, r9, lsr r9
 5c8:	01011101 	tsteq	r1, r1, lsl #2
 5cc:	3a000013 	bcc	620 <note_end+0x454>
 5d0:	0111010b 	tsteq	r1, fp, lsl #2
 5d4:	00000612 	andeq	r0, r0, r2, lsl r6
 5d8:	3f012e3b 	svccc	0x00012e3b
 5dc:	3a0e0319 	bcc	381248 <_end+0x37d240>
 5e0:	270b3b0b 	strcs	r3, [fp, -fp, lsl #22]
 5e4:	11134919 	tstne	r3, r9, lsl r9
 5e8:	40061201 	andmi	r1, r6, r1, lsl #4
 5ec:	19429718 	stmdbne	r2, {r3, r4, r8, r9, sl, ip, pc}^
 5f0:	00001301 	andeq	r1, r0, r1, lsl #6
 5f4:	3f012e3c 	svccc	0x00012e3c
 5f8:	3a0e0319 	bcc	381264 <_end+0x37d25c>
 5fc:	27053b0b 	strcs	r3, [r5, -fp, lsl #22]
 600:	11134919 	tstne	r3, r9, lsl r9
 604:	40061201 	andmi	r1, r6, r1, lsl #4
 608:	19429718 	stmdbne	r2, {r3, r4, r8, r9, sl, ip, pc}^
 60c:	00001301 	andeq	r1, r0, r1, lsl #6
 610:	0182893d 	orreq	r8, r2, sp, lsr r9
 614:	95011101 	strls	r1, [r1, #-257]	; 0xfffffeff
 618:	13311942 	teqne	r1, #1081344	; 0x108000
 61c:	00001301 	andeq	r1, r0, r1, lsl #6
 620:	3f012e3e 	svccc	0x00012e3e
 624:	3a0e0319 	bcc	381290 <_end+0x37d288>
 628:	270b3b0b 	strcs	r3, [fp, -fp, lsl #22]
 62c:	12011119 	andne	r1, r1, #1073741830	; 0x40000006
 630:	97184006 	ldrls	r4, [r8, -r6]
 634:	13011942 	movwne	r1, #6466	; 0x1942
 638:	053f0000 	ldreq	r0, [pc, #-0]!	; 640 <note_end+0x474>
 63c:	3a0e0300 	bcc	381244 <_end+0x37d23c>
 640:	49053b0b 	stmdbmi	r5, {r0, r1, r3, r8, r9, fp, ip, sp}
 644:	00180213 	andseq	r0, r8, r3, lsl r2
 648:	82894000 	addhi	r4, r9, #0
 64c:	01110101 	tsteq	r1, r1, lsl #2
 650:	00194295 	mulseq	r9, r5, r2
 654:	00344100 	eorseq	r4, r4, r0, lsl #2
 658:	0b3a0803 	bleq	e8266c <_end+0xe7e664>
 65c:	13490b3b 	movtne	r0, #39739	; 0x9b3b
 660:	00001802 	andeq	r1, r0, r2, lsl #16
 664:	03003442 	movweq	r3, #1090	; 0x442
 668:	3b0b3a08 	blcc	2cee90 <_end+0x2cae88>
 66c:	02134905 	andseq	r4, r3, #81920	; 0x14000
 670:	43000018 	movwmi	r0, #24
 674:	0001828a 	andeq	r8, r1, sl, lsl #5
 678:	42911331 	addsmi	r1, r1, #-1006632960	; 0xc4000000
 67c:	44000018 	strmi	r0, [r0], #-24	; 0xffffffe8
 680:	0e030034 	mcreq	0, 0, r0, cr3, cr4, {1}
 684:	053b0b3a 	ldreq	r0, [fp, #-2874]!	; 0xfffff4c6
 688:	00001349 	andeq	r1, r0, r9, asr #6
 68c:	03003445 	movweq	r3, #1093	; 0x445
 690:	3b0b3a0e 	blcc	2ceed0 <_end+0x2caec8>
 694:	3f13490b 	svccc	0x0013490b
 698:	00193c19 	andseq	r3, r9, r9, lsl ip
 69c:	012e4600 			; <UNDEFINED> instruction: 0x012e4600
 6a0:	0e03193f 			; <UNDEFINED> instruction: 0x0e03193f
 6a4:	0b3b0b3a 	bleq	ec3394 <_end+0xebf38c>
 6a8:	13491927 	movtne	r1, #39207	; 0x9927
 6ac:	1301193c 	movwne	r1, #6460	; 0x193c
 6b0:	2e470000 	cdpcs	0, 4, cr0, cr7, cr0, {0}
 6b4:	03193f01 	tsteq	r9, #1, 30
 6b8:	3b0b3a0e 	blcc	2ceef8 <_end+0x2caef0>
 6bc:	3c19270b 	ldccc	7, cr2, [r9], {11}
 6c0:	00130119 	andseq	r0, r3, r9, lsl r1
 6c4:	002e4800 	eoreq	r4, lr, r0, lsl #16
 6c8:	0e03193f 			; <UNDEFINED> instruction: 0x0e03193f
 6cc:	0b3b0b3a 	bleq	ec33bc <_end+0xebf3b4>
 6d0:	193c1927 	ldmdbne	ip!, {r0, r1, r2, r5, r8, fp, ip}
 6d4:	2e490000 	cdpcs	0, 4, cr0, cr9, cr0, {0}
 6d8:	03193f01 	tsteq	r9, #1, 30
 6dc:	4919270e 	ldmdbmi	r9, {r1, r2, r3, r8, r9, sl, sp}
 6e0:	3c193413 	cfldrscc	mvf3, [r9], {19}
 6e4:	00130119 	andseq	r0, r3, r9, lsl r1
 6e8:	012e4a00 			; <UNDEFINED> instruction: 0x012e4a00
 6ec:	0e03193f 			; <UNDEFINED> instruction: 0x0e03193f
 6f0:	0b3b0b3a 	bleq	ec33e0 <_end+0xebf3d8>
 6f4:	193c1927 	ldmdbne	ip!, {r0, r1, r2, r5, r8, fp, ip}
 6f8:	01000000 	mrseq	r0, (UNDEF: 0)
 6fc:	06100011 			; <UNDEFINED> instruction: 0x06100011
 700:	01120111 	tsteq	r2, r1, lsl r1
 704:	081b0803 	ldmdaeq	fp, {r0, r1, fp}
 708:	05130825 	ldreq	r0, [r3, #-2085]	; 0xfffff7db
 70c:	01000000 	mrseq	r0, (UNDEF: 0)
 710:	0e250111 	mcreq	1, 1, r0, cr5, cr1, {0}
 714:	0e030b13 	vmoveq.32	d3[0], r0
 718:	06120111 			; <UNDEFINED> instruction: 0x06120111
 71c:	00001710 	andeq	r1, r0, r0, lsl r7
 720:	03001602 	movweq	r1, #1538	; 0x602
 724:	3b0b3a0e 	blcc	2cef64 <_end+0x2caf5c>
 728:	0013490b 	andseq	r4, r3, fp, lsl #18
 72c:	00240300 	eoreq	r0, r4, r0, lsl #6
 730:	0b3e0b0b 	bleq	f83364 <_end+0xf7f35c>
 734:	00000e03 	andeq	r0, r0, r3, lsl #28
 738:	0b002404 	bleq	9750 <_end+0x5748>
 73c:	030b3e0b 	movweq	r3, #48651	; 0xbe0b
 740:	05000008 	streq	r0, [r0, #-8]
 744:	08030016 	stmdaeq	r3, {r1, r2, r4}
 748:	0b3b0b3a 	bleq	ec3438 <_end+0xebf430>
 74c:	00001349 	andeq	r1, r0, r9, asr #6
 750:	0b010406 	bleq	41770 <_end+0x3d768>
 754:	3b0b3a0b 	blcc	2cef88 <_end+0x2caf80>
 758:	0013010b 	andseq	r0, r3, fp, lsl #2
 75c:	00280700 	eoreq	r0, r8, r0, lsl #14
 760:	0d1c0e03 	ldceq	14, cr0, [ip, #-12]
 764:	13080000 	movwne	r0, #32768	; 0x8000
 768:	0b0e0301 	bleq	381374 <_end+0x37d36c>
 76c:	3b0b3a0b 	blcc	2cefa0 <_end+0x2caf98>
 770:	0013010b 	andseq	r0, r3, fp, lsl #2
 774:	000d0900 	andeq	r0, sp, r0, lsl #18
 778:	0b3a0e03 	bleq	e83f8c <_end+0xe7ff84>
 77c:	13490b3b 	movtne	r0, #39739	; 0x9b3b
 780:	00000b38 	andeq	r0, r0, r8, lsr fp
 784:	0300130a 	movweq	r1, #778	; 0x30a
 788:	00193c0e 	andseq	r3, r9, lr, lsl #24
 78c:	01130b00 	tsteq	r3, r0, lsl #22
 790:	0b3a0b0b 	bleq	e833c4 <_end+0xe7f3bc>
 794:	13010b3b 	movwne	r0, #6971	; 0x1b3b
 798:	0d0c0000 	stceq	0, cr0, [ip, #-0]
 79c:	3a080300 	bcc	2013a4 <_end+0x1fd39c>
 7a0:	490b3b0b 	stmdbmi	fp, {r0, r1, r3, r8, r9, fp, ip, sp}
 7a4:	000b3813 	andeq	r3, fp, r3, lsl r8
 7a8:	01010d00 	tsteq	r1, r0, lsl #26
 7ac:	13011349 	movwne	r1, #4937	; 0x1349
 7b0:	210e0000 	mrscs	r0, (UNDEF: 14)
 7b4:	2f134900 	svccs	0x00134900
 7b8:	0f00000b 	svceq	0x0000000b
 7bc:	0b0b000f 	bleq	2c0800 <_end+0x2bc7f8>
 7c0:	00001349 	andeq	r1, r0, r9, asr #6
 7c4:	27011510 	smladcs	r1, r0, r5, r1
 7c8:	00130119 	andseq	r0, r3, r9, lsl r1
 7cc:	00051100 	andeq	r1, r5, r0, lsl #2
 7d0:	00001349 	andeq	r1, r0, r9, asr #6
 7d4:	0b000f12 	bleq	4424 <_end+0x41c>
 7d8:	1300000b 	movwne	r0, #11
 7dc:	0e03012e 	adfeqsp	f0, f3, #0.5
 7e0:	0b3b0b3a 	bleq	ec34d0 <_end+0xebf4c8>
 7e4:	13491927 	movtne	r1, #39207	; 0x9927
 7e8:	13010b20 	movwne	r0, #6944	; 0x1b20
 7ec:	05140000 	ldreq	r0, [r4, #-0]
 7f0:	3a0e0300 	bcc	3813f8 <_end+0x37d3f0>
 7f4:	490b3b0b 	stmdbmi	fp, {r0, r1, r3, r8, r9, fp, ip, sp}
 7f8:	15000013 	strne	r0, [r0, #-19]	; 0xffffffed
 7fc:	08030034 	stmdaeq	r3, {r2, r4, r5}
 800:	0b3b0b3a 	bleq	ec34f0 <_end+0xebf4e8>
 804:	00001349 	andeq	r1, r0, r9, asr #6
 808:	03012e16 	movweq	r2, #7702	; 0x1e16
 80c:	3b0b3a0e 	blcc	2cf04c <_end+0x2cb044>
 810:	4919270b 	ldmdbmi	r9, {r0, r1, r3, r8, r9, sl, sp}
 814:	12011113 	andne	r1, r1, #-1073741820	; 0xc0000004
 818:	97184006 	ldrls	r4, [r8, -r6]
 81c:	13011942 	movwne	r1, #6466	; 0x1942
 820:	05170000 	ldreq	r0, [r7, #-0]
 824:	3a080300 	bcc	20142c <_end+0x1fd424>
 828:	490b3b0b 	stmdbmi	fp, {r0, r1, r3, r8, r9, fp, ip, sp}
 82c:	00170213 	andseq	r0, r7, r3, lsl r2
 830:	00341800 	eorseq	r1, r4, r0, lsl #16
 834:	0b3a0803 	bleq	e82848 <_end+0xe7e840>
 838:	13490b3b 	movtne	r0, #39739	; 0x9b3b
 83c:	00001702 	andeq	r1, r0, r2, lsl #14
 840:	31012e19 	tstcc	r1, r9, lsl lr
 844:	12011113 	andne	r1, r1, #-1073741820	; 0xc0000004
 848:	97184006 	ldrls	r4, [r8, -r6]
 84c:	13011942 	movwne	r1, #6466	; 0x1942
 850:	051a0000 	ldreq	r0, [sl, #-0]
 854:	02133100 	andseq	r3, r3, #0, 2
 858:	1b000017 	blne	8bc <note_end+0x6f0>
 85c:	13310034 	teqne	r1, #52	; 0x34
 860:	00001802 	andeq	r1, r0, r2, lsl #16
 864:	3100051c 	tstcc	r0, ip, lsl r5
 868:	000b1c13 	andeq	r1, fp, r3, lsl ip
 86c:	82891d00 	addhi	r1, r9, #0, 26
 870:	01110101 	tsteq	r1, r1, lsl #2
 874:	00001331 	andeq	r1, r0, r1, lsr r3
 878:	01828a1e 	orreq	r8, r2, lr, lsl sl
 87c:	91180200 	tstls	r8, r0, lsl #4
 880:	00001842 	andeq	r1, r0, r2, asr #16
 884:	03012e1f 	movweq	r2, #7711	; 0x1e1f
 888:	3b0b3a0e 	blcc	2cf0c8 <_end+0x2cb0c0>
 88c:	49192705 	ldmdbmi	r9, {r0, r2, r8, r9, sl, sp}
 890:	12011113 	andne	r1, r1, #-1073741820	; 0xc0000004
 894:	97184006 	ldrls	r4, [r8, -r6]
 898:	13011942 	movwne	r1, #6466	; 0x1942
 89c:	05200000 	streq	r0, [r0, #-0]!
 8a0:	3a0e0300 	bcc	3814a8 <_end+0x37d4a0>
 8a4:	49053b0b 	stmdbmi	r5, {r0, r1, r3, r8, r9, fp, ip, sp}
 8a8:	00170213 	andseq	r0, r7, r3, lsl r2
 8ac:	82892100 	addhi	r2, r9, #0, 2
 8b0:	01110101 	tsteq	r1, r1, lsl #2
 8b4:	31194295 			; <UNDEFINED> instruction: 0x31194295
 8b8:	22000013 	andcs	r0, r0, #19
 8bc:	193f012e 	ldmdbne	pc!, {r1, r2, r3, r5, r8}	; <UNPREDICTABLE>
 8c0:	0b3a0e03 	bleq	e840d4 <_end+0xe800cc>
 8c4:	19270b3b 	stmdbne	r7!, {r0, r1, r3, r4, r5, r8, r9, fp}
 8c8:	01111349 	tsteq	r1, r9, asr #6
 8cc:	18400612 	stmdane	r0, {r1, r4, r9, sl}^
 8d0:	01194297 			; <UNDEFINED> instruction: 0x01194297
 8d4:	23000013 	movwcs	r0, #19
 8d8:	0e030005 	cdpeq	0, 0, cr0, cr3, cr5, {0}
 8dc:	0b3b0b3a 	bleq	ec35cc <_end+0xebf5c4>
 8e0:	17021349 	strne	r1, [r2, -r9, asr #6]
 8e4:	34240000 	strtcc	r0, [r4], #-0
 8e8:	3a0e0300 	bcc	3814f0 <_end+0x37d4e8>
 8ec:	490b3b0b 	stmdbmi	fp, {r0, r1, r3, r8, r9, fp, ip, sp}
 8f0:	00170213 	andseq	r0, r7, r3, lsl r2
 8f4:	00342500 	eorseq	r2, r4, r0, lsl #10
 8f8:	0b3a0803 	bleq	e8290c <_end+0xe7e904>
 8fc:	13490b3b 	movtne	r0, #39739	; 0x9b3b
 900:	00001802 	andeq	r1, r0, r2, lsl #16
 904:	11010b26 	tstne	r1, r6, lsr #22
 908:	01061201 	tsteq	r6, r1, lsl #4
 90c:	27000013 	smladcs	r0, r3, r0, r0
 910:	01018289 	smlabbeq	r1, r9, r2, r8
 914:	13310111 	teqne	r1, #1073741828	; 0x40000004
 918:	00001301 	andeq	r1, r0, r1, lsl #6
 91c:	01828928 	orreq	r8, r2, r8, lsr #18
 920:	31011100 	mrscc	r1, (UNDEF: 17)
 924:	29000013 	stmdbcs	r0, {r0, r1, r4}
 928:	08030034 	stmdaeq	r3, {r2, r4, r5}
 92c:	053b0b3a 	ldreq	r0, [fp, #-2874]!	; 0xfffff4c6
 930:	17021349 	strne	r1, [r2, -r9, asr #6]
 934:	342a0000 	strtcc	r0, [sl], #-0
 938:	3a080300 	bcc	201540 <_end+0x1fd538>
 93c:	49053b0b 	stmdbmi	r5, {r0, r1, r3, r8, r9, fp, ip, sp}
 940:	00180213 	andseq	r0, r8, r3, lsl r2
 944:	00342b00 	eorseq	r2, r4, r0, lsl #22
 948:	0b3a0e03 	bleq	e8415c <_end+0xe80154>
 94c:	1349053b 	movtne	r0, #38203	; 0x953b
 950:	00001702 	andeq	r1, r0, r2, lsl #14
 954:	3f012e2c 	svccc	0x00012e2c
 958:	3a0e0319 	bcc	3815c4 <_end+0x37d5bc>
 95c:	270b3b0b 	strcs	r3, [fp, -fp, lsl #22]
 960:	3c134919 			; <UNDEFINED> instruction: 0x3c134919
 964:	00130119 	andseq	r0, r3, r9, lsl r1
 968:	002e2d00 	eoreq	r2, lr, r0, lsl #26
 96c:	0e03193f 			; <UNDEFINED> instruction: 0x0e03193f
 970:	0b3b0b3a 	bleq	ec3660 <_end+0xebf658>
 974:	193c1927 	ldmdbne	ip!, {r0, r1, r2, r5, r8, fp, ip}
 978:	Address 0x0000000000000978 is out of bounds.


Disassembly of section .debug_info:

00000000 <.debug_info>:
       0:	00002e7d 	andeq	r2, r0, sp, ror lr
       4:	00000004 	andeq	r0, r0, r4
       8:	01040000 	mrseq	r0, (UNDEF: 4)
       c:	00000000 	andeq	r0, r0, r0
      10:	003d000c 	eorseq	r0, sp, ip
      14:	00000000 	andeq	r0, r0, r0
      18:	00790000 	rsbseq	r0, r9, r0
	...
      24:	71020000 	mrsvc	r0, (UNDEF: 2)
      28:	04000001 	streq	r0, [r0], #-1
      2c:	ca034f01 	bgt	d3c38 <_end+0xcfc30>
      30:	00000000 	andeq	r0, r0, r0
      34:	0000de03 	andeq	sp, r0, r3, lsl #28
      38:	f2030100 	vrhadd.s8	d0, d3, d0
      3c:	02000000 	andeq	r0, r0, #0
      40:	00010603 	andeq	r0, r1, r3, lsl #12
      44:	18030300 	stmdane	r3, {r8, r9}
      48:	04000001 	streq	r0, [r0], #-1
      4c:	00012903 	andeq	r2, r1, r3, lsl #18
      50:	3a030500 	bcc	c1458 <_end+0xbd450>
      54:	06000001 	streq	r0, [r0], -r1
      58:	00014c03 	andeq	r4, r1, r3, lsl #24
      5c:	5e030700 	cdppl	7, 0, cr0, cr3, cr0, {0}
      60:	08000001 	stmdaeq	r0, {r0}
      64:	01cd0200 	biceq	r0, sp, r0, lsl #4
      68:	02040000 	andeq	r0, r4, #0
      6c:	0185037a 	orreq	r0, r5, sl, ror r3
      70:	03000000 	movweq	r0, #0
      74:	00000197 	muleq	r0, r7, r1
      78:	01a70301 			; <UNDEFINED> instruction: 0x01a70301
      7c:	03020000 	movweq	r0, #8192	; 0x2000
      80:	000001b8 			; <UNDEFINED> instruction: 0x000001b8
      84:	05040003 	streq	r0, [r4, #-3]
      88:	00000a5c 	andeq	r0, r0, ip, asr sl
      8c:	00000134 	andeq	r0, r0, r4, lsr r1
      90:	01dc5701 	bicseq	r5, ip, r1, lsl #14
      94:	24030000 	strcs	r0, [r3], #-0
      98:	387d0206 	ldmdacc	sp!, {r1, r2, r9}^
      9c:	000002bf 			; <UNDEFINED> instruction: 0x000002bf
      a0:	05bb2603 	ldreq	r2, [fp, #1539]!	; 0x603
      a4:	03060000 	movweq	r0, #24576	; 0x6000
      a8:	eb08bc7d 	bl	22f2a4 <_end+0x22b29c>
      ac:	03000002 	movweq	r0, #2
      b0:	0005fb28 	andeq	pc, r5, r8, lsr #22
      b4:	0ae60700 	beq	ff981cbc <_end+0xff97dcb4>
      b8:	005a0000 	subseq	r0, sl, r0
      bc:	02060000 	andeq	r0, r6, #0
      c0:	02ee3c7d 	rsceq	r3, lr, #32000	; 0x7d00
      c4:	33030000 	movwcc	r0, #12288	; 0x3000
      c8:	000005fb 	strdeq	r0, [r0], -fp
      cc:	347d0206 	ldrbtcc	r0, [sp], #-518	; 0xfffffdfa
      d0:	000002f5 	strdeq	r0, [r0], -r5
      d4:	06083403 	streq	r3, [r8], -r3, lsl #8
      d8:	00000000 	andeq	r0, r0, r0
      dc:	000b9005 	andeq	r9, fp, r5
      e0:	00013400 	andeq	r3, r1, r0, lsl #8
      e4:	e6570100 	ldrb	r0, [r7], -r0, lsl #2
      e8:	03000001 	movweq	r0, #1
      ec:	7d03063e 	stcvc	6, cr0, [r3, #-248]	; 0xffffff08
      f0:	030001c0 	movweq	r0, #448	; 0x1c0
      f4:	40030000 	andmi	r0, r3, r0
      f8:	0000060f 	andeq	r0, r0, pc, lsl #12
      fc:	c07d0306 	rsbsgt	r0, sp, r6, lsl #6
     100:	00030600 	andeq	r0, r3, r0, lsl #12
     104:	1b4a0300 	blne	1280d0c <_end+0x127cd04>
     108:	07000006 	streq	r0, [r0, -r6]
     10c:	00000c1e 	andeq	r0, r0, lr, lsl ip
     110:	00000054 	andeq	r0, r0, r4, asr r0
     114:	a07d0306 	rsbsge	r0, sp, r6, lsl #6
     118:	00031901 	andeq	r1, r3, r1, lsl #18
     11c:	35520300 	ldrbcc	r0, [r2, #-768]	; 0xfffffd00
     120:	06000006 	streq	r0, [r0], -r6
     124:	00c47d03 	sbceq	r7, r4, r3, lsl #26
     128:	00000300 	andeq	r0, r0, r0, lsl #6
     12c:	060f5303 	streq	r5, [pc], -r3, lsl #6
     130:	00000000 	andeq	r0, r0, r0
     134:	000cc408 	andeq	ip, ip, r8, lsl #8
     138:	00004400 	andeq	r4, r0, r0, lsl #8
     13c:	f5570100 			; <UNDEFINED> instruction: 0xf5570100
     140:	03000001 	movweq	r0, #1
     144:	7d020965 	vstrvc.16	s0, [r2, #-202]	; 0xffffff36	; <UNPREDICTABLE>
     148:	00031e14 	andeq	r1, r3, r4, lsl lr
     14c:	08650300 	stmdaeq	r5!, {r8, r9}^
     150:	00000006 	andeq	r0, r0, r6
     154:	000d0808 	andeq	r0, sp, r8, lsl #16
     158:	00030400 	andeq	r0, r3, r0, lsl #8
     15c:	01570100 	cmpeq	r7, r0, lsl #2
     160:	03000002 	movweq	r0, #2
     164:	7d03096a 	vstrvc.16	s0, [r3, #-212]	; 0xffffff2c	; <UNPREDICTABLE>
     168:	031e04e8 	tsteq	lr, #232, 8	; 0xe8000000
     16c:	6a030000 	bvs	c0174 <_end+0xbc16c>
     170:	00000608 	andeq	r0, r0, r8, lsl #12
     174:	e47d0309 	ldrbt	r0, [sp], #-777	; 0xfffffcf7
     178:	00032104 	andeq	r2, r3, r4, lsl #2
     17c:	086a0300 	stmdaeq	sl!, {r8, r9}^
     180:	09000006 	stmdbeq	r0, {r1, r2}
     184:	04e07d03 	strbteq	r7, [r0], #3331	; 0xd03
     188:	00000324 	andeq	r0, r0, r4, lsr #6
     18c:	06086a03 	streq	r6, [r8], -r3, lsl #20
     190:	03090000 	movweq	r0, #36864	; 0x9000
     194:	2704dc7d 	smlsdxcs	r4, sp, ip, sp
     198:	03000003 	movweq	r0, #3
     19c:	0006086a 	andeq	r0, r6, sl, ror #16
     1a0:	91020900 	tstls	r2, r0, lsl #18
     1a4:	00032a08 	andeq	r2, r3, r8, lsl #20
     1a8:	086a0300 	stmdaeq	sl!, {r8, r9}^
     1ac:	09000006 	stmdbeq	r0, {r1, r2}
     1b0:	2d0c9102 	stfcsd	f1, [ip, #-8]
     1b4:	03000003 	movweq	r0, #3
     1b8:	0006086a 	andeq	r0, r6, sl, ror #16
     1bc:	91020900 	tstls	r2, r0, lsl #18
     1c0:	00033010 	andeq	r3, r3, r0, lsl r0
     1c4:	086a0300 	stmdaeq	sl!, {r8, r9}^
     1c8:	09000006 	stmdbeq	r0, {r1, r2}
     1cc:	33149102 	tstcc	r4, #-2147483648	; 0x80000000
     1d0:	03000003 	movweq	r0, #3
     1d4:	0006086a 	andeq	r0, r6, sl, ror #16
     1d8:	91020900 	tstls	r2, r0, lsl #18
     1dc:	00033618 	andeq	r3, r3, r8, lsl r6
     1e0:	086a0300 	stmdaeq	sl!, {r8, r9}^
     1e4:	09000006 	stmdbeq	r0, {r1, r2}
     1e8:	391c9102 	ldmdbcc	ip, {r1, r8, ip, pc}
     1ec:	03000003 	movweq	r0, #3
     1f0:	0006086a 	andeq	r0, r6, sl, ror #16
     1f4:	91020900 	tstls	r2, r0, lsl #18
     1f8:	00033d20 	andeq	r3, r3, r0, lsr #26
     1fc:	086b0300 	stmdaeq	fp!, {r8, r9}^
     200:	09000006 	stmdbeq	r0, {r1, r2}
     204:	41249102 			; <UNDEFINED> instruction: 0x41249102
     208:	03000003 	movweq	r0, #3
     20c:	0006086b 	andeq	r0, r6, fp, ror #16
     210:	91020900 	tstls	r2, r0, lsl #18
     214:	00034528 	andeq	r4, r3, r8, lsr #10
     218:	086b0300 	stmdaeq	fp!, {r8, r9}^
     21c:	09000006 	stmdbeq	r0, {r1, r2}
     220:	492c9102 	stmdbmi	ip!, {r1, r8, ip, pc}
     224:	03000003 	movweq	r0, #3
     228:	0006086b 	andeq	r0, r6, fp, ror #16
     22c:	91020900 	tstls	r2, r0, lsl #18
     230:	00034d30 	andeq	r4, r3, r0, lsr sp
     234:	086b0300 	stmdaeq	fp!, {r8, r9}^
     238:	09000006 	stmdbeq	r0, {r1, r2}
     23c:	51349102 	teqpl	r4, r2, lsl #2
     240:	03000003 	movweq	r0, #3
     244:	0006086b 	andeq	r0, r6, fp, ror #16
     248:	91020900 	tstls	r2, r0, lsl #18
     24c:	00035538 	andeq	r5, r3, r8, lsr r5
     250:	086b0300 	stmdaeq	fp!, {r8, r9}^
     254:	09000006 	stmdbeq	r0, {r1, r2}
     258:	593c9102 	ldmdbpl	ip!, {r1, r8, ip, pc}
     25c:	03000003 	movweq	r0, #3
     260:	0006086b 	andeq	r0, r6, fp, ror #16
     264:	91030900 	tstls	r3, r0, lsl #18
     268:	035d00c0 	cmpeq	sp, #192	; 0xc0
     26c:	6b030000 	blvs	c0274 <_end+0xbc26c>
     270:	00000608 	andeq	r0, r0, r8, lsl #12
     274:	c4910309 	ldrgt	r0, [r1], #777	; 0x309
     278:	00036100 	andeq	r6, r3, r0, lsl #2
     27c:	086b0300 	stmdaeq	fp!, {r8, r9}^
     280:	09000006 	stmdbeq	r0, {r1, r2}
     284:	00c89103 	sbceq	r9, r8, r3, lsl #2
     288:	00000365 	andeq	r0, r0, r5, ror #6
     28c:	06086c03 	streq	r6, [r8], -r3, lsl #24
     290:	03090000 	movweq	r0, #36864	; 0x9000
     294:	6900cc91 	stmdbvs	r0, {r0, r4, r7, sl, fp, lr, pc}
     298:	03000003 	movweq	r0, #3
     29c:	0006086c 	andeq	r0, r6, ip, ror #16
     2a0:	91030900 	tstls	r3, r0, lsl #18
     2a4:	036d00d0 	cmneq	sp, #208	; 0xd0
     2a8:	6c030000 	stcvs	0, cr0, [r3], {-0}
     2ac:	00000608 	andeq	r0, r0, r8, lsl #12
     2b0:	d4910309 	ldrle	r0, [r1], #777	; 0x309
     2b4:	00037100 	andeq	r7, r3, r0, lsl #2
     2b8:	086c0300 	stmdaeq	ip!, {r8, r9}^
     2bc:	09000006 	stmdbeq	r0, {r1, r2}
     2c0:	00d89103 	sbcseq	r9, r8, r3, lsl #2
     2c4:	00000375 	andeq	r0, r0, r5, ror r3
     2c8:	06086c03 	streq	r6, [r8], -r3, lsl #24
     2cc:	03090000 	movweq	r0, #36864	; 0x9000
     2d0:	7900dc91 	stmdbvc	r0, {r0, r4, r7, sl, fp, ip, lr, pc}
     2d4:	03000003 	movweq	r0, #3
     2d8:	0006086c 	andeq	r0, r6, ip, ror #16
     2dc:	91030900 	tstls	r3, r0, lsl #18
     2e0:	037d00e0 	cmneq	sp, #224	; 0xe0
     2e4:	6c030000 	stcvs	0, cr0, [r3], {-0}
     2e8:	00000608 	andeq	r0, r0, r8, lsl #12
     2ec:	e4910309 	ldr	r0, [r1], #777	; 0x309
     2f0:	00038100 	andeq	r8, r3, r0, lsl #2
     2f4:	086c0300 	stmdaeq	ip!, {r8, r9}^
     2f8:	09000006 	stmdbeq	r0, {r1, r2}
     2fc:	00e89103 	rsceq	r9, r8, r3, lsl #2
     300:	00000385 	andeq	r0, r0, r5, lsl #7
     304:	06086c03 	streq	r6, [r8], -r3, lsl #24
     308:	03090000 	movweq	r0, #36864	; 0x9000
     30c:	8900ec91 	stmdbhi	r0, {r0, r4, r7, sl, fp, sp, lr, pc}
     310:	03000003 	movweq	r0, #3
     314:	0006086c 	andeq	r0, r6, ip, ror #16
     318:	91030900 	tstls	r3, r0, lsl #18
     31c:	038d00f0 	orreq	r0, sp, #240	; 0xf0
     320:	6d030000 	stcvs	0, cr0, [r3, #-0]
     324:	00000608 	andeq	r0, r0, r8, lsl #12
     328:	f4910309 			; <UNDEFINED> instruction: 0xf4910309
     32c:	00039100 	andeq	r9, r3, r0, lsl #2
     330:	086d0300 	stmdaeq	sp!, {r8, r9}^
     334:	09000006 	stmdbeq	r0, {r1, r2}
     338:	00f89103 	rscseq	r9, r8, r3, lsl #2
     33c:	00000395 	muleq	r0, r5, r3
     340:	06086d03 	streq	r6, [r8], -r3, lsl #26
     344:	03090000 	movweq	r0, #36864	; 0x9000
     348:	9900fc91 	stmdbls	r0, {r0, r4, r7, sl, fp, ip, sp, lr, pc}
     34c:	03000003 	movweq	r0, #3
     350:	0006086d 	andeq	r0, r6, sp, ror #16
     354:	91030900 	tstls	r3, r0, lsl #18
     358:	039d0180 	orrseq	r0, sp, #128, 2
     35c:	6d030000 	stcvs	0, cr0, [r3, #-0]
     360:	00000608 	andeq	r0, r0, r8, lsl #12
     364:	84910309 	ldrhi	r0, [r1], #777	; 0x309
     368:	0003a101 	andeq	sl, r3, r1, lsl #2
     36c:	086d0300 	stmdaeq	sp!, {r8, r9}^
     370:	09000006 	stmdbeq	r0, {r1, r2}
     374:	01889103 	orreq	r9, r8, r3, lsl #2
     378:	000003a5 	andeq	r0, r0, r5, lsr #7
     37c:	06086d03 	streq	r6, [r8], -r3, lsl #26
     380:	03090000 	movweq	r0, #36864	; 0x9000
     384:	a9018c91 	stmdbge	r1, {r0, r4, r7, sl, fp, pc}
     388:	03000003 	movweq	r0, #3
     38c:	0006086d 	andeq	r0, r6, sp, ror #16
     390:	91030900 	tstls	r3, r0, lsl #18
     394:	03ad0190 			; <UNDEFINED> instruction: 0x03ad0190
     398:	6d030000 	stcvs	0, cr0, [r3, #-0]
     39c:	00000608 	andeq	r0, r0, r8, lsl #12
     3a0:	94910309 	ldrls	r0, [r1], #777	; 0x309
     3a4:	0003b101 	andeq	fp, r3, r1, lsl #2
     3a8:	086d0300 	stmdaeq	sp!, {r8, r9}^
     3ac:	09000006 	stmdbeq	r0, {r1, r2}
     3b0:	01989103 	orrseq	r9, r8, r3, lsl #2
     3b4:	000003b5 			; <UNDEFINED> instruction: 0x000003b5
     3b8:	06086e03 	streq	r6, [r8], -r3, lsl #28
     3bc:	03090000 	movweq	r0, #36864	; 0x9000
     3c0:	b9019c91 	stmdblt	r1, {r0, r4, r7, sl, fp, ip, pc}
     3c4:	03000003 	movweq	r0, #3
     3c8:	0006086e 	andeq	r0, r6, lr, ror #16
     3cc:	91030900 	tstls	r3, r0, lsl #18
     3d0:	03bd01a0 			; <UNDEFINED> instruction: 0x03bd01a0
     3d4:	6e030000 	cdpvs	0, 0, cr0, cr3, cr0, {0}
     3d8:	00000608 	andeq	r0, r0, r8, lsl #12
     3dc:	a4910309 	ldrge	r0, [r1], #777	; 0x309
     3e0:	0003c101 	andeq	ip, r3, r1, lsl #2
     3e4:	086e0300 	stmdaeq	lr!, {r8, r9}^
     3e8:	09000006 	stmdbeq	r0, {r1, r2}
     3ec:	01a89103 			; <UNDEFINED> instruction: 0x01a89103
     3f0:	000003c5 	andeq	r0, r0, r5, asr #7
     3f4:	06086e03 	streq	r6, [r8], -r3, lsl #28
     3f8:	03090000 	movweq	r0, #36864	; 0x9000
     3fc:	c901ac91 	stmdbgt	r1, {r0, r4, r7, sl, fp, sp, pc}
     400:	03000003 	movweq	r0, #3
     404:	0006086e 	andeq	r0, r6, lr, ror #16
     408:	91030900 	tstls	r3, r0, lsl #18
     40c:	03cd01b0 	biceq	r0, sp, #176, 2	; 0x2c
     410:	6e030000 	cdpvs	0, 0, cr0, cr3, cr0, {0}
     414:	00000608 	andeq	r0, r0, r8, lsl #12
     418:	b4910309 	ldrlt	r0, [r1], #777	; 0x309
     41c:	0003d101 	andeq	sp, r3, r1, lsl #2
     420:	086e0300 	stmdaeq	lr!, {r8, r9}^
     424:	09000006 	stmdbeq	r0, {r1, r2}
     428:	01b89103 			; <UNDEFINED> instruction: 0x01b89103
     42c:	000003d5 	ldrdeq	r0, [r0], -r5
     430:	06086e03 	streq	r6, [r8], -r3, lsl #28
     434:	03090000 	movweq	r0, #36864	; 0x9000
     438:	d901bc91 	stmdble	r1, {r0, r4, r7, sl, fp, ip, sp, pc}
     43c:	03000003 	movweq	r0, #3
     440:	0006086e 	andeq	r0, r6, lr, ror #16
     444:	0c050000 	stceq	0, cr0, [r5], {-0}
     448:	50000010 	andpl	r0, r0, r0, lsl r0
     44c:	01000000 	mrseq	r0, (UNDEF: 0)
     450:	00020f57 	andeq	r0, r2, r7, asr pc
     454:	06840300 	streq	r0, [r4], r0, lsl #6
     458:	dd147d02 	ldcle	13, cr7, [r4, #-8]
     45c:	03000003 	movweq	r0, #3
     460:	00064186 	andeq	r4, r6, r6, lsl #3
     464:	5c080000 	stcpl	0, cr0, [r8], {-0}
     468:	48000010 	stmdami	r0, {r4}
     46c:	01000000 	mrseq	r0, (UNDEF: 0)
     470:	00021957 	andeq	r1, r2, r7, asr r9
     474:	098b0300 	stmibeq	fp, {r8, r9}
     478:	df147d02 	svcle	0x00147d02
     47c:	03000003 	movweq	r0, #3
     480:	0006468b 	andeq	r4, r6, fp, lsl #13
     484:	a4080000 	strge	r0, [r8], #-0
     488:	44000010 	strmi	r0, [r0], #-16
     48c:	01000002 	tsteq	r0, r2
     490:	00022457 	andeq	r2, r2, r7, asr r4
     494:	09920300 	ldmibeq	r2, {r8, r9}
     498:	01fc7d03 	mvnseq	r7, r3, lsl #26
     49c:	000003e5 	andeq	r0, r0, r5, ror #7
     4a0:	064b9203 	strbeq	r9, [fp], -r3, lsl #4
     4a4:	03090000 	movweq	r0, #36864	; 0x9000
     4a8:	c101f87d 	tstgt	r1, sp, ror r8	; <UNPREDICTABLE>
     4ac:	03000017 	movweq	r0, #23
     4b0:	0005b092 	muleq	r5, r2, r0
     4b4:	7d030600 	stcvc	6, cr0, [r3, #-0]
     4b8:	17c601f4 			; <UNDEFINED> instruction: 0x17c601f4
     4bc:	94030000 	strls	r0, [r3], #-0
     4c0:	00000608 	andeq	r0, r0, r8, lsl #12
     4c4:	f07d0306 			; <UNDEFINED> instruction: 0xf07d0306
     4c8:	0017cd01 	andseq	ip, r7, r1, lsl #26
     4cc:	37a10300 	strcc	r0, [r1, r0, lsl #6]!
     4d0:	0600002e 	streq	r0, [r0], -lr, lsr #32
     4d4:	01ec7d03 	mvneq	r7, r3, lsl #26
     4d8:	000017ee 	andeq	r1, r0, lr, ror #15
     4dc:	2e58a203 	cdpcs	2, 5, cr10, cr8, cr3, {0}
     4e0:	03060000 	movweq	r0, #24576	; 0x6000
     4e4:	1e01e87d 	mcrne	8, 0, lr, cr1, cr13, {3}
     4e8:	03000018 	movweq	r0, #24
     4ec:	000646ac 	andeq	r4, r6, ip, lsr #13
     4f0:	e80a0000 	stmda	sl, {}	; <UNPREDICTABLE>
     4f4:	54000012 	strpl	r0, [r0], #-18	; 0xffffffee
     4f8:	01000001 	tsteq	r0, r1
     4fc:	00024b57 	andeq	r4, r2, r7, asr fp
     500:	a5b10300 	ldrge	r0, [r1, #768]!	; 0x300
     504:	09000005 	stmdbeq	r0, {r0, r2}
     508:	00dc7d03 	sbcseq	r7, ip, r3, lsl #26
     50c:	000003e5 	andeq	r0, r0, r5, ror #7
     510:	064bb103 	strbeq	fp, [fp], -r3, lsl #2
     514:	03090000 	movweq	r0, #36864	; 0x9000
     518:	c100d87d 	tstgt	r0, sp, ror r8
     51c:	03000017 	movweq	r0, #23
     520:	0005b0b1 	strheq	fp, [r5], -r1
     524:	7d030600 	stcvc	6, cr0, [r3, #-0]
     528:	17c600d4 			; <UNDEFINED> instruction: 0x17c600d4
     52c:	c4030000 	strgt	r0, [r3], #-0
     530:	00000608 	andeq	r0, r0, r8, lsl #12
     534:	d07d0306 	rsbsle	r0, sp, r6, lsl #6
     538:	0017cd00 	andseq	ip, r7, r0, lsl #26
     53c:	37cc0300 	strbcc	r0, [ip, r0, lsl #6]
     540:	0600002e 	streq	r0, [r0], -lr, lsr #32
     544:	00cc7d03 	sbceq	r7, ip, r3, lsl #26
     548:	000017ee 	andeq	r1, r0, lr, ror #15
     54c:	2e58cd03 	cdpcs	13, 5, cr12, cr8, cr3, {0}
     550:	03060000 	movweq	r0, #24576	; 0x6000
     554:	1e00c87d 	mcrne	8, 0, ip, cr0, cr13, {3}
     558:	03000018 	movweq	r0, #24
     55c:	000646cf 	andeq	r4, r6, pc, asr #13
     560:	3c0a0000 	stccc	0, cr0, [sl], {-0}
     564:	34000014 	strcc	r0, [r0], #-20	; 0xffffffec
     568:	01000000 	mrseq	r0, (UNDEF: 0)
     56c:	00028657 	andeq	r8, r2, r7, asr r6
     570:	a5e80300 	strbge	r0, [r8, #768]!	; 0x300
     574:	09000005 	stmdbeq	r0, {r0, r2}
     578:	e5147d02 	ldr	r7, [r4, #-3330]	; 0xfffff2fe
     57c:	03000003 	movweq	r0, #3
     580:	00064be8 	andeq	r4, r6, r8, ror #23
     584:	7d020900 	vstrvc.16	s0, [r2, #-0]	; <UNPREDICTABLE>
     588:	0017c110 	andseq	ip, r7, r0, lsl r1
     58c:	b0e80300 	rsclt	r0, r8, r0, lsl #6
     590:	00000005 	andeq	r0, r0, r5
     594:	0014700b 	andseq	r7, r4, fp
     598:	00004000 	andeq	r4, r0, r0
     59c:	b4570100 	ldrblt	r0, [r7], #-256	; 0xffffff00
     5a0:	03000002 	movweq	r0, #2
     5a4:	05b00c60 	ldreq	r0, [r0, #3168]!	; 0xc60
     5a8:	027e0000 	rsbseq	r0, lr, #0
     5ac:	56020000 	strpl	r0, [r2], -r0
     5b0:	0000860c 	andeq	r8, r0, ip, lsl #12
     5b4:	00027600 	andeq	r7, r2, r0, lsl #12
     5b8:	0d540200 	lfmeq	f0, 2, [r4, #-0]
     5bc:	000005c0 	andeq	r0, r0, r0, asr #11
     5c0:	0005cb0c 	andeq	ip, r5, ip, lsl #22
     5c4:	0002e600 	andeq	lr, r2, r0, lsl #12
     5c8:	0e3b0500 	cfabs32eq	mvfx0, mvfx11
     5cc:	000002de 	ldrdeq	r0, [r0], -lr
     5d0:	04240454 	strteq	r0, [r4], #-1108	; 0xfffffbac
     5d4:	0002c60f 	andeq	ip, r2, pc, lsl #12
     5d8:	0005e100 	andeq	lr, r5, r0, lsl #2
     5dc:	00280400 	eoreq	r0, r8, r0, lsl #8
     5e0:	05ed1000 	strbeq	r1, [sp, #0]!
     5e4:	f4110000 			; <UNDEFINED> instruction: 0xf4110000
     5e8:	54000005 	strpl	r0, [r0], #-5
     5ec:	02d01200 	sbcseq	r1, r0, #0, 4
     5f0:	01080000 	mrseq	r0, (UNDEF: 8)
     5f4:	0002d513 	andeq	sp, r2, r3, lsl r5
     5f8:	10070800 	andne	r0, r7, r0, lsl #16
     5fc:	000005ed 	andeq	r0, r0, sp, ror #11
     600:	0005f414 	andeq	pc, r5, r4, lsl r4	; <UNPREDICTABLE>
     604:	00040000 	andeq	r0, r4, r0
     608:	0002fc12 	andeq	pc, r2, r2, lsl ip	; <UNPREDICTABLE>
     60c:	10040500 	andne	r0, r4, r0, lsl #10
     610:	000005ed 	andeq	r0, r0, sp, ror #11
     614:	0005f411 	andeq	pc, r5, r1, lsl r4	; <UNPREDICTABLE>
     618:	0d005c00 	stceq	12, cr5, [r0, #-0]
     61c:	00000620 	andeq	r0, r0, r0, lsr #12
     620:	00062515 	andeq	r2, r6, r5, lsl r5
     624:	06300c00 	ldrteq	r0, [r0], -r0, lsl #24
     628:	030f0000 	movweq	r0, #61440	; 0xf000
     62c:	27060000 	strcs	r0, [r6, -r0]
     630:	00030f16 	andeq	r0, r3, r6, lsl pc
     634:	05ed1000 	strbeq	r1, [sp, #0]!
     638:	f4110000 			; <UNDEFINED> instruction: 0xf4110000
     63c:	20000005 	andcs	r0, r0, r5
     640:	06080d00 	streq	r0, [r8], -r0, lsl #26
     644:	ed0d0000 	stc	0, cr0, [sp, #-0]
     648:	0d000005 	stceq	0, cr0, [r0, #-20]	; 0xffffffec
     64c:	00000650 	andeq	r0, r0, r0, asr r6
     650:	00065b0c 	andeq	r5, r6, ip, lsl #22
     654:	0017ba00 	andseq	fp, r7, r0, lsl #20
     658:	0d8f0200 	sfmeq	f0, 4, [pc]	; 660 <note_end+0x494>
     65c:	00000660 	andeq	r0, r0, r0, ror #12
     660:	00066515 	andeq	r6, r6, r5, lsl r5
     664:	17a71700 	strne	r1, [r7, r0, lsl #14]!
     668:	03a40000 			; <UNDEFINED> instruction: 0x03a40000
     66c:	e90f9602 	stmdb	pc, {r1, r9, sl, ip, pc}	; <UNPREDICTABLE>
     670:	86000003 	strhi	r0, [r0], -r3
     674:	02000000 	andeq	r0, r0, #0
     678:	f30f0097 	vqadd.u8	d0, d31, d7
     67c:	86000003 	strhi	r0, [r0], -r3
     680:	02000000 	andeq	r0, r0, #0
     684:	fd0f0498 	stc2	4, cr0, [pc, #-608]	; 42c <note_end+0x260>
     688:	86000003 	strhi	r0, [r0], -r3
     68c:	02000000 	andeq	r0, r0, #0
     690:	070f0899 			; <UNDEFINED> instruction: 0x070f0899
     694:	86000004 	strhi	r0, [r0], -r4
     698:	02000000 	andeq	r0, r0, #0
     69c:	110f0c9a 			; <UNDEFINED> instruction: 0x110f0c9a
     6a0:	a0000004 	andge	r0, r0, r4
     6a4:	02000012 	andeq	r0, r0, #18
     6a8:	330f109c 	movwcc	r1, #61596	; 0xf09c
     6ac:	d1000004 	tstle	r0, r4
     6b0:	02000012 	andeq	r0, r0, #18
     6b4:	6e0f149e 	mcrvs	4, 0, r1, cr15, cr14, {4}
     6b8:	47000004 	strmi	r0, [r0, -r4]
     6bc:	02000013 	andeq	r0, r0, #19
     6c0:	780f18a0 	stmdavc	pc, {r5, r7, fp, ip}	; <UNPREDICTABLE>
     6c4:	5c000004 	stcpl	0, cr0, [r0], {4}
     6c8:	02000013 	andeq	r0, r0, #19
     6cc:	a10f1ca2 	smlatbge	pc, r2, ip, r1	; <UNPREDICTABLE>
     6d0:	86000004 	strhi	r0, [r0], -r4
     6d4:	02000013 	andeq	r0, r0, #19
     6d8:	c70f20a3 	strgt	r2, [pc, -r3, lsr #1]
     6dc:	b0000004 	andlt	r0, r0, r4
     6e0:	02000013 	andeq	r0, r0, #19
     6e4:	020f24a5 	andeq	r2, pc, #-1526726656	; 0xa5000000
     6e8:	f7000005 			; <UNDEFINED> instruction: 0xf7000005
     6ec:	02000013 	andeq	r0, r0, #19
     6f0:	100f28a7 	andne	r2, pc, r7, lsr #17
     6f4:	0c000005 	stceq	0, cr0, [r0], {5}
     6f8:	02000014 	andeq	r0, r0, #20
     6fc:	210f2ca8 	smlatbcs	pc, r8, ip, r2	; <UNPREDICTABLE>
     700:	26000005 	strcs	r0, [r0], -r5
     704:	02000014 	andeq	r0, r0, #20
     708:	320f30ab 	andcc	r3, pc, #171	; 0xab
     70c:	45000005 	strmi	r0, [r0, #-5]
     710:	02000014 	andeq	r0, r0, #20
     714:	430f34ad 	movwmi	r3, #62637	; 0xf4ad
     718:	65000005 	strvs	r0, [r0, #-5]
     71c:	02000014 	andeq	r0, r0, #20
     720:	4c0f38ae 	stcmi	8, cr3, [pc], {174}	; 0xae
     724:	7f000005 	svcvc	0x00000005
     728:	02000014 	andeq	r0, r0, #20
     72c:	5e0f3caf 	cdppl	12, 0, cr3, cr15, cr15, {5}
     730:	8f000005 	svchi	0x00000005
     734:	02000014 	andeq	r0, r0, #20
     738:	700f40b0 	strhvc	r4, [pc], -r0
     73c:	8f000005 	svchi	0x00000005
     740:	02000014 	andeq	r0, r0, #20
     744:	7f0f44b1 	svcvc	0x000f44b1
     748:	9b000005 	blls	764 <note_end+0x598>
     74c:	02000014 	andeq	r0, r0, #20
     750:	8a0f48b2 	bhi	3d2a20 <_end+0x3cea18>
     754:	ac000005 	stcge	0, cr0, [r0], {5}
     758:	02000014 	andeq	r0, r0, #20
     75c:	990f4cb4 	stmdbls	pc, {r2, r4, r5, r7, sl, fp, lr}	; <UNPREDICTABLE>
     760:	c1000005 	tstgt	r0, r5
     764:	02000014 	andeq	r0, r0, #20
     768:	a70f50b5 			; <UNDEFINED> instruction: 0xa70f50b5
     76c:	c1000005 	tstgt	r0, r5
     770:	02000014 	andeq	r0, r0, #20
     774:	b40f54b7 	strlt	r5, [pc], #-1207	; 77c <note_end+0x5b0>
     778:	d6000005 	strle	r0, [r0], -r5
     77c:	02000014 	andeq	r0, r0, #20
     780:	c40f58b8 	strgt	r5, [pc], #-2232	; 788 <note_end+0x5bc>
     784:	d6000005 	strle	r0, [r0], -r5
     788:	02000014 	andeq	r0, r0, #20
     78c:	d30f5cb9 	movwle	r5, #64697	; 0xfcb9
     790:	e7000005 	str	r0, [r0, -r5]
     794:	02000014 	andeq	r0, r0, #20
     798:	e00f60ba 	strh	r6, [pc], -sl
     79c:	c1000005 	tstgt	r0, r5
     7a0:	02000014 	andeq	r0, r0, #20
     7a4:	ec0f64bc 	cfstrs	mvf6, [pc], {188}	; 0xbc
     7a8:	ac000005 	stcge	0, cr0, [r0], {5}
     7ac:	02000014 	andeq	r0, r0, #20
     7b0:	000f68bd 			; <UNDEFINED> instruction: 0x000f68bd
     7b4:	01000006 	tsteq	r0, r6
     7b8:	02000015 	andeq	r0, r0, #21
     7bc:	0c0f6cbf 	stceq	12, cr6, [pc], {191}	; 0xbf
     7c0:	16000006 	strne	r0, [r0], -r6
     7c4:	02000015 	andeq	r0, r0, #21
     7c8:	160f70c0 	strne	r7, [pc], -r0, asr #1
     7cc:	31000006 	tstcc	r0, r6
     7d0:	02000015 	andeq	r0, r0, #21
     7d4:	4a0f74c1 	bmi	3ddae0 <_end+0x3d9ad8>
     7d8:	7b000006 	blvc	7f8 <note_end+0x62c>
     7dc:	02000015 	andeq	r0, r0, #21
     7e0:	f80f78c2 			; <UNDEFINED> instruction: 0xf80f78c2
     7e4:	bb000006 	bllt	804 <note_end+0x638>
     7e8:	02000016 	andeq	r0, r0, #22
     7ec:	070f7cc4 	streq	r7, [pc, -r4, asr #25]
     7f0:	d0000007 	andle	r0, r0, r7
     7f4:	02000016 	andeq	r0, r0, #22
     7f8:	140f80c5 	strne	r8, [pc], #-197	; 800 <note_end+0x634>
     7fc:	ea000007 	b	820 <note_end+0x654>
     800:	02000016 	andeq	r0, r0, #22
     804:	200f84c6 	andcs	r8, pc, r6, asr #9
     808:	09000007 	stmdbeq	r0, {r0, r1, r2}
     80c:	02000017 	andeq	r0, r0, #23
     810:	310f88c8 	smlabtcc	pc, r8, r8, r8	; <UNPREDICTABLE>
     814:	24000007 	strcs	r0, [r0], #-7
     818:	02000017 	andeq	r0, r0, #23
     81c:	430f8cc9 	movwmi	r8, #64713	; 0xfcc9
     820:	43000007 	movwmi	r0, #7
     824:	02000017 	andeq	r0, r0, #23
     828:	550f90ca 	strpl	r9, [pc, #-202]	; 766 <note_end+0x59a>
     82c:	62000007 	andvs	r0, r0, #7
     830:	02000017 	andeq	r0, r0, #23
     834:	670f94cb 	strvs	r9, [pc, -fp, asr #9]
     838:	7d000007 	stcvc	0, cr0, [r0, #-28]	; 0xffffffe4
     83c:	02000017 	andeq	r0, r0, #23
     840:	7a0f98cc 	bvc	3e6b78 <_end+0x3e2b70>
     844:	9c000007 	stcls	0, cr0, [r0], {7}
     848:	02000017 	andeq	r0, r0, #23
     84c:	8d0f9ccd 	stchi	12, cr9, [pc, #-820]	; 520 <note_end+0x354>
     850:	bb000007 	bllt	874 <note_end+0x6a8>
     854:	02000017 	andeq	r0, r0, #23
     858:	9c0fa0ce 	stcls	0, cr10, [pc], {206}	; 0xce
     85c:	d6000007 	strle	r0, [r0], -r7
     860:	02000017 	andeq	r0, r0, #23
     864:	ac0fa4cf 	cfstrsge	mvf10, [pc], {207}	; 0xcf
     868:	f5000007 			; <UNDEFINED> instruction: 0xf5000007
     86c:	02000017 	andeq	r0, r0, #23
     870:	bc0fa8d0 	stclt	8, cr10, [pc], {208}	; 0xd0
     874:	14000007 	strne	r0, [r0], #-7
     878:	02000018 	andeq	r0, r0, #24
     87c:	cb0facd1 	blgt	3ebbc8 <_end+0x3e7bc0>
     880:	2f000007 	svccs	0x00000007
     884:	02000018 	andeq	r0, r0, #24
     888:	db0fb0d2 	blle	3ecbd8 <_end+0x3e8bd0>
     88c:	4e000007 	cdpmi	0, 0, cr0, cr0, cr7, {0}
     890:	02000018 	andeq	r0, r0, #24
     894:	eb0fb4d3 	bl	3edbe8 <_end+0x3e9be0>
     898:	6d000007 	stcvs	0, cr0, [r0, #-28]	; 0xffffffe4
     89c:	02000018 	andeq	r0, r0, #24
     8a0:	fb0fb8d4 	blx	3eebfa <_end+0x3eabf2>
     8a4:	88000007 	stmdahi	r0, {r0, r1, r2}
     8a8:	02000018 	andeq	r0, r0, #24
     8ac:	0c0fbcd5 	stceq	12, cr11, [pc], {213}	; 0xd5
     8b0:	a7000008 	strge	r0, [r0, -r8]
     8b4:	02000018 	andeq	r0, r0, #24
     8b8:	1d0fc0d6 	stcne	0, cr12, [pc, #-856]	; 568 <note_end+0x39c>
     8bc:	c6000008 	strgt	r0, [r0], -r8
     8c0:	02000018 	andeq	r0, r0, #24
     8c4:	2b0fc4d7 	blcs	3f1c28 <_end+0x3edc20>
     8c8:	e1000008 	tst	r0, r8
     8cc:	02000018 	andeq	r0, r0, #24
     8d0:	3a0fc8d8 	bcc	3f2c38 <_end+0x3eec30>
     8d4:	00000008 	andeq	r0, r0, r8
     8d8:	02000019 	andeq	r0, r0, #25
     8dc:	490fccd9 	stmdbmi	pc, {r0, r3, r4, r6, r7, sl, fp, lr, pc}	; <UNPREDICTABLE>
     8e0:	1f000008 	svcne	0x00000008
     8e4:	02000019 	andeq	r0, r0, #25
     8e8:	580fd0da 	stmdapl	pc, {r1, r3, r4, r6, r7, ip, lr, pc}	; <UNPREDICTABLE>
     8ec:	3a000008 	bcc	914 <__cxa_atexit@plt+0x8>
     8f0:	02000019 	andeq	r0, r0, #25
     8f4:	680fd4db 	stmdavs	pc, {r0, r1, r3, r4, r6, r7, sl, ip, lr, pc}	; <UNPREDICTABLE>
     8f8:	59000008 	stmdbpl	r0, {r3}
     8fc:	02000019 	andeq	r0, r0, #25
     900:	780fd8dc 	stmdavc	pc, {r2, r3, r4, r6, r7, fp, ip, lr, pc}	; <UNPREDICTABLE>
     904:	78000008 	stmdavc	r0, {r3}
     908:	02000019 	andeq	r0, r0, #25
     90c:	880fdcdd 	stmdahi	pc, {r0, r2, r3, r4, r6, r7, sl, fp, ip, lr, pc}	; <UNPREDICTABLE>
     910:	93000008 	movwls	r0, #8
     914:	02000019 	andeq	r0, r0, #25
     918:	990fe0de 	stmdbls	pc, {r1, r2, r3, r4, r6, r7, sp, lr, pc}	; <UNPREDICTABLE>
     91c:	b2000008 	andlt	r0, r0, #8
     920:	02000019 	andeq	r0, r0, #25
     924:	aa0fe4df 	bge	3f9ca8 <_end+0x3f5ca0>
     928:	d1000008 	tstle	r0, r8
     92c:	02000019 	andeq	r0, r0, #25
     930:	bb0fe8e0 	bllt	3facb8 <_end+0x3f6cb0>
     934:	ec000008 	stc	0, cr0, [r0], {8}
     938:	02000019 	andeq	r0, r0, #25
     93c:	cd0fece1 	stcgt	12, cr14, [pc, #-900]	; 5c0 <note_end+0x3f4>
     940:	0b000008 	bleq	968 <__system_property_get@plt+0x8>
     944:	0200001a 	andeq	r0, r0, #26
     948:	df0ff0e2 	svcle	0x000ff0e2
     94c:	2a000008 	bcs	974 <__system_property_find@plt+0x8>
     950:	0200001a 	andeq	r0, r0, #26
     954:	ee0ff4e3 	cdp	4, 0, cr15, cr15, cr3, {7}
     958:	41000008 	tstmi	r0, r8
     95c:	0200001a 	andeq	r0, r0, #26
     960:	fe0ff8e4 	cdp2	8, 0, cr15, cr15, cr4, {7}
     964:	5c000008 	stcpl	0, cr0, [r0], {8}
     968:	0200001a 	andeq	r0, r0, #26
     96c:	0e18fce5 	cdpeq	12, 1, cr15, cr8, cr5, {7}
     970:	77000009 	strvc	r0, [r0, -r9]
     974:	0200001a 	andeq	r0, r0, #26
     978:	180100e7 	stmdane	r1, {r0, r1, r2, r5, r6, r7}
     97c:	00000929 	andeq	r0, r0, r9, lsr #18
     980:	00001a97 	muleq	r0, r7, sl
     984:	0104e902 	tsteq	r4, r2, lsl #18
     988:	00094518 	andeq	r4, r9, r8, lsl r5
     98c:	001abb00 	andseq	fp, sl, r0, lsl #22
     990:	08eb0200 	stmiaeq	fp!, {r9}^
     994:	09611801 	stmdbeq	r1!, {r0, fp, ip}^
     998:	1adf0000 	bne	ff7c09a0 <_end+0xff7bc998>
     99c:	ed020000 	stc	0, cr0, [r2, #-0]
     9a0:	7d18010c 	ldfvcs	f0, [r8, #-48]	; 0xffffffd0
     9a4:	ff000009 			; <UNDEFINED> instruction: 0xff000009
     9a8:	0200001a 	andeq	r0, r0, #26
     9ac:	180110ef 	stmdane	r1, {r0, r1, r2, r3, r5, r6, r7, ip}
     9b0:	0000099a 	muleq	r0, sl, r9
     9b4:	00001b23 	andeq	r1, r0, r3, lsr #22
     9b8:	0114f102 	tsteq	r4, r2, lsl #2	; <UNPREDICTABLE>
     9bc:	0009b718 	andeq	fp, r9, r8, lsl r7
     9c0:	001b4700 	andseq	r4, fp, r0, lsl #14
     9c4:	18f30200 	ldmne	r3!, {r9}^
     9c8:	09d01801 	ldmibeq	r0, {r0, fp, ip}^
     9cc:	1b670000 	blne	19c09d4 <_end+0x19bc9cc>
     9d0:	f5020000 			; <UNDEFINED> instruction: 0xf5020000
     9d4:	ea18011c 	b	600e4c <_end+0x5fce44>
     9d8:	8b000009 	blhi	a04 <memcpy@plt+0x8>
     9dc:	0200001b 	andeq	r0, r0, #27
     9e0:	180120f7 	stmdane	r1, {r0, r1, r2, r4, r5, r6, r7, sp}
     9e4:	00000a04 	andeq	r0, r0, r4, lsl #20
     9e8:	00001baf 	andeq	r1, r0, pc, lsr #23
     9ec:	0124f902 	msreq	CPSR_s, r2, lsl #18
     9f0:	000a1d18 	andeq	r1, sl, r8, lsl sp
     9f4:	001bcf00 	andseq	ip, fp, r0, lsl #30
     9f8:	28fb0200 	ldmcs	fp!, {r9}^
     9fc:	0a371801 	beq	dc6a08 <_end+0xdc2a00>
     a00:	1bf30000 	blne	ffcc0a08 <_end+0xffcbca00>
     a04:	fd020000 	stc2	0, cr0, [r2, #-0]
     a08:	5118012c 	tstpl	r8, ip, lsr #2
     a0c:	1700000a 	strne	r0, [r0, -sl]
     a10:	0200001c 	andeq	r0, r0, #28
     a14:	190130ff 	stmdbne	r1, {r0, r1, r2, r3, r4, r5, r6, r7, ip, sp}
     a18:	00000a6b 	andeq	r0, r0, fp, ror #20
     a1c:	00001c37 	andeq	r1, r0, r7, lsr ip
     a20:	34010102 	strcc	r0, [r1], #-258	; 0xfffffefe
     a24:	0a861901 	beq	fe186e30 <_end+0xfe182e28>
     a28:	1c5b0000 	mrane	r0, fp, acc0
     a2c:	03020000 	movweq	r0, #8192	; 0x2000
     a30:	19013801 	stmdbne	r1, {r0, fp, ip, sp}
     a34:	00000aa1 	andeq	r0, r0, r1, lsr #21
     a38:	00001c7f 	andeq	r1, r0, pc, ror ip
     a3c:	3c010502 	cfstr32cc	mvfx0, [r1], {2}
     a40:	0ab91901 	beq	fee46e4c <_end+0xfee42e44>
     a44:	1c9f0000 	ldcne	0, cr0, [pc], {0}
     a48:	07020000 	streq	r0, [r2, -r0]
     a4c:	19014001 	stmdbne	r1, {r0, lr}
     a50:	00000ad2 	ldrdeq	r0, [r0], -r2
     a54:	00001cc3 	andeq	r1, r0, r3, asr #25
     a58:	44010902 	strmi	r0, [r1], #-2306	; 0xfffff6fe
{
     a5c:	0aeb1901 	beq	ffac6e68 <_end+0xffac2e60>
     a60:	1ce70000 	stclne	0, cr0, [r7]
     a64:	0b020000 	bleq	80a6c <_end+0x7ca64>
     a68:	19014801 	stmdbne	r1, {r0, fp, lr}
     a6c:	00000b04 	andeq	r0, r0, r4, lsl #22
    stream = popen("pwd", "r");
     a70:	00001d07 	andeq	r1, r0, r7, lsl #26
     a74:	4c010d02 	stcmi	13, cr0, [r1], {2}
     a78:	0b1e1901 	bleq	786e84 <_end+0x782e7c>
     a7c:	1d2b0000 	stcne	0, cr0, [fp, #-0]
    fgets(ch, 1024, stream);
     a80:	0f020000 	svceq	0x00020000
     a84:	19015001 	stmdbne	r1, {r0, ip, lr}
     a88:	00000b38 	andeq	r0, r0, r8, lsr fp
     a8c:	00001d4f 	andeq	r1, r0, pc, asr #26
    LOGW("pwd: %s",ch);
     a90:	54011102 	strpl	r1, [r1], #-258	; 0xfffffefe
     a94:	0b521901 	bleq	1486ea0 <_end+0x1482e98>
     a98:	1d6f0000 	stclne	0, cr0, [pc, #-0]	; aa0 <testcode6+0x44>
     a9c:	13020000 	movwne	r0, #8192	; 0x2000
     aa0:	19015801 	stmdbne	r1, {r0, fp, ip, lr}
     aa4:	00000b6d 	andeq	r0, r0, sp, ror #22
    pclose(stream);
     aa8:	00001d93 	muleq	r0, r3, sp
     aac:	5c011502 	cfstr32pl	mvfx1, [r1], {2}
    stream = popen("ls", "r");
     ab0:	0b881901 	bleq	fe206ebc <_end+0xfe202eb4>
     ab4:	1db70000 	ldcne	0, cr0, [r7]
     ab8:	17020000 	strne	r0, [r2, -r0]
     abc:	19016001 	stmdbne	r1, {r0, sp, lr}
    if( NULL == stream )
     ac0:	00000ba3 	andeq	r0, r0, r3, lsr #23
     ac4:	00001dd7 	ldrdeq	r1, [r0], -r7
        LOGE("Unable to execute the command");
     ac8:	64011902 	strvs	r1, [r1], #-2306	; 0xfffff6fe
     acc:	0bbf1901 	bleq	fefc6ed8 <_end+0xfefc2ed0>
     ad0:	1dfb0000 	ldclne	0, cr0, [fp]
     ad4:	1b020000 	blne	80adc <_end+0x7cad4>
     ad8:	19016801 	stmdbne	r1, {r0, fp, sp, lr}
     adc:	00000bdb 	ldrdeq	r0, [r0], -fp
     ae0:	00001e1f 	andeq	r1, r0, pc, lsl lr
    }
     ae4:	6c011d02 	stcvs	13, cr1, [r1], {2}
        while( NULL != fgets(buffer, 1024, stream))
     ae8:	0bf41901 	bleq	ffd06ef4 <_end+0xffd02eec>
     aec:	1e3b0000 	cdpne	0, 3, cr0, cr11, cr0, {0}
     af0:	1f020000 	svcne	0x00020000
     af4:	19017001 	stmdbne	r1, {r0, ip, sp, lr}
     af8:	00000c0e 	andeq	r0, r0, lr, lsl #24
            LOGE("read: %s", buffer);
     afc:	00001e5b 	andeq	r1, r0, fp, asr lr
     b00:	74012102 	strvc	r2, [r1], #-258	; 0xfffffefe
     b04:	0c281901 			; <UNDEFINED> instruction: 0x0c281901
     b08:	1e7b0000 	cdpne	0, 7, cr0, cr11, cr0, {0}
     b0c:	24020000 	strcs	r0, [r2], #-0
     b10:	19017801 	stmdbne	r1, {r0, fp, ip, sp, lr}
     b14:	00000c33 	andeq	r0, r0, r3, lsr ip
        while( NULL != fgets(buffer, 1024, stream))
     b18:	00001e9a 	muleq	r0, sl, lr
        status = pclose(stream);
     b1c:	7c012602 	stcvc	6, cr2, [r1], {2}
     b20:	0c421901 	mcrreq	9, 0, r1, r2, cr1	; <UNPREDICTABLE>
        LOGW("process exited with status %d", status);
     b24:	1eb40000 	cdpne	0, 11, cr0, cr4, cr0, {0}
     b28:	27020000 	strcs	r0, [r2, -r0]
     b2c:	19018001 	stmdbne	r1, {r0, pc}
     b30:	00000c52 	andeq	r0, r0, r2, asr ip
     b34:	00001ece 	andeq	r1, r0, lr, asr #29
     b38:	84012802 	strhi	r2, [r1], #-2050	; 0xfffff7fe
     b3c:	0c5f1901 	mrrceq	9, 0, r1, pc, cr1	; <UNPREDICTABLE>
     b40:	1ee80000 	cdpne	0, 14, cr0, cr8, cr0, {0}
     b44:	29020000 	stmdbcs	r2, {}	; <UNPREDICTABLE>
     b48:	19018801 	stmdbne	r1, {r0, fp, pc}
     b4c:	00000c6c 	andeq	r0, r0, ip, ror #24
     b50:	00001f02 	andeq	r1, r0, r2, lsl #30
}
     b54:	8c012a02 			; <UNDEFINED> instruction: 0x8c012a02
     b58:	0c7a1901 			; <UNDEFINED> instruction: 0x0c7a1901
     b5c:	1f1c0000 	svcne	0x001c0000
     b60:	2b020000 	blcs	80b68 <_end+0x7cb60>
     b64:	19019001 	stmdbne	r1, {r0, ip, pc}
     b68:	00000c86 	andeq	r0, r0, r6, lsl #25
     b6c:	00001f36 	andeq	r1, r0, r6, lsr pc
     b70:	94012c02 	strls	r2, [r1], #-3074	; 0xfffff3fe
     b74:	0c931901 			; <UNDEFINED> instruction: 0x0c931901
     b78:	1f500000 	svcne	0x00500000
     b7c:	2d020000 	stccs	0, cr0, [r2, #-0]
     b80:	19019801 	stmdbne	r1, {r0, fp, ip, pc}
     b84:	00000ca1 	andeq	r0, r0, r1, lsr #25
     b88:	00001f6a 	andeq	r1, r0, sl, ror #30
     b8c:	9c012e02 	stcls	14, cr2, [r1], {2}
{
     b90:	0cb01901 			; <UNDEFINED> instruction: 0x0cb01901
     b94:	1f840000 	svcne	0x00840000
     b98:	30020000 	andcc	r0, r2, r0
     b9c:	1901a001 	stmdbne	r1, {r0, sp, pc}
    if(0 == __system_property_get("ro.product.model", value))
     ba0:	00000cbf 			; <UNDEFINED> instruction: 0x00000cbf
     ba4:	00001f9f 	muleq	r0, pc, pc	; <UNPREDICTABLE>
     ba8:	a4013102 	strge	r3, [r1], #-258	; 0xfffffefe
     bac:	0ccf1901 			; <UNDEFINED> instruction: 0x0ccf1901
        LOGE("error");
     bb0:	1fba0000 	svcne	0x00ba0000
     bb4:	32020000 	andcc	r0, r2, #0
     bb8:	1901a801 	stmdbne	r1, {r0, fp, sp, pc}
     bbc:	00000cdc 	ldrdeq	r0, [r0], -ip
     bc0:	00001fd5 	ldrdeq	r1, [r0], -r5
     bc4:	ac013302 	stcge	3, cr3, [r1], {2}
     bc8:	0ce91901 			; <UNDEFINED> instruction: 0x0ce91901
    }
     bcc:	1ff00000 	svcne	0x00f00000	; IMB
        LOGW("product model: %s", value);
     bd0:	34020000 	strcc	r0, [r2], #-0
     bd4:	1901b001 	stmdbne	r1, {r0, ip, sp, pc}
     bd8:	00000cf7 	strdeq	r0, [r0], -r7
     bdc:	0000200b 	andeq	r2, r0, fp
     be0:	b4013502 	strlt	r3, [r1], #-1282	; 0xfffffafe
     be4:	0d031901 	vstreq.16	s2, [r3, #-2]	; <UNPREDICTABLE>
     be8:	20260000 	eorcs	r0, r6, r0
     bec:	36020000 	strcc	r0, [r2], -r0
    property = __system_property_find("ro.product.model");
     bf0:	1901b801 	stmdbne	r1, {r0, fp, ip, sp, pc}
     bf4:	00000d10 	andeq	r0, r0, r0, lsl sp
    if( NULL == property )
     bf8:	00002041 	andeq	r2, r0, r1, asr #32
     bfc:	bc013702 	stclt	7, cr3, [r1], {2}
        LOGE("error");
     c00:	0d1e1901 	vldreq.16	s2, [lr, #-2]	; <UNPREDICTABLE>
     c04:	205c0000 	subscs	r0, ip, r0
     c08:	38020000 	stmdacc	r2, {}	; <UNPREDICTABLE>
     c0c:	1901c001 	stmdbne	r1, {r0, lr, pc}
     c10:	00000d2d 	andeq	r0, r0, sp, lsr #26
     c14:	000016ea 	andeq	r1, r0, sl, ror #13
     c18:	c4013a02 	strgt	r3, [r1], #-2562	; 0xfffff5fe
    }
     c1c:	0d3f1901 			; <UNDEFINED> instruction: 0x0d3f1901
        if( 0 == __system_property_read(property, name, value))
     c20:	15160000 	ldrne	r0, [r6, #-0]
     c24:	3c020000 	stccc	0, cr0, [r2], {-0}
     c28:	1901c801 	stmdbne	r1, {r0, fp, lr, pc}
     c2c:	00000d56 	andeq	r0, r0, r6, asr sp
            LOGE("is empty");
     c30:	00001531 	andeq	r1, r0, r1, lsr r5
     c34:	cc013d02 	stcgt	13, cr3, [r1], {2}
     c38:	0d6e1901 			; <UNDEFINED> instruction: 0x0d6e1901
     c3c:	157b0000 	ldrbne	r0, [fp, #-0]!
     c40:	3e020000 	cdpcc	0, 0, cr0, cr2, cr0, {0}
     c44:	1901d001 	stmdbne	r1, {r0, ip, lr, pc}
        }
     c48:	00000d86 	andeq	r0, r0, r6, lsl #27
            LOGW("%s, %s", name, value);
     c4c:	00002077 	andeq	r2, r0, r7, ror r0
     c50:	d4013f02 	strle	r3, [r1], #-3842	; 0xfffff0fe
     c54:	0d9e1901 	vldreq.16	s2, [lr, #2]	; <UNPREDICTABLE>
     c58:	20920000 	addscs	r0, r2, r0
     c5c:	40020000 	andmi	r0, r2, r0
     c60:	1901d801 	stmdbne	r1, {r0, fp, ip, lr, pc}
     c64:	00000db7 			; <UNDEFINED> instruction: 0x00000db7
     c68:	000020b1 	strheq	r2, [r0], -r1
     c6c:	dc014202 	sfmle	f4, 4, [r1], {2}
     c70:	0dd01901 	vldreq.16	s3, [r0, #2]	; <UNPREDICTABLE>
     c74:	20d00000 	sbcscs	r0, r0, r0
     c78:	44020000 	strmi	r0, [r2], #-0
     c7c:	1901e001 	stmdbne	r1, {r0, sp, lr, pc}
     c80:	00000de5 	andeq	r0, r0, r5, ror #27
    return;
     c84:	000020eb 	andeq	r2, r0, fp, ror #1
     c88:	e4014502 	str	r4, [r1], #-1282	; 0xfffffafe
     c8c:	0dfb1901 			; <UNDEFINED> instruction: 0x0dfb1901
     c90:	210a0000 	mrscs	r0, (UNDEF: 10)
     c94:	46020000 	strmi	r0, [r2], -r0
     c98:	1901e801 	stmdbne	r1, {r0, fp, sp, lr, pc}
     c9c:	00000e11 	andeq	r0, r0, r1, lsl lr
     ca0:	00002129 	andeq	r2, r0, r9, lsr #2
     ca4:	ec014702 	stc	7, cr4, [r1], {2}
     ca8:	0e261901 	vmuleq.f16	s2, s12, s2	; <UNPREDICTABLE>
     cac:	21440000 	mrscs	r0, (UNDEF: 68)
     cb0:	48020000 	stmdami	r2, {}	; <UNPREDICTABLE>
     cb4:	1901f001 	stmdbne	r1, {r0, ip, sp, lr, pc}
     cb8:	00000e3c 	andeq	r0, r0, ip, lsr lr
     cbc:	00002163 	andeq	r2, r0, r3, ror #2
     cc0:	f4014902 	vst2.8	{d4,d6}, [r1], r2
{
     cc4:	0e521901 	vnmlseq.f16	s3, s4, s2	; <UNPREDICTABLE>
     cc8:	21820000 	orrcs	r0, r2, r0
     ccc:	4a020000 	bmi	80cd4 <_end+0x7cccc>
    LOGE("%s, %d, ", __FUNCTION__, a1);
     cd0:	1901f801 	stmdbne	r1, {r0, fp, ip, sp, lr, pc}
     cd4:	00000e68 	andeq	r0, r0, r8, ror #28
     cd8:	0000219d 	muleq	r0, sp, r1
     cdc:	fc014b02 	stc2	11, cr4, [r1], {2}	; <UNPREDICTABLE>
     ce0:	0e7f1901 	vaddeq.f16	s3, s30, s2	; <UNPREDICTABLE>
     ce4:	21bc0000 			; <UNDEFINED> instruction: 0x21bc0000
     ce8:	4c020000 	stcmi	0, cr0, [r2], {-0}
     cec:	19020001 	stmdbne	r2, {r0}
     cf0:	00000e96 	muleq	r0, r6, lr
}
     cf4:	000021db 	ldrdeq	r2, [r0], -fp
     cf8:	04014d02 	streq	r4, [r1], #-3330	; 0xfffff2fe
     cfc:	0eaa1902 	vfmaeq.f16	s2, s20, s4	; <UNPREDICTABLE>
     d00:	21f60000 	mvnscs	r0, r0
     d04:	4e020000 	cdpmi	0, 0, cr0, cr2, cr0, {0}
{
     d08:	19020801 	stmdbne	r2, {r0, fp}
     d0c:	00000ebf 			; <UNDEFINED> instruction: 0x00000ebf
     d10:	00002215 	andeq	r2, r0, r5, lsl r2
     d14:	0c014f02 	stceq	15, cr4, [r1], {2}
     d18:	0ed41902 	vfnmseq.f16	s3, s8, s4	; <UNPREDICTABLE>
     d1c:	22340000 	eorscs	r0, r4, #0
     d20:	50020000 	andpl	r0, r2, r0
     d24:	19021001 	stmdbne	r2, {r0, ip}
     d28:	00000ee9 	andeq	r0, r0, r9, ror #29
     d2c:	0000224f 	andeq	r2, r0, pc, asr #4
     d30:	14015102 	strne	r5, [r1], #-258	; 0xfffffefe
     d34:	0eff1902 	vmoveq.f16	s3, #242	; 0xbf900000 -1.125	; <UNPREDICTABLE>
     d38:	226e0000 	rsbcs	r0, lr, #0
     d3c:	52020000 	andpl	r0, r2, #0
     d40:	19021801 	stmdbne	r2, {r0, fp, ip}
     d44:	00000f15 	andeq	r0, r0, r5, lsl pc
     d48:	0000228d 	andeq	r2, r0, sp, lsl #5
     d4c:	1c015302 	stcne	3, cr5, [r1], {2}
     d50:	0f2b1902 	svceq	0x002b1902
     d54:	22a80000 	adccs	r0, r8, #0
     d58:	54020000 	strpl	r0, [r2], #-0
     d5c:	19022001 	stmdbne	r2, {r0, sp}
     d60:	00000f42 	andeq	r0, r0, r2, asr #30
     d64:	000022c7 	andeq	r2, r0, r7, asr #5
     d68:	24015502 	strcs	r5, [r1], #-1282	; 0xfffffafe
     d6c:	0f591902 	svceq	0x00591902
     d70:	22e60000 	rsccs	r0, r6, #0
     d74:	56020000 	strpl	r0, [r2], -r0
     d78:	19022801 	stmdbne	r2, {r0, fp, sp}
     d7c:	00000f70 	andeq	r0, r0, r0, ror pc
     d80:	00002301 	andeq	r2, r0, r1, lsl #6
     d84:	2c015702 	stccs	7, cr5, [r1], {2}
     d88:	0f881902 	svceq	0x00881902
     d8c:	23200000 	nopcs	{0}	; <UNPREDICTABLE>
     d90:	58020000 	stmdapl	r2, {}	; <UNPREDICTABLE>
     d94:	19023001 	stmdbne	r2, {r0, ip, sp}
     d98:	00000fa0 	andeq	r0, r0, r0, lsr #31
     d9c:	0000233f 	andeq	r2, r0, pc, lsr r3
     da0:	34015902 	strcc	r5, [r1], #-2306	; 0xfffff6fe
     da4:	0fb51902 	svceq	0x00b51902
     da8:	23560000 	cmpcs	r6, #0
     dac:	5a020000 	bpl	80db4 <_end+0x7cdac>
     db0:	19023801 	stmdbne	r2, {r0, fp, ip, sp}
     db4:	00000fcb 	andeq	r0, r0, fp, asr #31
     db8:	00002371 	andeq	r2, r0, r1, ror r3
     dbc:	3c015b02 			; <UNDEFINED> instruction: 0x3c015b02
     dc0:	0fe11902 	svceq	0x00e11902
     dc4:	1e7b0000 	cdpne	0, 7, cr0, cr11, cr0, {0}
     dc8:	5d020000 	stcpl	0, cr0, [r2, #-0]
     dcc:	19024001 	stmdbne	r2, {r0, lr}
     dd0:	00000ff2 	strdeq	r0, [r0], -r2
     dd4:	0000238c 	andeq	r2, r0, ip, lsl #7
     dd8:	44016002 	strmi	r6, [r1], #-2
     ddc:	10071902 	andne	r1, r7, r2, lsl #18
     de0:	23a60000 			; <UNDEFINED> instruction: 0x23a60000
     de4:	61020000 	mrsvs	r0, (UNDEF: 2)
     de8:	19024801 	stmdbne	r2, {r0, fp, lr}
     dec:	0000101d 	andeq	r1, r0, sp, lsl r0
     df0:	000023c0 	andeq	r2, r0, r0, asr #7
     df4:	4c016202 	sfmmi	f6, 4, [r1], {2}
    LOGE("%d, %d, %d, %d, %d, %d, %d, %d, %d, %d, \
     df8:	10301902 	eorsne	r1, r0, r2, lsl #18
     dfc:	23da0000 	bicscs	r0, sl, #0
     e00:	63020000 	movwvs	r0, #8192	; 0x2000
     e04:	19025001 	stmdbne	r2, {r0, ip, lr}
     e08:	00001043 	andeq	r1, r0, r3, asr #32
     e0c:	000023f4 	strdeq	r2, [r0], -r4
     e10:	54016402 	strpl	r6, [r1], #-1026	; 0xfffffbfe
     e14:	10571902 	subsne	r1, r7, r2, lsl #18
     e18:	240e0000 	strcs	r0, [lr], #-0
     e1c:	65020000 	strvs	r0, [r2, #-0]
     e20:	19025801 	stmdbne	r2, {r0, fp, ip, lr}
     e24:	00001069 	andeq	r1, r0, r9, rrx
     e28:	00002428 	andeq	r2, r0, r8, lsr #8
     e2c:	5c016602 	stcpl	6, cr6, [r1], {2}
     e30:	107c1902 	rsbsne	r1, ip, r2, lsl #18
     e34:	24420000 	strbcs	r0, [r2], #-0
     e38:	67020000 	strvs	r0, [r2, -r0]
     e3c:	19026001 	stmdbne	r2, {r0, sp, lr}
     e40:	00001090 	muleq	r0, r0, r0
     e44:	0000245c 	andeq	r2, r0, ip, asr r4
     e48:	64016802 	strvs	r6, [r1], #-2050	; 0xfffff7fe
     e4c:	10a51902 	adcne	r1, r5, r2, lsl #18
     e50:	24760000 	ldrbtcs	r0, [r6], #-0
     e54:	6a020000 	bvs	80e5c <_end+0x7ce54>
     e58:	19026801 	stmdbne	r2, {r0, fp, sp, lr}
     e5c:	000010ba 	strheq	r1, [r0], -sl
     e60:	00002491 	muleq	r0, r1, r4
     e64:	6c016b02 			; <UNDEFINED> instruction: 0x6c016b02
     e68:	10d01902 	sbcsne	r1, r0, r2, lsl #18
     e6c:	24ac0000 	strtcs	r0, [ip], #0
     e70:	6c020000 	stcvs	0, cr0, [r2], {-0}
     e74:	19027001 	stmdbne	r2, {r0, ip, sp, lr}
     e78:	000010e3 	andeq	r1, r0, r3, ror #1
     e7c:	000024c7 	andeq	r2, r0, r7, asr #9
     e80:	74016d02 	strvc	r6, [r1], #-3330	; 0xfffff2fe
     e84:	10f61902 	rscsne	r1, r6, r2, lsl #18
     e88:	24e20000 	strbtcs	r0, [r2], #0
     e8c:	6e020000 	cdpvs	0, 0, cr0, cr2, cr0, {0}
     e90:	19027801 	stmdbne	r2, {r0, fp, ip, sp, lr}
     e94:	0000110a 	andeq	r1, r0, sl, lsl #2
     e98:	000024fd 	strdeq	r2, [r0], -sp
     e9c:	7c016f02 	stcvc	15, cr6, [r1], {2}
     ea0:	111c1902 	tstne	ip, r2, lsl #18
     ea4:	25180000 	ldrcs	r0, [r8, #-0]
     ea8:	70020000 	andvc	r0, r2, r0
     eac:	19028001 	stmdbne	r2, {r0, pc}
     eb0:	0000112f 	andeq	r1, r0, pc, lsr #2
     eb4:	00002533 	andeq	r2, r0, r3, lsr r5
     eb8:	84017102 	strhi	r7, [r1], #-258	; 0xfffffefe
     ebc:	11431902 	cmpne	r3, r2, lsl #18
     ec0:	254e0000 	strbcs	r0, [lr, #-0]
     ec4:	72020000 	andvc	r0, r2, #0
     ec8:	19028801 	stmdbne	r2, {r0, fp, pc}
     ecc:	00001158 	andeq	r1, r0, r8, asr r1
     ed0:	00002569 	andeq	r2, r0, r9, ror #10
     ed4:	8c017402 	cfstrshi	mvf7, [r1], {2}
     ed8:	11621902 	cmnne	r2, r2, lsl #18
     edc:	258d0000 	strcs	r0, [sp]
     ee0:	75020000 	strvc	r0, [r2, #-0]
     ee4:	19029001 	stmdbne	r2, {r0, ip, pc}
     ee8:	00001172 	andeq	r1, r0, r2, ror r1
     eec:	000025a2 	andeq	r2, r0, r2, lsr #11
     ef0:	94017602 	strls	r7, [r1], #-1538	; 0xfffff9fe
     ef4:	11811902 	orrne	r1, r1, r2, lsl #18
     ef8:	25c10000 	strbcs	r0, [r1]
     efc:	77020000 	strvc	r0, [r2, -r0]
     f00:	19029801 	stmdbne	r2, {r0, fp, ip, pc}
     f04:	00001194 	muleq	r0, r4, r1
     f08:	000025d7 	ldrdeq	r2, [r0], -r7
     f0c:	9c017802 	stcls	8, cr7, [r1], {2}
     f10:	11a11902 			; <UNDEFINED> instruction: 0x11a11902
     f14:	258d0000 	strcs	r0, [sp]
     f18:	79020000 	stmdbvc	r2, {}	; <UNPREDICTABLE>
     f1c:	1902a001 	stmdbne	r2, {r0, sp, pc}
     f20:	000011b4 			; <UNDEFINED> instruction: 0x000011b4
     f24:	000025ec 	andeq	r2, r0, ip, ror #11
     f28:	a4017b02 	strge	r7, [r1], #-2818	; 0xfffff4fe
     f2c:	11c61902 	bicne	r1, r6, r2, lsl #18
     f30:	26060000 	strcs	r0, [r6], -r0
     f34:	7c020000 	stcvc	0, cr0, [r2], {-0}
     f38:	1902a801 	stmdbne	r2, {r0, fp, sp, pc}
     f3c:	000011dc 	ldrdeq	r1, [r0], -ip
     f40:	0000261c 	andeq	r2, r0, ip, lsl r6
     f44:	ac017d02 	stcge	13, cr7, [r1], {2}
     f48:	11f21902 	mvnsne	r1, r2, lsl #18
     f4c:	263c0000 	ldrtcs	r0, [ip], -r0
     f50:	7e020000 	cdpvc	0, 0, cr0, cr2, cr0, {0}
     f54:	1902b001 	stmdbne	r2, {r0, ip, sp, pc}
     f58:	0000120e 	andeq	r1, r0, lr, lsl #4
     f5c:	00002666 	andeq	r2, r0, r6, ror #12
     f60:	b4017f02 	strlt	r7, [r1], #-3842	; 0xfffff0fe
     f64:	12241902 	eorne	r1, r4, #32768	; 0x8000
     f68:	26800000 	strcs	r0, [r0], r0
     f6c:	80020000 	andhi	r0, r2, r0
     f70:	1902b801 	stmdbne	r2, {r0, fp, ip, sp, pc}
     f74:	0000123a 	andeq	r1, r0, sl, lsr r2
     f78:	0000269b 	muleq	r0, fp, r6
     f7c:	bc018202 	sfmlt	f0, 1, [r1], {2}
     f80:	12581902 	subsne	r1, r8, #32768	; 0x8000
     f84:	26bb0000 	ldrtcs	r0, [fp], r0
     f88:	83020000 	movwhi	r0, #8192	; 0x2000
     f8c:	1902c001 	stmdbne	r2, {r0, lr, pc}
     f90:	00001270 	andeq	r1, r0, r0, ror r2
     f94:	000026db 	ldrdeq	r2, [r0], -fp
     f98:	c4018402 	strgt	r8, [r1], #-1026	; 0xfffffbfe
     f9c:	12881902 	addne	r1, r8, #32768	; 0x8000
     fa0:	26fb0000 	ldrbtcs	r0, [fp], r0
     fa4:	85020000 	strhi	r0, [r2, #-0]
     fa8:	1902c801 	stmdbne	r2, {r0, fp, lr, pc}
     fac:	000012a2 	andeq	r1, r0, r2, lsr #5
     fb0:	0000271b 	andeq	r2, r0, fp, lsl r7
     fb4:	cc018602 	stcgt	6, cr8, [r1], {2}
     fb8:	12b81902 	adcsne	r1, r8, #32768	; 0x8000
     fbc:	273b0000 	ldrcs	r0, [fp, -r0]!
     fc0:	87020000 	strhi	r0, [r2, -r0]
     fc4:	1902d001 	stmdbne	r2, {r0, ip, lr, pc}
     fc8:	000012d0 	ldrdeq	r1, [r0], -r0
     fcc:	0000275b 	andeq	r2, r0, fp, asr r7
     fd0:	d4018802 	strle	r8, [r1], #-2050	; 0xfffff7fe
     fd4:	12ea1902 	rscne	r1, sl, #32768	; 0x8000
     fd8:	277b0000 	ldrbcs	r0, [fp, -r0]!
     fdc:	89020000 	stmdbhi	r2, {}	; <UNPREDICTABLE>
     fe0:	1902d801 	stmdbne	r2, {r0, fp, ip, lr, pc}
     fe4:	00001306 	andeq	r1, r0, r6, lsl #6
     fe8:	0000279b 	muleq	r0, fp, r7
     fec:	dc018b02 			; <UNDEFINED> instruction: 0xdc018b02
     ff0:	131e1902 	tstne	lr, #32768	; 0x8000
     ff4:	27b50000 	ldrcs	r0, [r5, r0]!
    return;
     ff8:	8c020000 	stchi	0, cr0, [r2], {-0}
     ffc:	1902e001 	stmdbne	r2, {r0, sp, lr, pc}
    1000:	00001333 	andeq	r1, r0, r3, lsr r3
    1004:	000027d4 	ldrdeq	r2, [r0], -r4
    1008:	e4018d02 	str	r8, [r1], #-3330	; 0xfffff2fe
{
    100c:	13481902 	movtne	r1, #35074	; 0x8902
    1010:	27f30000 	ldrbcs	r0, [r3, r0]!
    int *p = NULL;
    1014:	8e020000 	cdphi	0, 0, cr0, cr2, cr0, {0}
    *p = 10;
    1018:	1902e801 	stmdbne	r2, {r0, fp, sp, lr, pc}
    LOGE("Fun : %s, Line : %d", __FUNCTION__, __LINE__ );
    101c:	0000135e 	andeq	r1, r0, lr, asr r3
    1020:	00002812 	andeq	r2, r0, r2, lsl r8
    1024:	ec018f02 	stc	15, cr8, [r1], {2}
    1028:	13721902 	cmnne	r2, #32768	; 0x8000
    102c:	28310000 	ldmdacs	r1!, {}	; <UNPREDICTABLE>
    1030:	90020000 	andls	r0, r2, r0
    1034:	1902f001 	stmdbne	r2, {r0, ip, sp, lr, pc}
    1038:	00001387 	andeq	r1, r0, r7, lsl #7
    103c:	00002850 	andeq	r2, r0, r0, asr r8
    1040:	f4019102 	vst4.8	{d9,d11,d13,d15}, [r1], r2
    1044:	139d1902 	orrsne	r1, sp, #32768	; 0x8000
}
    1048:	286f0000 	stmdacs	pc!, {}^	; <UNPREDICTABLE>
    104c:	92020000 	andls	r0, r2, #0
    1050:	1902f801 	stmdbne	r2, {r0, fp, ip, sp, lr, pc}
    1054:	000013b4 			; <UNDEFINED> instruction: 0x000013b4
    1058:	0000288e 	andeq	r2, r0, lr, lsl #17
{
    105c:	fc019402 	stc2	4, cr9, [r1], {2}
    1060:	13d01902 	bicsne	r1, r0, #32768	; 0x8000
    1064:	28a90000 	stmiacs	r9!, {}	; <UNPREDICTABLE>
    pdata[0] = 'a';
    1068:	96020000 	strls	r0, [r2], -r0
    LOGE("Fun : %s, Line : %d", __FUNCTION__, __LINE__ );
    106c:	19030001 	stmdbne	r3, {r0}
    1070:	000013e9 	andeq	r1, r0, r9, ror #7
    1074:	000028c4 	andeq	r2, r0, r4, asr #17
    1078:	04019802 	streq	r9, [r1], #-2050	; 0xfffff7fe
    107c:	14021903 	strne	r1, [r2], #-2307	; 0xfffff6fd
    1080:	28df0000 	ldmcs	pc, {}^	; <UNPREDICTABLE>
    1084:	9a020000 	bls	8108c <_end+0x7d084>
    1088:	19030801 	stmdbne	r3, {r0, fp}
    108c:	0000141c 	andeq	r1, r0, ip, lsl r4
    1090:	000028fa 	strdeq	r2, [r0], -sl
}
    1094:	0c019c02 	stceq	12, cr9, [r1], {2}
    1098:	14341903 	ldrtne	r1, [r4], #-2307	; 0xfffff6fd
    109c:	29150000 	ldmdbcs	r5, {}	; <UNPREDICTABLE>
    10a0:	9e020000 	cdpls	0, 0, cr0, cr2, cr0, {0}
{
    10a4:	19031001 	stmdbne	r3, {r0, ip}
    10a8:	0000144d 	andeq	r1, r0, sp, asr #8
    10ac:	00002930 	andeq	r2, r0, r0, lsr r9
    10b0:	1401a002 	strne	sl, [r1], #-2
    int result = 0;
    10b4:	14671903 	strbtne	r1, [r7], #-2307	; 0xfffff6fd
    result = system("mkdir /data/data/com.bar.hellojni/temp");
    10b8:	294b0000 	stmdbcs	fp, {}^	; <UNPREDICTABLE>
    10bc:	a2020000 	andge	r0, r2, #0
    10c0:	19031801 	stmdbne	r3, {r0, fp, ip}
    if( -1 == result || 127 == result )
    10c4:	00001482 	andeq	r1, r0, r2, lsl #9
    10c8:	00002966 	andeq	r2, r0, r6, ror #18
    10cc:	1c01a502 	cfstr32ne	mvfx10, [r1], {2}
    10d0:	14981903 	ldrne	r1, [r8], #2307	; 0x903
    10d4:	29860000 	stmibcs	r6, {}	; <UNPREDICTABLE>
        LOGE("error");
    10d8:	a7020000 	strge	r0, [r2, -r0]
    10dc:	19032001 	stmdbne	r3, {r0, sp}
    10e0:	000014ab 	andeq	r1, r0, fp, lsr #9
    10e4:	000029a6 	andeq	r2, r0, r6, lsr #19
    10e8:	2401a902 	strcs	sl, [r1], #-2306	; 0xfffff6fe
    10ec:	14be1903 	ldrtne	r1, [lr], #2307	; 0x903
    }
    10f0:	29c60000 	stmibcs	r6, {}^	; <UNPREDICTABLE>
    10f4:	ab020000 	blge	810fc <_end+0x7d0f4>
    testString(NULL);
    10f8:	19032801 	stmdbne	r3, {r0, fp, sp}
    willCrash();
    10fc:	000014d2 	ldrdeq	r1, [r0], -r2
    pid_t pid = getpid();
    1100:	000029e6 	andeq	r2, r0, r6, ror #19
    uid_t uid = getuid();
    1104:	2c01ad02 	stccs	13, cr10, [r1], {2}
    1108:	14e41903 	strbtne	r1, [r4], #2307	; 0x903
    testNoPara();
    110c:	2a060000 	bcs	181114 <_end+0x17d10c>
    testOnePara(2);
    1110:	af020000 	svcge	0x00020000
    1114:	19033001 	stmdbne	r3, {r0, ip, sp}
    testParameter(1, 2, 3, 4, 5, 6, 7, 8, 9, 10,
    1118:	000014f7 	strdeq	r1, [r0], -r7
    111c:	00002a26 	andeq	r2, r0, r6, lsr #20
    1120:	3401b102 	strcc	fp, [r1], #-258	; 0xfffffefe
    1124:	150b1903 	strne	r1, [fp, #-2307]	; 0xfffff6fd
    1128:	2a460000 	bcs	1181130 <_end+0x117d128>
    112c:	b3020000 	movwlt	r0, #8192	; 0x2000
    1130:	19033801 	stmdbne	r3, {r0, fp, ip, sp}
    1134:	00001520 	andeq	r1, r0, r0, lsr #10
    1138:	00002a66 	andeq	r2, r0, r6, ror #20
    113c:	3c01b702 	stccc	7, cr11, [r1], {2}
    1140:	15361903 	ldrne	r1, [r6, #-2307]!	; 0xfffff6fd
    1144:	2a900000 	bcs	fe40114c <_end+0xfe3fd144>
    1148:	b9020000 	stmdblt	r2, {}	; <UNPREDICTABLE>
    114c:	19034001 	stmdbne	r3, {r0, lr}
    1150:	00001549 	andeq	r1, r0, r9, asr #10
    1154:	00002ab0 			; <UNDEFINED> instruction: 0x00002ab0
    1158:	4401bb02 	strmi	fp, [r1], #-2818	; 0xfffff4fe
    115c:	155c1903 	ldrbne	r1, [ip, #-2307]	; 0xfffff6fd
    1160:	2ad00000 	bcs	ff401168 <_end+0xff3fd160>
    1164:	bd020000 	stclt	0, cr0, [r2, #-0]
    1168:	19034801 	stmdbne	r3, {r0, fp, lr}
    116c:	00001570 	andeq	r1, r0, r0, ror r5
    1170:	00002afa 	strdeq	r2, [r0], -sl
    1174:	4c01bf02 	stcmi	15, cr11, [r1], {2}
    1178:	15821903 	strne	r1, [r2, #2307]	; 0x903
    117c:	2b240000 	blcs	901184 <_end+0x8fd17c>
    1180:	c1020000 	mrsgt	r0, (UNDEF: 2)
    1184:	19035001 	stmdbne	r3, {r0, ip, lr}
    1188:	00001595 	muleq	r0, r5, r5
    118c:	00002b4e 	andeq	r2, r0, lr, asr #22
    1190:	5401c302 	strpl	ip, [r1], #-770	; 0xfffffcfe
    1194:	15a91903 	strne	r1, [r9, #2307]!	; 0x903
    1198:	2b780000 	blcs	1e011a0 <_end+0x1dfd198>
    119c:	c5020000 	strgt	r0, [r2, #-0]
    11a0:	19035801 	stmdbne	r3, {r0, fp, ip, lr}
    11a4:	000015be 			; <UNDEFINED> instruction: 0x000015be
    11a8:	00002ba2 	andeq	r2, r0, r2, lsr #23
    11ac:	5c01c802 	stcpl	8, cr12, [r1], {2}
    11b0:	15ee1903 	strbne	r1, [lr, #2307]!	; 0x903
    11b4:	2bff0000 	blcs	fffc11bc <_end+0xfffbd1b4>
    11b8:	ca020000 	bgt	811c0 <_end+0x7d1b8>
    11bc:	19036001 	stmdbne	r3, {r0, sp, lr}
    11c0:	00001600 	andeq	r1, r0, r0, lsl #12
    11c4:	00002c14 	andeq	r2, r0, r4, lsl ip
    11c8:	6401cb02 	strvs	ip, [r1], #-2818	; 0xfffff4fe
    11cc:	160d1903 	strne	r1, [sp], -r3, lsl #18
    11d0:	2c140000 	ldccs	0, cr0, [r4], {-0}
    11d4:	cc020000 	stcgt	0, cr0, [r2], {-0}
    11d8:	19036801 	stmdbne	r3, {r0, fp, sp, lr}
    11dc:	00001619 	andeq	r1, r0, r9, lsl r6
    11e0:	00002c29 	andeq	r2, r0, r9, lsr #24
    11e4:	6c01cd02 	stcvs	13, cr12, [r1], {2}
    11e8:	16961903 	ldrne	r1, [r6], r3, lsl #18
    11ec:	2d1d0000 	ldccs	0, cr0, [sp, #-0]
    11f0:	cf020000 	svcgt	0x00020000
    11f4:	19037001 	stmdbne	r3, {r0, ip, sp, lr}
    11f8:	000016a6 	andeq	r1, r0, r6, lsr #13
    11fc:	00002d3d 	andeq	r2, r0, sp, lsr sp
    1200:	7401d002 	strvc	sp, [r1], #-2
    1204:	16b91903 	ldrtne	r1, [r9], r3, lsl #18
    1208:	2d5d0000 	ldclcs	0, cr0, [sp, #-0]
    120c:	d2020000 	andle	r0, r2, #0
    1210:	19037801 	stmdbne	r3, {r0, fp, ip, sp, lr}
    1214:	000016d3 	ldrdeq	r1, [r0], -r3
    1218:	00002d77 	andeq	r2, r0, r7, ror sp
    121c:	7c01d302 	stcvc	3, cr13, [r1], {2}
    1220:	16f11903 	ldrbtne	r1, [r1], r3, lsl #18
    1224:	25a20000 	strcs	r0, [r2, #0]!
    1228:	d5020000 	strle	r0, [r2, #-0]
    122c:	19038001 	stmdbne	r3, {r0, pc}
    1230:	00001703 	andeq	r1, r0, r3, lsl #14
    1234:	000025c1 	andeq	r2, r0, r1, asr #11
    1238:	8401d602 	strhi	sp, [r1], #-1538	; 0xfffff9fe
    123c:	17191903 	ldrne	r1, [r9, -r3, lsl #18]
    1240:	2d920000 	ldccs	0, cr0, [r2]
    1244:	d8020000 	stmdale	r2, {}	; <UNPREDICTABLE>
    1248:	19038801 	stmdbne	r3, {r0, fp, pc}
    124c:	00001730 	andeq	r1, r0, r0, lsr r7
    1250:	00002db2 			; <UNDEFINED> instruction: 0x00002db2
    1254:	8c01d902 			; <UNDEFINED> instruction: 0x8c01d902
    1258:	17441903 	strbne	r1, [r4, -r3, lsl #18]
    125c:	2dc30000 	stclcs	0, cr0, [r3]
    1260:	db020000 	blle	81268 <_end+0x7d260>
    1264:	19039001 	stmdbne	r3, {r0, ip, pc}
    1268:	00001753 	andeq	r1, r0, r3, asr r7
    126c:	00002dd3 	ldrdeq	r2, [r0], -r3
    1270:	9401dd02 	strls	sp, [r1], #-3330	; 0xfffff2fe
    1274:	17671903 	strbne	r1, [r7, -r3, lsl #18]!
    1278:	2ded0000 	stclcs	0, cr0, [sp]
    127c:	de020000 	cdple	0, 0, cr0, cr2, cr0, {0}
    1280:	19039801 	stmdbne	r3, {r0, fp, ip, pc}
    1284:	0000177e 	andeq	r1, r0, lr, ror r7
    1288:	00002e02 	andeq	r2, r0, r2, lsl #28
    128c:	9c01df02 	stcls	15, cr13, [r1], {2}
    1290:	17961903 	ldrne	r1, [r6, r3, lsl #18]
    char *username = getlogin();
    1294:	2e170000 	cdpcs	0, 1, cr0, cr7, cr0, {0}
    1298:	e2020000 	and	r0, r2, #0
    LOGE("F:%s,%s", __FUNCTION__, username);
    129c:	0003a001 	andeq	sl, r3, r1
    12a0:	0012a50d 	andseq	sl, r2, sp, lsl #10
    12a4:	12b01a00 	adcsne	r1, r0, #0, 20
    12a8:	4b1b0000 	blmi	6c12b0 <_end+0x6bd2a8>
    12ac:	00000006 	andeq	r0, r0, r6
    12b0:	0012bb0c 	andseq	fp, r2, ip, lsl #22
    12b4:	00042e00 	andeq	r2, r4, r0, lsl #28
    12b8:	0c230200 	sfmeq	f0, 4, [r3], #-0
    12bc:	000012c6 	andeq	r1, r0, r6, asr #5
    12c0:	00000426 	andeq	r0, r0, r6, lsr #8
    12c4:	080c4007 	stmdaeq	ip, {r0, r1, r2, lr}
}
    12c8:	1c000006 	stcne	0, cr0, [r0], {6}
    12cc:	07000004 	streq	r0, [r0, -r4]
    12d0:	12d60d28 	sbcsne	r0, r6, #40, 26	; 0xa00
    12d4:	f51a0000 			; <UNDEFINED> instruction: 0xf51a0000
    12d8:	1b000012 	blne	1328 <Java_com_crash_test_HelloJni_stringFromJNI+0x40>
    12dc:	0000064b 	andeq	r0, r0, fp, asr #12
    12e0:	0013001b 	andseq	r0, r3, fp, lsl r0
    12e4:	05b01b00 	ldreq	r1, [r0, #2816]!	; 0xb00
{
    12e8:	0a1b0000 	beq	6c12f0 <_end+0x6bd2e8>
    12ec:	1b000013 	blne	1340 <Java_com_crash_test_HelloJni_stringFromJNI+0x58>
    12f0:	0000133c 	andeq	r1, r0, ip, lsr r3
    12f4:	05b00c00 	ldreq	r0, [r0, #3072]!	; 0xc00
    LOGE(__FUNCTION__);
    12f8:	043f0000 	ldrteq	r0, [pc], #-0	; 1300 <Java_com_crash_test_HelloJni_stringFromJNI+0x18>
    12fc:	55020000 	strpl	r0, [r2, #-0]
    1300:	0013050d 	andseq	r0, r3, sp, lsl #10
    1304:	05ed1500 	strbeq	r1, [sp, #1280]!	; 0x500
    1308:	0f0d0000 	svceq	0x000d0000
    130c:	15000013 	strne	r0, [r0, #-19]	; 0xffffffed
    1310:	00001314 	andeq	r1, r0, r4, lsl r3
    1314:	00131f0c 	andseq	r1, r3, ip, lsl #30
    1318:	00046200 	andeq	r6, r4, r0, lsl #4
    if( JNI_OK == (*env)->MonitorEnter(env, thiz)){
    131c:	0c200200 	sfmeq	f0, 4, [r0], #-0
    1320:	0000132a 	andeq	r1, r0, sl, lsr #6
    1324:	0000045b 	andeq	r0, r0, fp, asr r4
    1328:	350c3a07 	strcc	r3, [ip, #-2567]	; 0xfffff5f9
    132c:	52000013 	andpl	r0, r0, #19
    1330:	07000004 	streq	r0, [r0, -r4]
        LOGE("MonitorEnterr");
    1334:	04461224 	strbeq	r1, [r6], #-548	; 0xfffffddc
    1338:	01060000 	mrseq	r0, (UNDEF: 6)
    133c:	0012b00c 	andseq	fp, r2, ip
    1340:	00046800 	andeq	r6, r4, r0, lsl #16
    1344:	0d290200 	sfmeq	f0, 4, [r9, #-0]
    1348:	0000134c 	andeq	r1, r0, ip, asr #6
    134c:	0012f51a 	andseq	pc, r2, sl, lsl r5	; <UNPREDICTABLE>
    }
    1350:	064b1b00 	strbeq	r1, [fp], -r0, lsl #22
    int result = 0;
    1354:	001b0000 	andseq	r0, fp, r0
    result = system("mkdir /data/data/com.bar.hellojni/temp");
    1358:	00000013 	andeq	r0, r0, r3, lsl r0
    135c:	0013610d 	andseq	r6, r3, sp, lsl #2
    if( -1 == result || 127 == result )
    1360:	13711a00 	cmnne	r1, #0, 20
    1364:	4b1b0000 	blmi	6c136c <_end+0x6bd364>
    1368:	1b000006 	blne	1388 <Java_com_crash_test_HelloJni_stringFromJNI+0xa0>
    136c:	000005b0 			; <UNDEFINED> instruction: 0x000005b0
    1370:	137c0c00 	cmnne	ip, #0, 24
        LOGE("error");
    1374:	04970000 	ldreq	r0, [r7], #0
    1378:	6a020000 	bvs	81380 <_end+0x7d378>
    137c:	0013810d 	andseq	r8, r3, sp, lsl #2
    1380:	048c1600 	streq	r1, [ip], #1536	; 0x600
    1384:	8b0d0000 	blhi	34138c <_end+0x33d384>
    1388:	1a000013 	bne	13dc <Java_com_crash_test_HelloJni_stringFromJNI+0xf4>
    }
    138c:	0000139b 	muleq	r0, fp, r3
    pid_t pid = getpid();
    1390:	00064b1b 	andeq	r4, r6, fp, lsl fp
    1394:	05b01b00 	ldreq	r1, [r0, #2816]!	; 0xb00
    uid_t uid = getuid();
    1398:	0c000000 	stceq	0, cr0, [r0], {-0}
    char *username = getlogin();
    139c:	000013a6 	andeq	r1, r0, r6, lsr #7
    13a0:	000004be 			; <UNDEFINED> instruction: 0x000004be
    LOGE("%s", username);
    13a4:	ab0d6702 	blge	35afb4 <_end+0x356fac>
    13a8:	16000013 			; <UNDEFINED> instruction: 0x16000013
    13ac:	000004b4 			; <UNDEFINED> instruction: 0x000004b4
    13b0:	0013b50d 	andseq	fp, r3, sp, lsl #10
    13b4:	05b01a00 	ldreq	r1, [r0, #2560]!	; 0xa00
    13b8:	4b1b0000 	blmi	6c13c0 <_end+0x6bd3b8>
    if(JNI_OK == (*env)->MonitorExit(env, thiz)){
    13bc:	1b000006 	blne	13dc <Java_com_crash_test_HelloJni_stringFromJNI+0xf4>
    13c0:	000012f5 	strdeq	r1, [r0], -r5
    13c4:	0013711b 	andseq	r7, r3, fp, lsl r1
    13c8:	13cf1b00 	bicne	r1, pc, #0, 22
    13cc:	0c000000 	stceq	0, cr0, [r0], {-0}
    13d0:	000013da 	ldrdeq	r1, [r0], -sl
        LOGE("MonitorExit");
    13d4:	000004f9 	strdeq	r0, [r0], -r9
    13d8:	e50c1f02 	str	r1, [ip, #-3842]	; 0xfffff0fe
    13dc:	f1000013 	cps	#19
    13e0:	07000004 	streq	r0, [r0, -r4]
    13e4:	13f00c3b 	mvnsne	r0, #15104	; 0x3b00
    13e8:	04e70000 	strbteq	r0, [r7], #0
    13ec:	25070000 	strcs	r0, [r7, #-0]
    }
    13f0:	0004d912 	andeq	sp, r4, r2, lsl r9
    return (*env)->NewStringUTF(env, "Hello from JNI !  Compiled with ABI " ABI ".");
    13f4:	0d010800 	stceq	8, cr0, [r1, #-0]
    13f8:	000013fc 	strdeq	r1, [r0], -ip
    13fc:	0012f51a 	andseq	pc, r2, sl, lsl r5	; <UNPREDICTABLE>
    1400:	064b1b00 	strbeq	r1, [fp], -r0, lsl #22
    1404:	f51b0000 			; <UNDEFINED> instruction: 0xf51b0000
    1408:	00000012 	andeq	r0, r0, r2, lsl r0
    140c:	0014110d 	andseq	r1, r4, sp, lsl #2
    1410:	13cf1a00 	bicne	r1, pc, #0, 20
    1414:	4b1b0000 	blmi	6c141c <_end+0x6bd414>
    1418:	1b000006 	blne	1438 <Java_com_crash_test_HelloJni_stringFromJNI+0x150>
    141c:	000012f5 	strdeq	r1, [r0], -r5
    1420:	0012f51b 	andseq	pc, r2, fp, lsl r5	; <UNPREDICTABLE>
    1424:	2b0d0000 	blcs	34142c <_end+0x33d424>
    1428:	1a000014 	bne	1480 <testNoPara+0x10>
    142c:	000005b0 			; <UNDEFINED> instruction: 0x000005b0
    1430:	00064b1b 	andeq	r4, r6, fp, lsl fp
    1434:	12f51b00 	rscsne	r1, r5, #0, 22
    1438:	9b1b0000 	blls	6c1440 <_end+0x6bd438>
{
    143c:	1b000013 	blne	1490 <testNoPara+0x20>
    1440:	000013cf 	andeq	r1, r0, pc, asr #7
    1444:	144a0d00 	strbne	r0, [sl], #-3328	; 0xfffff300
    1448:	b01a0000 	andslt	r0, sl, r0
    return (*env)->NewStringUTF(env, "stringFromJNI_11");
    144c:	1b000012 	blne	149c <testNoPara+0x2c>
    1450:	0000064b 	andeq	r0, r0, fp, asr #12
    1454:	00145a1b 	andseq	r5, r4, fp, lsl sl
    1458:	b00c0000 	andlt	r0, ip, r0
    145c:	38000005 	stmdacc	r0, {r0, r2}
    1460:	02000005 	andeq	r0, r0, #5
    1464:	146a0d61 	strbtne	r0, [sl], #-3425	; 0xfffff29f
    1468:	b01a0000 	andslt	r0, sl, r0
    146c:	1b000012 	blne	14bc <JNI_OnLoad+0xc>
{
    1470:	0000064b 	andeq	r0, r0, fp, asr #12
    1474:	0012f51b 	andseq	pc, r2, fp, lsl r5	; <UNPREDICTABLE>
    LOGE(" %s", __FUNCTION__ );
    1478:	13001b00 	movwne	r1, #2816	; 0xb00
    147c:	0d000000 	stceq	0, cr0, [r0, #-0]
    1480:	00001484 	andeq	r1, r0, r4, lsl #9
    1484:	00145a1a 	andseq	r5, r4, sl, lsl sl
    1488:	064b1b00 	strbeq	r1, [fp], -r0, lsl #22
    148c:	0d000000 	stceq	0, cr0, [r0, #-0]
    1490:	00001494 	muleq	r0, r4, r4
    1494:	064b1b1c 			; <UNDEFINED> instruction: 0x064b1b1c
    1498:	0d000000 	stceq	0, cr0, [r0, #-0]
}
    149c:	000014a0 	andeq	r1, r0, r0, lsr #9
    14a0:	064b1b1c 			; <UNDEFINED> instruction: 0x064b1b1c
    14a4:	001b0000 	andseq	r0, fp, r0
    14a8:	00000013 	andeq	r0, r0, r3, lsl r0
    14ac:	0014b10d 	andseq	fp, r4, sp, lsl #2
jint JNI_OnLoad( JavaVM* vm, void *reserved){
    14b0:	12b01a00 	adcsne	r1, r0, #0, 20
    14b4:	4b1b0000 	blmi	6c14bc <_end+0x6bd4b4>
    14b8:	1b000006 	blne	14d8 <JNI_OnLoad+0x28>
    gs_jvm = vm;
    14bc:	000012b0 			; <UNDEFINED> instruction: 0x000012b0
    14c0:	14c60d00 	strbne	r0, [r6], #3328	; 0xd00
    jint result = JNI_VERSION_1_4;
    14c4:	b01a0000 	andslt	r0, sl, r0
    14c8:	1b000005 	blne	14e4 <selfrel_offset31+0x8>
    return  result;
    14cc:	0000064b 	andeq	r0, r0, fp, asr #12
    14d0:	0005b01b 	andeq	fp, r5, fp, lsl r0
    14d4:	db0d0000 	blle	3414dc <_end+0x33d4d4>
    14d8:	1c000014 	stcne	0, cr0, [r0], {20}
    14dc:	00064b1b 	andeq	r4, r6, fp, lsl fp
    14e0:	05b01b00 	ldreq	r1, [r0, #2816]!	; 0xb00
    14e4:	0d000000 	stceq	0, cr0, [r0, #-0]
    14e8:	000014ec 	andeq	r1, r0, ip, ror #9
    14ec:	0013cf1a 	andseq	ip, r3, sl, lsl pc
    14f0:	064b1b00 	strbeq	r1, [fp], -r0, lsl #22
    14f4:	b01b0000 	andslt	r0, fp, r0
    14f8:	1b000005 	blne	1514 <search_EIT_table+0x26>
    14fc:	000005b0 			; <UNDEFINED> instruction: 0x000005b0
    1500:	15060d00 	strne	r0, [r6, #-3328]	; 0xfffff300
    1504:	b01a0000 	andslt	r0, sl, r0
    1508:	1b000005 	blne	1524 <search_EIT_table+0x36>
    150c:	0000064b 	andeq	r0, r0, fp, asr #12
    1510:	0012f51b 	andseq	pc, r2, fp, lsl r5	; <UNPREDICTABLE>
    1514:	1b0d0000 	blne	34151c <_end+0x33d514>
    1518:	1a000015 	bne	1574 <__gnu_unwind_get_pr_addr+0x1e>
    151c:	000005b0 			; <UNDEFINED> instruction: 0x000005b0
    1520:	00064b1b 	andeq	r4, r6, fp, lsl fp
    1524:	12f51b00 	rscsne	r1, r5, #0, 22
    1528:	711b0000 	tstvc	fp, r0
    152c:	1d000013 	stcne	0, cr0, [r0, #-76]	; 0xffffffb4
    1530:	15360d00 	ldrne	r0, [r6, #-3328]!	; 0xfffff300
    1534:	b01a0000 	andslt	r0, sl, r0
    1538:	1b000005 	blne	1554 <search_EIT_table+0x66>
    153c:	0000064b 	andeq	r0, r0, fp, asr #12
    1540:	0012f51b 	andseq	pc, r2, fp, lsl r5	; <UNPREDICTABLE>
    1544:	13711b00 	cmnne	r1, #0, 22
    1548:	501b0000 	andspl	r0, fp, r0
    154c:	00000015 	andeq	r0, r0, r5, lsl r0
    1550:	00155b0c 	andseq	r5, r5, ip, lsl #22
    1554:	00064200 	andeq	r4, r6, r0, lsl #4
    1558:	0c1e0800 	ldceq	8, cr0, [lr], {-0}
    155c:	00001566 	andeq	r1, r0, r6, ror #10
    1560:	00000630 	andeq	r0, r0, r0, lsr r6
    1564:	261e8f03 	ldrcs	r8, [lr], -r3, lsl #30
    1568:	04000006 	streq	r0, [r0], #-6
    156c:	210f8f03 	tstcs	pc, r3, lsl #30
    1570:	86000006 	strhi	r0, [r0], -r6
    1574:	03000000 	movweq	r0, #0
    1578:	0d00008f 	stceq	0, cr0, [r0, #-572]	; 0xfffffdc4
    157c:	00001580 	andeq	r1, r0, r0, lsl #11
    1580:	0005b01a 	andeq	fp, r5, sl, lsl r0
    1584:	064b1b00 	strbeq	r1, [fp], -r0, lsl #22
    1588:	f51b0000 			; <UNDEFINED> instruction: 0xf51b0000
    158c:	1b000012 	blne	15dc <get_eit_entry+0x54>
    1590:	00001371 	andeq	r1, r0, r1, ror r3
    1594:	00159a1b 	andseq	r9, r5, fp, lsl sl
    1598:	9f0d0000 	svcls	0x000d0000
    159c:	0c000015 	stceq	0, cr0, [r0], {21}
    15a0:	000015aa 	andeq	r1, r0, sl, lsr #11
    15a4:	000006f1 	strdeq	r0, [r0], -r1
    15a8:	f11f7802 			; <UNDEFINED> instruction: 0xf11f7802
    15ac:	08000006 	stmdaeq	r0, {r1, r2}
    15b0:	550f6e02 	strpl	r6, [pc, #-3586]	; 7b6 <note_end+0x5ea>
    15b4:	cf000006 	svcgt	0x00000006
    15b8:	02000013 	andeq	r0, r0, #19
    15bc:	570f006f 	strpl	r0, [pc, -pc, rrx]
    15c0:	14000006 	strne	r0, [r0], #-6
    15c4:	02000013 	andeq	r0, r0, #19
    15c8:	590f0070 	stmdbpl	pc, {r4, r5, r6}	; <UNPREDICTABLE>
    15cc:	1f000006 	svcne	0x00000006
    15d0:	02000016 	andeq	r0, r0, #22
    15d4:	840f0071 	strhi	r0, [pc], #-113	; 15dc <get_eit_entry+0x54>
    15d8:	47000006 	strmi	r0, [r0, -r6]
    15dc:	02000016 	andeq	r0, r0, #22
    15e0:	a50f0072 	strge	r0, [pc, #-114]	; 1576 <__gnu_unwind_get_pr_addr+0x20>
    15e4:	b0000006 	andlt	r0, r0, r6
    15e8:	02000012 	andeq	r0, r0, #18
    15ec:	a70f0073 	smlsdxge	pc, r3, r0, r0	; <UNPREDICTABLE>
    15f0:	6f000006 	svcvs	0x00000006
    15f4:	02000016 	andeq	r0, r0, #22
    15f8:	cf0f0074 	svcgt	0x000f0074
    15fc:	97000006 	strls	r0, [r0, -r6]
    1600:	02000016 	andeq	r0, r0, #22
    1604:	de0f0075 	mcrle	0, 0, r0, cr15, cr5, {3}
    1608:	a9000006 	stmdbge	r0, {r1, r2}
    160c:	02000016 	andeq	r0, r0, #22
    1610:	ef0f0076 	svc	0x000f0076
    1614:	b0000006 	andlt	r0, r0, r6
    1618:	02000005 	andeq	r0, r0, #5
    161c:	0c000077 	stceq	0, cr0, [r0], {119}	; 0x77
    1620:	0000162a 	andeq	r1, r0, sl, lsr #12
    1624:	0000067e 	andeq	r0, r0, lr, ror r6
    1628:	350c2102 	strcc	r2, [ip, #-258]	; 0xfffffefe
    162c:	75000016 	strvc	r0, [r0, #-22]	; 0xffffffea
    1630:	07000006 	streq	r0, [r0, -r6]
    1634:	16400c3e 			; <UNDEFINED> instruction: 0x16400c3e
    1638:	066a0000 	strbteq	r0, [sl], -r0
    163c:	27070000 	strcs	r0, [r7, -r0]
    1640:	00065b12 	andeq	r5, r6, r2, lsl fp
    1644:	0c020700 	stceq	7, cr0, [r2], {-0}
    1648:	00001652 	andeq	r1, r0, r2, asr r6
    164c:	0000069e 	muleq	r0, lr, r6
    1650:	5d0c2202 	sfmpl	f2, 4, [ip, #-8]
    1654:	96000016 			; <UNDEFINED> instruction: 0x96000016
    1658:	07000006 	streq	r0, [r0, -r6]
    165c:	16680c3d 			; <UNDEFINED> instruction: 0x16680c3d
    1660:	068c0000 	streq	r0, [ip], r0
    1664:	26070000 	strcs	r0, [r7], -r0
    1668:	00068612 	andeq	r8, r6, r2, lsl r6
    166c:	0c020500 	cfstr32eq	mvfx0, [r2], {-0}
    1670:	0000167a 	andeq	r1, r0, sl, ror r6
    1674:	000006c9 	andeq	r0, r0, r9, asr #13
    1678:	850c2402 	strhi	r2, [ip, #-1026]	; 0xfffffbfe
    167c:	c1000016 	tstgt	r0, r6, lsl r0
    1680:	07000006 	streq	r0, [r0, -r6]
    1684:	16900c43 	ldrne	r0, [r0], r3, asr #24
    1688:	06b70000 	ldrteq	r0, [r7], r0
    168c:	2e070000 	cdpcs	0, 0, cr0, cr7, cr0, {0}
    1690:	0006a912 	andeq	sl, r6, r2, lsl r9
    1694:	0c080500 	cfstr32eq	mvfx0, [r8], {-0}
    1698:	000016a2 	andeq	r1, r0, r2, lsr #13
    169c:	000006d7 	ldrdeq	r0, [r0], -r7
    16a0:	d1122502 	tstle	r2, r2, lsl #10
    16a4:	04000006 	streq	r0, [r0], #-6
    16a8:	16b40c04 	ldrtne	r0, [r4], r4, lsl #24
    16ac:	06e70000 	strbteq	r0, [r7], r0
    16b0:	26020000 	strcs	r0, [r2], -r0
    16b4:	0006e012 	andeq	lr, r6, r2, lsl r0
    16b8:	0d080400 	cfstrseq	mvf0, [r8, #-0]
    16bc:	000016c0 	andeq	r1, r0, r0, asr #13
    16c0:	0012f51a 	andseq	pc, r2, sl, lsl r5	; <UNPREDICTABLE>
    16c4:	064b1b00 	strbeq	r1, [fp], -r0, lsl #22
    16c8:	b01b0000 	andslt	r0, fp, r0
    16cc:	00000005 	andeq	r0, r0, r5
    16d0:	0016d50d 	andseq	sp, r6, sp, lsl #10
    16d4:	13cf1a00 	bicne	r1, pc, #0, 20
    16d8:	4b1b0000 	blmi	6c16e0 <_end+0x6bd6d8>
    16dc:	1b000006 	blne	16fc <unwind_phase2_forced+0x3a>
    16e0:	000005b0 			; <UNDEFINED> instruction: 0x000005b0
    16e4:	0012f51b 	andseq	pc, r2, fp, lsl r5	; <UNPREDICTABLE>
    16e8:	ef0d0000 	svc	0x000d0000
    16ec:	1a000016 	bne	174c <unwind_phase2_forced+0x8a>
    16f0:	00001371 	andeq	r1, r0, r1, ror r3
    16f4:	00064b1b 	andeq	r4, r6, fp, lsl fp
    16f8:	12f51b00 	rscsne	r1, r5, #0, 22
    16fc:	001b0000 	andseq	r0, fp, r0
    1700:	1b000013 	blne	1754 <unwind_phase2_forced+0x92>
    1704:	00001300 	andeq	r1, r0, r0, lsl #6
    1708:	170e0d00 	strne	r0, [lr, -r0, lsl #26]
    170c:	b01a0000 	andslt	r0, sl, r0
    1710:	1b000005 	blne	172c <unwind_phase2_forced+0x6a>
    1714:	0000064b 	andeq	r0, r0, fp, asr #12
    1718:	0005b01b 	andeq	fp, r5, fp, lsl r0
    171c:	13711b00 	cmnne	r1, #0, 22
    1720:	001d0000 	andseq	r0, sp, r0
    1724:	0017290d 	andseq	r2, r7, sp, lsl #18
    1728:	05b01a00 	ldreq	r1, [r0, #2560]!	; 0xa00
    172c:	4b1b0000 	blmi	6c1734 <_end+0x6bd72c>
    1730:	1b000006 	blne	1750 <unwind_phase2_forced+0x8e>
    1734:	000005b0 			; <UNDEFINED> instruction: 0x000005b0
    1738:	0013711b 	andseq	r7, r3, fp, lsl r1
    173c:	15501b00 	ldrbne	r1, [r0, #-2816]	; 0xfffff500
    1740:	0d000000 	stceq	0, cr0, [r0, #-0]
    1744:	00001748 	andeq	r1, r0, r8, asr #14
    1748:	0005b01a 	andeq	fp, r5, sl, lsl r0
    174c:	064b1b00 	strbeq	r1, [fp], -r0, lsl #22
    1750:	b01b0000 	andslt	r0, fp, r0
    1754:	1b000005 	blne	1770 <unwind_phase2_forced+0xae>
    1758:	00001371 	andeq	r1, r0, r1, ror r3
    175c:	00159a1b 	andseq	r9, r5, fp, lsl sl
    1760:	670d0000 	strvs	r0, [sp, -r0]
    1764:	1a000017 	bne	17c8 <__gnu_Unwind_RaiseException+0x44>
    1768:	000013cf 	andeq	r1, r0, pc, asr #7
    176c:	00064b1b 	andeq	r4, r6, fp, lsl fp
    1770:	05b01b00 	ldreq	r1, [r0, #2816]!	; 0xb00
    1774:	711b0000 	tstvc	fp, r0
    1778:	1d000013 	stcne	0, cr0, [r0, #-76]	; 0xffffffb4
    177c:	17820d00 	strne	r0, [r2, r0, lsl #26]
    1780:	cf1a0000 	svcgt	0x001a0000
    1784:	1b000013 	blne	17d8 <__gnu_Unwind_RaiseException+0x54>
    1788:	0000064b 	andeq	r0, r0, fp, asr #12
    178c:	0005b01b 	andeq	fp, r5, fp, lsl r0
    1790:	13711b00 	cmnne	r1, #0, 22
    1794:	501b0000 	andspl	r0, fp, r0
    1798:	00000015 	andeq	r0, r0, r5, lsl r0
    179c:	0017a10d 	andseq	sl, r7, sp, lsl #2
    17a0:	13cf1a00 	bicne	r1, pc, #0, 20
    17a4:	4b1b0000 	blmi	6c17ac <_end+0x6bd7a4>
    17a8:	1b000006 	blne	17c8 <__gnu_Unwind_RaiseException+0x44>
    17ac:	000005b0 			; <UNDEFINED> instruction: 0x000005b0
    17b0:	0013711b 	andseq	r7, r3, fp, lsl r1
    17b4:	159a1b00 	ldrne	r1, [sl, #2816]	; 0xb00
    17b8:	0d000000 	stceq	0, cr0, [r0, #-0]
    17bc:	000017c0 	andeq	r1, r0, r0, asr #15
    17c0:	0013141a 	andseq	r1, r3, sl, lsl r4
    17c4:	064b1b00 	strbeq	r1, [fp], -r0, lsl #22
    17c8:	b01b0000 	andslt	r0, fp, r0
    17cc:	1b000005 	blne	17e8 <__gnu_Unwind_ForcedUnwind+0x2>
    17d0:	00001371 	andeq	r1, r0, r1, ror r3
    17d4:	db0d001d 	blle	341850 <_end+0x33d848>
    17d8:	1a000017 	bne	183c <__gnu_Unwind_Resume_or_Rethrow>
    17dc:	00001314 	andeq	r1, r0, r4, lsl r3
    17e0:	00064b1b 	andeq	r4, r6, fp, lsl fp
    17e4:	05b01b00 	ldreq	r1, [r0, #2816]!	; 0xb00
    17e8:	711b0000 	tstvc	fp, r0
    17ec:	1b000013 	blne	1840 <__gnu_Unwind_Resume_or_Rethrow+0x4>
    17f0:	00001550 	andeq	r1, r0, r0, asr r5
    17f4:	17fa0d00 	ldrbne	r0, [sl, r0, lsl #26]!
    17f8:	141a0000 	ldrne	r0, [sl], #-0
    17fc:	1b000013 	blne	1850 <_Unwind_DeleteException+0x2>
    1800:	0000064b 	andeq	r0, r0, fp, asr #12
    1804:	0005b01b 	andeq	fp, r5, fp, lsl r0
    1808:	13711b00 	cmnne	r1, #0, 22
    180c:	9a1b0000 	bls	6c1814 <_end+0x6bd80c>
    1810:	00000015 	andeq	r0, r0, r5, lsl r0
    1814:	0018190d 	andseq	r1, r8, sp, lsl #18
    1818:	161f1a00 	ldrne	r1, [pc], -r0, lsl #20
    181c:	4b1b0000 	blmi	6c1824 <_end+0x6bd81c>
    1820:	1b000006 	blne	1840 <__gnu_Unwind_Resume_or_Rethrow+0x4>
    1824:	000005b0 			; <UNDEFINED> instruction: 0x000005b0
    1828:	0013711b 	andseq	r7, r3, fp, lsl r1
    182c:	0d001d00 	stceq	13, cr1, [r0, #-0]
    1830:	00001834 	andeq	r1, r0, r4, lsr r8
    1834:	00161f1a 	andseq	r1, r6, sl, lsl pc
    1838:	064b1b00 	strbeq	r1, [fp], -r0, lsl #22
    183c:	b01b0000 	andslt	r0, fp, r0
    1840:	1b000005 	blne	185c <_Unwind_VRS_Get+0x2>
    1844:	00001371 	andeq	r1, r0, r1, ror r3
    1848:	0015501b 	andseq	r5, r5, fp, lsl r0
    184c:	530d0000 	movwpl	r0, #53248	; 0xd000
    1850:	1a000018 	bne	18b8 <_Unwind_VRS_Set+0x18>
    1854:	0000161f 	andeq	r1, r0, pc, lsl r6
    1858:	00064b1b 	andeq	r4, r6, fp, lsl fp
    185c:	05b01b00 	ldreq	r1, [r0, #2816]!	; 0xb00
    1860:	711b0000 	tstvc	fp, r0
    1864:	1b000013 	blne	18b8 <_Unwind_VRS_Set+0x18>
    1868:	0000159a 	muleq	r0, sl, r5
    186c:	18720d00 	ldmdane	r2!, {r8, sl, fp}^
    1870:	471a0000 	ldrmi	r0, [sl, -r0]
    1874:	1b000016 	blne	18d4 <_Unwind_SetGR+0x6>
    1878:	0000064b 	andeq	r0, r0, fp, asr #12
    187c:	0005b01b 	andeq	fp, r5, fp, lsl r0
    1880:	13711b00 	cmnne	r1, #0, 22
    1884:	001d0000 	andseq	r0, sp, r0
    1888:	00188d0d 	andseq	r8, r8, sp, lsl #26
    188c:	16471a00 	strbne	r1, [r7], -r0, lsl #20
    1890:	4b1b0000 	blmi	6c1898 <_end+0x6bd890>
    1894:	1b000006 	blne	18b4 <_Unwind_VRS_Set+0x14>
    1898:	000005b0 			; <UNDEFINED> instruction: 0x000005b0
    189c:	0013711b 	andseq	r7, r3, fp, lsl r1
    18a0:	15501b00 	ldrbne	r1, [r0, #-2816]	; 0xfffff500
    18a4:	0d000000 	stceq	0, cr0, [r0, #-0]
    18a8:	000018ac 	andeq	r1, r0, ip, lsr #17
    18ac:	0016471a 	andseq	r4, r6, sl, lsl r7
    18b0:	064b1b00 	strbeq	r1, [fp], -r0, lsl #22
    18b4:	b01b0000 	andslt	r0, fp, r0
    18b8:	1b000005 	blne	18d4 <_Unwind_SetGR+0x6>
    18bc:	00001371 	andeq	r1, r0, r1, ror r3
    18c0:	00159a1b 	andseq	r9, r5, fp, lsl sl
    18c4:	cb0d0000 	blgt	3418cc <_end+0x33d8c4>
    18c8:	1a000018 	bne	1930 <__gnu_Unwind_Backtrace+0x48>
    18cc:	000012b0 			; <UNDEFINED> instruction: 0x000012b0
    18d0:	00064b1b 	andeq	r4, r6, fp, lsl fp
    18d4:	05b01b00 	ldreq	r1, [r0, #2816]!	; 0xb00
    18d8:	711b0000 	tstvc	fp, r0
    18dc:	1d000013 	stcne	0, cr0, [r0, #-76]	; 0xffffffb4
    18e0:	18e60d00 	stmiane	r6!, {r8, sl, fp}^
    18e4:	b01a0000 	andslt	r0, sl, r0
    18e8:	1b000012 	blne	1938 <__gnu_Unwind_Backtrace+0x50>
    18ec:	0000064b 	andeq	r0, r0, fp, asr #12
    18f0:	0005b01b 	andeq	fp, r5, fp, lsl r0
    18f4:	13711b00 	cmnne	r1, #0, 22
    18f8:	501b0000 	andspl	r0, fp, r0
    18fc:	00000015 	andeq	r0, r0, r5, lsl r0
    1900:	0019050d 	andseq	r0, r9, sp, lsl #10
    1904:	12b01a00 	adcsne	r1, r0, #0, 20
    1908:	4b1b0000 	blmi	6c1910 <_end+0x6bd908>
    190c:	1b000006 	blne	192c <__gnu_Unwind_Backtrace+0x44>
    1910:	000005b0 			; <UNDEFINED> instruction: 0x000005b0
    1914:	0013711b 	andseq	r7, r3, fp, lsl r1
    1918:	159a1b00 	ldrne	r1, [sl, #2816]	; 0xb00
    191c:	0d000000 	stceq	0, cr0, [r0, #-0]
    1920:	00001924 	andeq	r1, r0, r4, lsr #18
    1924:	00166f1a 	andseq	r6, r6, sl, lsl pc
    1928:	064b1b00 	strbeq	r1, [fp], -r0, lsl #22
    192c:	b01b0000 	andslt	r0, fp, r0
    1930:	1b000005 	blne	194c <__gnu_Unwind_Backtrace+0x64>
    1934:	00001371 	andeq	r1, r0, r1, ror r3
    1938:	3f0d001d 	svccc	0x000d001d
    193c:	1a000019 	bne	19a8 <__gnu_unwind_pr_common+0x46>
    1940:	0000166f 	andeq	r1, r0, pc, ror #12
    1944:	00064b1b 	andeq	r4, r6, fp, lsl fp
    1948:	05b01b00 	ldreq	r1, [r0, #2816]!	; 0xb00
    194c:	711b0000 	tstvc	fp, r0
    1950:	1b000013 	blne	19a4 <__gnu_unwind_pr_common+0x42>
    1954:	00001550 	andeq	r1, r0, r0, asr r5
    1958:	195e0d00 	ldmdbne	lr, {r8, sl, fp}^
    195c:	6f1a0000 	svcvs	0x001a0000
    1960:	1b000016 	blne	19c0 <__gnu_unwind_pr_common+0x5e>
    1964:	0000064b 	andeq	r0, r0, fp, asr #12
    1968:	0005b01b 	andeq	fp, r5, fp, lsl r0
    196c:	13711b00 	cmnne	r1, #0, 22
    1970:	9a1b0000 	bls	6c1978 <_end+0x6bd970>
    1974:	00000015 	andeq	r0, r0, r5, lsl r0
    1978:	00197d0d 	andseq	r7, r9, sp, lsl #26
    197c:	16971a00 	ldrne	r1, [r7], r0, lsl #20
    1980:	4b1b0000 	blmi	6c1988 <_end+0x6bd980>
    1984:	1b000006 	blne	19a4 <__gnu_unwind_pr_common+0x42>
    1988:	000005b0 			; <UNDEFINED> instruction: 0x000005b0
    198c:	0013711b 	andseq	r7, r3, fp, lsl r1
    1990:	0d001d00 	stceq	13, cr1, [r0, #-0]
    1994:	00001998 	muleq	r0, r8, r9
    1998:	0016971a 	andseq	r9, r6, sl, lsl r7
    199c:	064b1b00 	strbeq	r1, [fp], -r0, lsl #22
    19a0:	b01b0000 	andslt	r0, fp, r0
    19a4:	1b000005 	blne	19c0 <__gnu_unwind_pr_common+0x5e>
    19a8:	00001371 	andeq	r1, r0, r1, ror r3
    19ac:	0015501b 	andseq	r5, r5, fp, lsl r0
    19b0:	b70d0000 	strlt	r0, [sp, -r0]
    19b4:	1a000019 	bne	1a20 <__gnu_unwind_pr_common+0xbe>
    19b8:	00001697 	muleq	r0, r7, r6
    19bc:	00064b1b 	andeq	r4, r6, fp, lsl fp
    19c0:	05b01b00 	ldreq	r1, [r0, #2816]!	; 0xb00
    19c4:	711b0000 	tstvc	fp, r0
    19c8:	1b000013 	blne	1a1c <__gnu_unwind_pr_common+0xba>
    19cc:	0000159a 	muleq	r0, sl, r5
    19d0:	19d60d00 	ldmibne	r6, {r8, sl, fp}^
    19d4:	a91a0000 	ldmdbge	sl, {}	; <UNPREDICTABLE>
    19d8:	1b000016 	blne	1a38 <__gnu_unwind_pr_common+0xd6>
    19dc:	0000064b 	andeq	r0, r0, fp, asr #12
    19e0:	0005b01b 	andeq	fp, r5, fp, lsl r0
    19e4:	13711b00 	cmnne	r1, #0, 22
    19e8:	001d0000 	andseq	r0, sp, r0
    19ec:	0019f10d 	andseq	pc, r9, sp, lsl #2
    19f0:	16a91a00 	strtne	r1, [r9], r0, lsl #20
    19f4:	4b1b0000 	blmi	6c19fc <_end+0x6bd9f4>
    19f8:	1b000006 	blne	1a18 <__gnu_unwind_pr_common+0xb6>
    19fc:	000005b0 			; <UNDEFINED> instruction: 0x000005b0
    1a00:	0013711b 	andseq	r7, r3, fp, lsl r1
    1a04:	15501b00 	ldrbne	r1, [r0, #-2816]	; 0xfffff500
    1a08:	0d000000 	stceq	0, cr0, [r0, #-0]
    1a0c:	00001a10 	andeq	r1, r0, r0, lsl sl
    1a10:	0016a91a 	andseq	sl, r6, sl, lsl r9
    1a14:	064b1b00 	strbeq	r1, [fp], -r0, lsl #22
    1a18:	b01b0000 	andslt	r0, fp, r0
    1a1c:	1b000005 	blne	1a38 <__gnu_unwind_pr_common+0xd6>
    1a20:	00001371 	andeq	r1, r0, r1, ror r3
    1a24:	00159a1b 	andseq	r9, r5, fp, lsl sl
    1a28:	2f0d0000 	svccs	0x000d0000
    1a2c:	1c00001a 	stcne	0, cr0, [r0], {26}
    1a30:	00064b1b 	andeq	r4, r6, fp, lsl fp
    1a34:	05b01b00 	ldreq	r1, [r0, #2816]!	; 0xb00
    1a38:	711b0000 	tstvc	fp, r0
    1a3c:	1d000013 	stcne	0, cr0, [r0, #-76]	; 0xffffffb4
    1a40:	1a460d00 	bne	1184e48 <_end+0x1180e40>
    1a44:	1b1c0000 	blne	701a4c <_end+0x6fda44>
    1a48:	0000064b 	andeq	r0, r0, fp, asr #12
    1a4c:	0005b01b 	andeq	fp, r5, fp, lsl r0
    1a50:	13711b00 	cmnne	r1, #0, 22
    1a54:	501b0000 	andspl	r0, fp, r0
    1a58:	00000015 	andeq	r0, r0, r5, lsl r0
    1a5c:	001a610d 	andseq	r6, sl, sp, lsl #2
    1a60:	4b1b1c00 	blmi	6c8a68 <_end+0x6c4a60>
    1a64:	1b000006 	blne	1a84 <__gnu_unwind_pr_common+0x122>
    1a68:	000005b0 			; <UNDEFINED> instruction: 0x000005b0
    1a6c:	0013711b 	andseq	r7, r3, fp, lsl r1
    1a70:	159a1b00 	ldrne	r1, [sl, #2816]	; 0xb00
    1a74:	0d000000 	stceq	0, cr0, [r0, #-0]
    1a78:	00001a7c 	andeq	r1, r0, ip, ror sl
    1a7c:	0005b01a 	andeq	fp, r5, sl, lsl r0
    1a80:	064b1b00 	strbeq	r1, [fp], -r0, lsl #22
    1a84:	b01b0000 	andslt	r0, fp, r0
    1a88:	1b000005 	blne	1aa4 <__gnu_unwind_pr_common+0x142>
    1a8c:	000012f5 	strdeq	r1, [r0], -r5
    1a90:	0013711b 	andseq	r7, r3, fp, lsl r1
    1a94:	0d001d00 	stceq	13, cr1, [r0, #-0]
    1a98:	00001a9c 	muleq	r0, ip, sl
    1a9c:	0005b01a 	andeq	fp, r5, sl, lsl r0
    1aa0:	064b1b00 	strbeq	r1, [fp], -r0, lsl #22
    1aa4:	b01b0000 	andslt	r0, fp, r0
    1aa8:	1b000005 	blne	1ac4 <__gnu_unwind_pr_common+0x162>
    1aac:	000012f5 	strdeq	r1, [r0], -r5
    1ab0:	0013711b 	andseq	r7, r3, fp, lsl r1
    1ab4:	15501b00 	ldrbne	r1, [r0, #-2816]	; 0xfffff500
    1ab8:	0d000000 	stceq	0, cr0, [r0, #-0]
    1abc:	00001ac0 	andeq	r1, r0, r0, asr #21
    1ac0:	0005b01a 	andeq	fp, r5, sl, lsl r0
    1ac4:	064b1b00 	strbeq	r1, [fp], -r0, lsl #22
    1ac8:	b01b0000 	andslt	r0, fp, r0
    1acc:	1b000005 	blne	1ae8 <__gnu_unwind_pr_common+0x186>
    1ad0:	000012f5 	strdeq	r1, [r0], -r5
    1ad4:	0013711b 	andseq	r7, r3, fp, lsl r1
    1ad8:	159a1b00 	ldrne	r1, [sl, #2816]	; 0xb00
    1adc:	0d000000 	stceq	0, cr0, [r0, #-0]
    1ae0:	00001ae4 	andeq	r1, r0, r4, ror #21
    1ae4:	0013cf1a 	andseq	ip, r3, sl, lsl pc
    1ae8:	064b1b00 	strbeq	r1, [fp], -r0, lsl #22
    1aec:	b01b0000 	andslt	r0, fp, r0
    1af0:	1b000005 	blne	1b0c <__gnu_unwind_pr_common+0x1aa>
    1af4:	000012f5 	strdeq	r1, [r0], -r5
    1af8:	0013711b 	andseq	r7, r3, fp, lsl r1
    1afc:	0d001d00 	stceq	13, cr1, [r0, #-0]
    1b00:	00001b04 	andeq	r1, r0, r4, lsl #22
    1b04:	0013cf1a 	andseq	ip, r3, sl, lsl pc
    1b08:	064b1b00 	strbeq	r1, [fp], -r0, lsl #22
    1b0c:	b01b0000 	andslt	r0, fp, r0
    1b10:	1b000005 	blne	1b2c <__gnu_unwind_pr_common+0x1ca>
    1b14:	000012f5 	strdeq	r1, [r0], -r5
    1b18:	0013711b 	andseq	r7, r3, fp, lsl r1
    1b1c:	15501b00 	ldrbne	r1, [r0, #-2816]	; 0xfffff500
    1b20:	0d000000 	stceq	0, cr0, [r0, #-0]
    1b24:	00001b28 	andeq	r1, r0, r8, lsr #22
    1b28:	0013cf1a 	andseq	ip, r3, sl, lsl pc
    1b2c:	064b1b00 	strbeq	r1, [fp], -r0, lsl #22
    1b30:	b01b0000 	andslt	r0, fp, r0
    1b34:	1b000005 	blne	1b50 <__gnu_unwind_pr_common+0x1ee>
    1b38:	000012f5 	strdeq	r1, [r0], -r5
    1b3c:	0013711b 	andseq	r7, r3, fp, lsl r1
    1b40:	159a1b00 	ldrne	r1, [sl, #2816]	; 0xb00
    1b44:	0d000000 	stceq	0, cr0, [r0, #-0]
    1b48:	00001b4c 	andeq	r1, r0, ip, asr #22
    1b4c:	0013141a 	andseq	r1, r3, sl, lsl r4
    1b50:	064b1b00 	strbeq	r1, [fp], -r0, lsl #22
    1b54:	b01b0000 	andslt	r0, fp, r0
    1b58:	1b000005 	blne	1b74 <__gnu_unwind_pr_common+0x212>
    1b5c:	000012f5 	strdeq	r1, [r0], -r5
    1b60:	0013711b 	andseq	r7, r3, fp, lsl r1
    1b64:	0d001d00 	stceq	13, cr1, [r0, #-0]
    1b68:	00001b6c 	andeq	r1, r0, ip, ror #22
    1b6c:	0013141a 	andseq	r1, r3, sl, lsl r4
    1b70:	064b1b00 	strbeq	r1, [fp], -r0, lsl #22
    1b74:	b01b0000 	andslt	r0, fp, r0
    1b78:	1b000005 	blne	1b94 <__gnu_unwind_pr_common+0x232>
    1b7c:	000012f5 	strdeq	r1, [r0], -r5
    1b80:	0013711b 	andseq	r7, r3, fp, lsl r1
    1b84:	15501b00 	ldrbne	r1, [r0, #-2816]	; 0xfffff500
    1b88:	0d000000 	stceq	0, cr0, [r0, #-0]
    1b8c:	00001b90 	muleq	r0, r0, fp
    1b90:	0013141a 	andseq	r1, r3, sl, lsl r4
    1b94:	064b1b00 	strbeq	r1, [fp], -r0, lsl #22
    1b98:	b01b0000 	andslt	r0, fp, r0
    1b9c:	1b000005 	blne	1bb8 <__gnu_unwind_pr_common+0x256>
    1ba0:	000012f5 	strdeq	r1, [r0], -r5
    1ba4:	0013711b 	andseq	r7, r3, fp, lsl r1
    1ba8:	159a1b00 	ldrne	r1, [sl, #2816]	; 0xb00
    1bac:	0d000000 	stceq	0, cr0, [r0, #-0]
    1bb0:	00001bb4 			; <UNDEFINED> instruction: 0x00001bb4
    1bb4:	00161f1a 	andseq	r1, r6, sl, lsl pc
    1bb8:	064b1b00 	strbeq	r1, [fp], -r0, lsl #22
    1bbc:	b01b0000 	andslt	r0, fp, r0
    1bc0:	1b000005 	blne	1bdc <_Unwind_VRS_Pop+0x4>
    1bc4:	000012f5 	strdeq	r1, [r0], -r5
    1bc8:	0013711b 	andseq	r7, r3, fp, lsl r1
    1bcc:	0d001d00 	stceq	13, cr1, [r0, #-0]
    1bd0:	00001bd4 	ldrdeq	r1, [r0], -r4
    1bd4:	00161f1a 	andseq	r1, r6, sl, lsl pc
    1bd8:	064b1b00 	strbeq	r1, [fp], -r0, lsl #22
    1bdc:	b01b0000 	andslt	r0, fp, r0
    1be0:	1b000005 	blne	1bfc <_Unwind_VRS_Pop+0x24>
    1be4:	000012f5 	strdeq	r1, [r0], -r5
    1be8:	0013711b 	andseq	r7, r3, fp, lsl r1
    1bec:	15501b00 	ldrbne	r1, [r0, #-2816]	; 0xfffff500
    1bf0:	0d000000 	stceq	0, cr0, [r0, #-0]
    1bf4:	00001bf8 	strdeq	r1, [r0], -r8
    1bf8:	00161f1a 	andseq	r1, r6, sl, lsl pc
    1bfc:	064b1b00 	strbeq	r1, [fp], -r0, lsl #22
    1c00:	b01b0000 	andslt	r0, fp, r0
    1c04:	1b000005 	blne	1c20 <_Unwind_VRS_Pop+0x48>
    1c08:	000012f5 	strdeq	r1, [r0], -r5
    1c0c:	0013711b 	andseq	r7, r3, fp, lsl r1
    1c10:	159a1b00 	ldrne	r1, [sl, #2816]	; 0xb00
    1c14:	0d000000 	stceq	0, cr0, [r0, #-0]
    1c18:	00001c1c 	andeq	r1, r0, ip, lsl ip
    1c1c:	0016471a 	andseq	r4, r6, sl, lsl r7
    1c20:	064b1b00 	strbeq	r1, [fp], -r0, lsl #22
    1c24:	b01b0000 	andslt	r0, fp, r0
    1c28:	1b000005 	blne	1c44 <_Unwind_VRS_Pop+0x6c>
    1c2c:	000012f5 	strdeq	r1, [r0], -r5
    1c30:	0013711b 	andseq	r7, r3, fp, lsl r1
    1c34:	0d001d00 	stceq	13, cr1, [r0, #-0]
    1c38:	00001c3c 	andeq	r1, r0, ip, lsr ip
    1c3c:	0016471a 	andseq	r4, r6, sl, lsl r7
    1c40:	064b1b00 	strbeq	r1, [fp], -r0, lsl #22
    1c44:	b01b0000 	andslt	r0, fp, r0
    1c48:	1b000005 	blne	1c64 <_Unwind_VRS_Pop+0x8c>
    1c4c:	000012f5 	strdeq	r1, [r0], -r5
    1c50:	0013711b 	andseq	r7, r3, fp, lsl r1
    1c54:	15501b00 	ldrbne	r1, [r0, #-2816]	; 0xfffff500
    1c58:	0d000000 	stceq	0, cr0, [r0, #-0]
    1c5c:	00001c60 	andeq	r1, r0, r0, ror #24
    1c60:	0016471a 	andseq	r4, r6, sl, lsl r7
    1c64:	064b1b00 	strbeq	r1, [fp], -r0, lsl #22
    1c68:	b01b0000 	andslt	r0, fp, r0
    1c6c:	1b000005 	blne	1c88 <_Unwind_VRS_Pop+0xb0>
    1c70:	000012f5 	strdeq	r1, [r0], -r5
    1c74:	0013711b 	andseq	r7, r3, fp, lsl r1
    1c78:	159a1b00 	ldrne	r1, [sl, #2816]	; 0xb00
    1c7c:	0d000000 	stceq	0, cr0, [r0, #-0]
    1c80:	00001c84 	andeq	r1, r0, r4, lsl #25
    1c84:	0012b01a 	andseq	fp, r2, sl, lsl r0
    1c88:	064b1b00 	strbeq	r1, [fp], -r0, lsl #22
    1c8c:	b01b0000 	andslt	r0, fp, r0
    1c90:	1b000005 	blne	1cac <_Unwind_VRS_Pop+0xd4>
    1c94:	000012f5 	strdeq	r1, [r0], -r5
    1c98:	0013711b 	andseq	r7, r3, fp, lsl r1
    1c9c:	0d001d00 	stceq	13, cr1, [r0, #-0]
    1ca0:	00001ca4 	andeq	r1, r0, r4, lsr #25
    1ca4:	0012b01a 	andseq	fp, r2, sl, lsl r0
    1ca8:	064b1b00 	strbeq	r1, [fp], -r0, lsl #22
    1cac:	b01b0000 	andslt	r0, fp, r0
    1cb0:	1b000005 	blne	1ccc <_Unwind_VRS_Pop+0xf4>
    1cb4:	000012f5 	strdeq	r1, [r0], -r5
    1cb8:	0013711b 	andseq	r7, r3, fp, lsl r1
    1cbc:	15501b00 	ldrbne	r1, [r0, #-2816]	; 0xfffff500
    1cc0:	0d000000 	stceq	0, cr0, [r0, #-0]
    1cc4:	00001cc8 	andeq	r1, r0, r8, asr #25
    1cc8:	0012b01a 	andseq	fp, r2, sl, lsl r0
    1ccc:	064b1b00 	strbeq	r1, [fp], -r0, lsl #22
    1cd0:	b01b0000 	andslt	r0, fp, r0
    1cd4:	1b000005 	blne	1cf0 <_Unwind_VRS_Pop+0x118>
    1cd8:	000012f5 	strdeq	r1, [r0], -r5
    1cdc:	0013711b 	andseq	r7, r3, fp, lsl r1
    1ce0:	159a1b00 	ldrne	r1, [sl, #2816]	; 0xb00
    1ce4:	0d000000 	stceq	0, cr0, [r0, #-0]
    1ce8:	00001cec 	andeq	r1, r0, ip, ror #25
    1cec:	00166f1a 	andseq	r6, r6, sl, lsl pc
    1cf0:	064b1b00 	strbeq	r1, [fp], -r0, lsl #22
    1cf4:	b01b0000 	andslt	r0, fp, r0
    1cf8:	1b000005 	blne	1d14 <_Unwind_VRS_Pop+0x13c>
    1cfc:	000012f5 	strdeq	r1, [r0], -r5
    1d00:	0013711b 	andseq	r7, r3, fp, lsl r1
    1d04:	0d001d00 	stceq	13, cr1, [r0, #-0]
    1d08:	00001d0c 	andeq	r1, r0, ip, lsl #26
    1d0c:	00166f1a 	andseq	r6, r6, sl, lsl pc
    1d10:	064b1b00 	strbeq	r1, [fp], -r0, lsl #22
    1d14:	b01b0000 	andslt	r0, fp, r0
    1d18:	1b000005 	blne	1d34 <_Unwind_VRS_Pop+0x15c>
    1d1c:	000012f5 	strdeq	r1, [r0], -r5
    1d20:	0013711b 	andseq	r7, r3, fp, lsl r1
    1d24:	15501b00 	ldrbne	r1, [r0, #-2816]	; 0xfffff500
    1d28:	0d000000 	stceq	0, cr0, [r0, #-0]
    1d2c:	00001d30 	andeq	r1, r0, r0, lsr sp
    1d30:	00166f1a 	andseq	r6, r6, sl, lsl pc
    1d34:	064b1b00 	strbeq	r1, [fp], -r0, lsl #22
    1d38:	b01b0000 	andslt	r0, fp, r0
    1d3c:	1b000005 	blne	1d58 <_Unwind_VRS_Pop+0x180>
    1d40:	000012f5 	strdeq	r1, [r0], -r5
    1d44:	0013711b 	andseq	r7, r3, fp, lsl r1
    1d48:	159a1b00 	ldrne	r1, [sl, #2816]	; 0xb00
    1d4c:	0d000000 	stceq	0, cr0, [r0, #-0]
    1d50:	00001d54 	andeq	r1, r0, r4, asr sp
    1d54:	0016971a 	andseq	r9, r6, sl, lsl r7
    1d58:	064b1b00 	strbeq	r1, [fp], -r0, lsl #22
    1d5c:	b01b0000 	andslt	r0, fp, r0
    1d60:	1b000005 	blne	1d7c <_Unwind_VRS_Pop+0x1a4>
    1d64:	000012f5 	strdeq	r1, [r0], -r5
    1d68:	0013711b 	andseq	r7, r3, fp, lsl r1
    1d6c:	0d001d00 	stceq	13, cr1, [r0, #-0]
    1d70:	00001d74 	andeq	r1, r0, r4, ror sp
    1d74:	0016971a 	andseq	r9, r6, sl, lsl r7
    1d78:	064b1b00 	strbeq	r1, [fp], -r0, lsl #22
    1d7c:	b01b0000 	andslt	r0, fp, r0
    1d80:	1b000005 	blne	1d9c <_Unwind_VRS_Pop+0x1c4>
    1d84:	000012f5 	strdeq	r1, [r0], -r5
    1d88:	0013711b 	andseq	r7, r3, fp, lsl r1
    1d8c:	15501b00 	ldrbne	r1, [r0, #-2816]	; 0xfffff500
    1d90:	0d000000 	stceq	0, cr0, [r0, #-0]
    1d94:	00001d98 	muleq	r0, r8, sp
    1d98:	0016971a 	andseq	r9, r6, sl, lsl r7
    1d9c:	064b1b00 	strbeq	r1, [fp], -r0, lsl #22
    1da0:	b01b0000 	andslt	r0, fp, r0
    1da4:	1b000005 	blne	1dc0 <_Unwind_VRS_Pop+0x1e8>
    1da8:	000012f5 	strdeq	r1, [r0], -r5
    1dac:	0013711b 	andseq	r7, r3, fp, lsl r1
    1db0:	159a1b00 	ldrne	r1, [sl, #2816]	; 0xb00
    1db4:	0d000000 	stceq	0, cr0, [r0, #-0]
    1db8:	00001dbc 			; <UNDEFINED> instruction: 0x00001dbc
    1dbc:	0016a91a 	andseq	sl, r6, sl, lsl r9
    1dc0:	064b1b00 	strbeq	r1, [fp], -r0, lsl #22
    1dc4:	b01b0000 	andslt	r0, fp, r0
    1dc8:	1b000005 	blne	1de4 <_Unwind_VRS_Pop+0x20c>
    1dcc:	000012f5 	strdeq	r1, [r0], -r5
    1dd0:	0013711b 	andseq	r7, r3, fp, lsl r1
    1dd4:	0d001d00 	stceq	13, cr1, [r0, #-0]
    1dd8:	00001ddc 	ldrdeq	r1, [r0], -ip
    1ddc:	0016a91a 	andseq	sl, r6, sl, lsl r9
    1de0:	064b1b00 	strbeq	r1, [fp], -r0, lsl #22
    1de4:	b01b0000 	andslt	r0, fp, r0
    1de8:	1b000005 	blne	1e04 <_Unwind_VRS_Pop+0x22c>
    1dec:	000012f5 	strdeq	r1, [r0], -r5
    1df0:	0013711b 	andseq	r7, r3, fp, lsl r1
    1df4:	15501b00 	ldrbne	r1, [r0, #-2816]	; 0xfffff500
    1df8:	0d000000 	stceq	0, cr0, [r0, #-0]
    1dfc:	00001e00 	andeq	r1, r0, r0, lsl #28
    1e00:	0016a91a 	andseq	sl, r6, sl, lsl r9
    1e04:	064b1b00 	strbeq	r1, [fp], -r0, lsl #22
    1e08:	b01b0000 	andslt	r0, fp, r0
    1e0c:	1b000005 	blne	1e28 <__gnu_Unwind_Save_VFP>
    1e10:	000012f5 	strdeq	r1, [r0], -r5
    1e14:	0013711b 	andseq	r7, r3, fp, lsl r1
    1e18:	159a1b00 	ldrne	r1, [sl, #2816]	; 0xb00
    1e1c:	0d000000 	stceq	0, cr0, [r0, #-0]
    1e20:	00001e24 	andeq	r1, r0, r4, lsr #28
    1e24:	064b1b1c 			; <UNDEFINED> instruction: 0x064b1b1c
    1e28:	b01b0000 	andslt	r0, fp, r0
    1e2c:	1b000005 	blne	1e48 <__gnu_Unwind_Save_VFP_D_16_to_31>
    1e30:	000012f5 	strdeq	r1, [r0], -r5
    1e34:	0013711b 	andseq	r7, r3, fp, lsl r1
    1e38:	0d001d00 	stceq	13, cr1, [r0, #-0]
    1e3c:	00001e40 	andeq	r1, r0, r0, asr #28
    1e40:	064b1b1c 			; <UNDEFINED> instruction: 0x064b1b1c
    1e44:	b01b0000 	andslt	r0, fp, r0
    1e48:	1b000005 	blne	1e64 <__gnu_Unwind_Restore_WMMXD+0x14>
    1e4c:	000012f5 	strdeq	r1, [r0], -r5
    1e50:	0013711b 	andseq	r7, r3, fp, lsl r1
    1e54:	15501b00 	ldrbne	r1, [r0, #-2816]	; 0xfffff500
    1e58:	0d000000 	stceq	0, cr0, [r0, #-0]
    1e5c:	00001e60 	andeq	r1, r0, r0, ror #28
    1e60:	064b1b1c 			; <UNDEFINED> instruction: 0x064b1b1c
    1e64:	b01b0000 	andslt	r0, fp, r0
    1e68:	1b000005 	blne	1e84 <__gnu_Unwind_Restore_WMMXD+0x34>
    1e6c:	000012f5 	strdeq	r1, [r0], -r5
    1e70:	0013711b 	andseq	r7, r3, fp, lsl r1
    1e74:	159a1b00 	ldrne	r1, [sl, #2816]	; 0xb00
    1e78:	0d000000 	stceq	0, cr0, [r0, #-0]
    1e7c:	00001e80 	andeq	r1, r0, r0, lsl #29
    1e80:	00139b1a 	andseq	r9, r3, sl, lsl fp
    1e84:	064b1b00 	strbeq	r1, [fp], -r0, lsl #22
    1e88:	f51b0000 			; <UNDEFINED> instruction: 0xf51b0000
    1e8c:	1b000012 	blne	1edc <__gnu_Unwind_Restore_WMMXC+0x4>
    1e90:	00001300 	andeq	r1, r0, r0, lsl #6
    1e94:	0013001b 	andseq	r0, r3, fp, lsl r0
    1e98:	9f0d0000 	svcls	0x000d0000
    1e9c:	1a00001e 	bne	1f1c <_Unwind_RaiseException+0x1c>
    1ea0:	000005b0 			; <UNDEFINED> instruction: 0x000005b0
    1ea4:	00064b1b 	andeq	r4, r6, fp, lsl fp
    1ea8:	05b01b00 	ldreq	r1, [r0, #2816]!	; 0xb00
    1eac:	9b1b0000 	blls	6c1eb4 <_end+0x6bdeac>
    1eb0:	00000013 	andeq	r0, r0, r3, lsl r0
    1eb4:	001eb90d 	andseq	fp, lr, sp, lsl #18
    1eb8:	13cf1a00 	bicne	r1, pc, #0, 20
    1ebc:	4b1b0000 	blmi	6c1ec4 <_end+0x6bdebc>
    1ec0:	1b000006 	blne	1ee0 <__gnu_Unwind_Restore_WMMXC+0x8>
    1ec4:	000005b0 			; <UNDEFINED> instruction: 0x000005b0
    1ec8:	00139b1b 	andseq	r9, r3, fp, lsl fp
    1ecc:	d30d0000 	movwle	r0, #53248	; 0xd000
    1ed0:	1a00001e 	bne	1f50 <_Unwind_Resume_or_Rethrow+0x8>
    1ed4:	00001314 	andeq	r1, r0, r4, lsl r3
    1ed8:	00064b1b 	andeq	r4, r6, fp, lsl fp
    1edc:	05b01b00 	ldreq	r1, [r0, #2816]!	; 0xb00
    1ee0:	9b1b0000 	blls	6c1ee8 <_end+0x6bdee0>
    1ee4:	00000013 	andeq	r0, r0, r3, lsl r0
    1ee8:	001eed0d 	andseq	lr, lr, sp, lsl #26
    1eec:	161f1a00 	ldrne	r1, [pc], -r0, lsl #20
    1ef0:	4b1b0000 	blmi	6c1ef8 <_end+0x6bdef0>
    1ef4:	1b000006 	blne	1f14 <_Unwind_RaiseException+0x14>
    1ef8:	000005b0 			; <UNDEFINED> instruction: 0x000005b0
    1efc:	00139b1b 	andseq	r9, r3, fp, lsl fp
    1f00:	070d0000 	streq	r0, [sp, -r0]
    1f04:	1a00001f 	bne	1f88 <_Unwind_ForcedUnwind+0x1c>
    1f08:	00001647 	andeq	r1, r0, r7, asr #12
    1f0c:	00064b1b 	andeq	r4, r6, fp, lsl fp
    1f10:	05b01b00 	ldreq	r1, [r0, #2816]!	; 0xb00
    1f14:	9b1b0000 	blls	6c1f1c <_end+0x6bdf14>
    1f18:	00000013 	andeq	r0, r0, r3, lsl r0
    1f1c:	001f210d 	andseq	r2, pc, sp, lsl #2
    1f20:	12b01a00 	adcsne	r1, r0, #0, 20
    1f24:	4b1b0000 	blmi	6c1f2c <_end+0x6bdf24>
    1f28:	1b000006 	blne	1f48 <_Unwind_Resume_or_Rethrow>
    1f2c:	000005b0 			; <UNDEFINED> instruction: 0x000005b0
    1f30:	00139b1b 	andseq	r9, r3, fp, lsl fp
    1f34:	3b0d0000 	blcc	341f3c <_end+0x33df34>
    1f38:	1a00001f 	bne	1fbc <next_unwind_byte+0x8>
    1f3c:	0000166f 	andeq	r1, r0, pc, ror #12
    1f40:	00064b1b 	andeq	r4, r6, fp, lsl fp
    1f44:	05b01b00 	ldreq	r1, [r0, #2816]!	; 0xb00
    1f48:	9b1b0000 	blls	6c1f50 <_end+0x6bdf48>
    1f4c:	00000013 	andeq	r0, r0, r3, lsl r0
    1f50:	001f550d 	andseq	r5, pc, sp, lsl #10
    1f54:	16971a00 	ldrne	r1, [r7], r0, lsl #20
    1f58:	4b1b0000 	blmi	6c1f60 <_end+0x6bdf58>
    1f5c:	1b000006 	blne	1f7c <_Unwind_ForcedUnwind+0x10>
    1f60:	000005b0 			; <UNDEFINED> instruction: 0x000005b0
    1f64:	00139b1b 	andseq	r9, r3, fp, lsl fp
    1f68:	6f0d0000 	svcvs	0x000d0000
    1f6c:	1a00001f 	bne	1ff0 <_Unwind_GetGR.constprop.0+0x10>
    1f70:	000016a9 	andeq	r1, r0, r9, lsr #13
    1f74:	00064b1b 	andeq	r4, r6, fp, lsl fp
    1f78:	05b01b00 	ldreq	r1, [r0, #2816]!	; 0xb00
    1f7c:	9b1b0000 	blls	6c1f84 <_end+0x6bdf7c>
    1f80:	00000013 	andeq	r0, r0, r3, lsl r0
    1f84:	001f890d 	andseq	r8, pc, sp, lsl #18
    1f88:	4b1b1c00 	blmi	6c8f90 <_end+0x6c4f88>
    1f8c:	1b000006 	blne	1fac <_Unwind_Backtrace+0x1c>
    1f90:	000005b0 			; <UNDEFINED> instruction: 0x000005b0
    1f94:	00139b1b 	andseq	r9, r3, fp, lsl fp
    1f98:	05b01b00 	ldreq	r1, [r0, #2816]!	; 0xb00
    1f9c:	0d000000 	stceq	0, cr0, [r0, #-0]
    1fa0:	00001fa4 	andeq	r1, r0, r4, lsr #31
    1fa4:	064b1b1c 			; <UNDEFINED> instruction: 0x064b1b1c
    1fa8:	b01b0000 	andslt	r0, fp, r0
    1fac:	1b000005 	blne	1fc8 <next_unwind_byte+0x14>
    1fb0:	0000139b 	muleq	r0, fp, r3
    1fb4:	0013cf1b 	andseq	ip, r3, fp, lsl pc
    1fb8:	bf0d0000 	svclt	0x000d0000
    1fbc:	1c00001f 	stcne	0, cr0, [r0], {31}
    1fc0:	00064b1b 	andeq	r4, r6, fp, lsl fp
    1fc4:	05b01b00 	ldreq	r1, [r0, #2816]!	; 0xb00
    1fc8:	9b1b0000 	blls	6c1fd0 <_end+0x6bdfc8>
    1fcc:	1b000013 	blne	2020 <__gnu_unwind_execute+0x26>
    1fd0:	00001314 	andeq	r1, r0, r4, lsl r3
    1fd4:	1fda0d00 	svcne	0x00da0d00
    1fd8:	1b1c0000 	blne	701fe0 <_end+0x6fdfd8>
    1fdc:	0000064b 	andeq	r0, r0, fp, asr #12
    1fe0:	0005b01b 	andeq	fp, r5, fp, lsl r0
    1fe4:	139b1b00 	orrsne	r1, fp, #0, 22
    1fe8:	1f1b0000 	svcne	0x001b0000
    1fec:	00000016 	andeq	r0, r0, r6, lsl r0
    1ff0:	001ff50d 	andseq	pc, pc, sp, lsl #10
    1ff4:	4b1b1c00 	blmi	6c8ffc <_end+0x6c4ff4>
    1ff8:	1b000006 	blne	2018 <__gnu_unwind_execute+0x1e>
    1ffc:	000005b0 			; <UNDEFINED> instruction: 0x000005b0
    2000:	00139b1b 	andseq	r9, r3, fp, lsl fp
    2004:	16471b00 	strbne	r1, [r7], -r0, lsl #22
    2008:	0d000000 	stceq	0, cr0, [r0, #-0]
    200c:	00002010 	andeq	r2, r0, r0, lsl r0
    2010:	064b1b1c 			; <UNDEFINED> instruction: 0x064b1b1c
    2014:	b01b0000 	andslt	r0, fp, r0
    2018:	1b000005 	blne	2034 <__gnu_unwind_execute+0x3a>
    201c:	0000139b 	muleq	r0, fp, r3
    2020:	0012b01b 	andseq	fp, r2, fp, lsl r0
    2024:	2b0d0000 	blcs	34202c <_end+0x33e024>
    2028:	1c000020 	stcne	0, cr0, [r0], {32}
    202c:	00064b1b 	andeq	r4, r6, fp, lsl fp
    2030:	05b01b00 	ldreq	r1, [r0, #2816]!	; 0xb00
    2034:	9b1b0000 	blls	6c203c <_end+0x6be034>
    2038:	1b000013 	blne	208c <__gnu_unwind_execute+0x92>
    203c:	0000166f 	andeq	r1, r0, pc, ror #12
    2040:	20460d00 	subcs	r0, r6, r0, lsl #26
    2044:	1b1c0000 	blne	70204c <_end+0x6fe044>
    2048:	0000064b 	andeq	r0, r0, fp, asr #12
    204c:	0005b01b 	andeq	fp, r5, fp, lsl r0
    2050:	139b1b00 	orrsne	r1, fp, #0, 22
    2054:	971b0000 	ldrls	r0, [fp, -r0]
    2058:	00000016 	andeq	r0, r0, r6, lsl r0
    205c:	0020610d 	eoreq	r6, r0, sp, lsl #2
    2060:	4b1b1c00 	blmi	6c9068 <_end+0x6c5060>
    2064:	1b000006 	blne	2084 <__gnu_unwind_execute+0x8a>
    2068:	000005b0 			; <UNDEFINED> instruction: 0x000005b0
    206c:	00139b1b 	andseq	r9, r3, fp, lsl fp
    2070:	16a91b00 	strtne	r1, [r9], r0, lsl #22
    2074:	0d000000 	stceq	0, cr0, [r0, #-0]
    2078:	0000207c 	andeq	r2, r0, ip, ror r0
    207c:	0013cf1a 	andseq	ip, r3, sl, lsl pc
    2080:	064b1b00 	strbeq	r1, [fp], -r0, lsl #22
    2084:	f51b0000 			; <UNDEFINED> instruction: 0xf51b0000
    2088:	1b000012 	blne	20d8 <__gnu_unwind_execute+0xde>
    208c:	00001371 	andeq	r1, r0, r1, ror r3
    2090:	970d001d 	smladls	sp, sp, r0, r0
    2094:	1a000020 	bne	211c <__gnu_unwind_execute+0x122>
    2098:	000013cf 	andeq	r1, r0, pc, asr #7
    209c:	00064b1b 	andeq	r4, r6, fp, lsl fp
    20a0:	12f51b00 	rscsne	r1, r5, #0, 22
    20a4:	711b0000 	tstvc	fp, r0
    20a8:	1b000013 	blne	20fc <__gnu_unwind_execute+0x102>
    20ac:	00001550 	andeq	r1, r0, r0, asr r5
    20b0:	20b60d00 	adcscs	r0, r6, r0, lsl #26
    20b4:	cf1a0000 	svcgt	0x001a0000
    20b8:	1b000013 	blne	210c <__gnu_unwind_execute+0x112>
    20bc:	0000064b 	andeq	r0, r0, fp, asr #12
    20c0:	0012f51b 	andseq	pc, r2, fp, lsl r5	; <UNPREDICTABLE>
    20c4:	13711b00 	cmnne	r1, #0, 22
    20c8:	9a1b0000 	bls	6c20d0 <_end+0x6be0c8>
    20cc:	00000015 	andeq	r0, r0, r5, lsl r0
    20d0:	0020d50d 	eoreq	sp, r0, sp, lsl #10
    20d4:	13141a00 	tstne	r4, #0, 20
    20d8:	4b1b0000 	blmi	6c20e0 <_end+0x6be0d8>
    20dc:	1b000006 	blne	20fc <__gnu_unwind_execute+0x102>
    20e0:	000012f5 	strdeq	r1, [r0], -r5
    20e4:	0013711b 	andseq	r7, r3, fp, lsl r1
    20e8:	0d001d00 	stceq	13, cr1, [r0, #-0]
    20ec:	000020f0 	strdeq	r2, [r0], -r0
    20f0:	0013141a 	andseq	r1, r3, sl, lsl r4
    20f4:	064b1b00 	strbeq	r1, [fp], -r0, lsl #22
    20f8:	f51b0000 			; <UNDEFINED> instruction: 0xf51b0000
    20fc:	1b000012 	blne	214c <__gnu_unwind_execute+0x152>
    2100:	00001371 	andeq	r1, r0, r1, ror r3
    2104:	0015501b 	andseq	r5, r5, fp, lsl r0
    2108:	0f0d0000 	svceq	0x000d0000
    210c:	1a000021 	bne	2198 <__gnu_unwind_execute+0x19e>
    2110:	00001314 	andeq	r1, r0, r4, lsl r3
    2114:	00064b1b 	andeq	r4, r6, fp, lsl fp
    2118:	12f51b00 	rscsne	r1, r5, #0, 22
    211c:	711b0000 	tstvc	fp, r0
    2120:	1b000013 	blne	2174 <__gnu_unwind_execute+0x17a>
    2124:	0000159a 	muleq	r0, sl, r5
    2128:	212e0d00 			; <UNDEFINED> instruction: 0x212e0d00
    212c:	1f1a0000 	svcne	0x001a0000
    2130:	1b000016 	blne	2190 <__gnu_unwind_execute+0x196>
    2134:	0000064b 	andeq	r0, r0, fp, asr #12
    2138:	0012f51b 	andseq	pc, r2, fp, lsl r5	; <UNPREDICTABLE>
    213c:	13711b00 	cmnne	r1, #0, 22
    2140:	001d0000 	andseq	r0, sp, r0
    2144:	0021490d 	eoreq	r4, r1, sp, lsl #18
    2148:	161f1a00 	ldrne	r1, [pc], -r0, lsl #20
    214c:	4b1b0000 	blmi	6c2154 <_end+0x6be14c>
    2150:	1b000006 	blne	2170 <__gnu_unwind_execute+0x176>
    2154:	000012f5 	strdeq	r1, [r0], -r5
    2158:	0013711b 	andseq	r7, r3, fp, lsl r1
    215c:	15501b00 	ldrbne	r1, [r0, #-2816]	; 0xfffff500
    2160:	0d000000 	stceq	0, cr0, [r0, #-0]
    2164:	00002168 	andeq	r2, r0, r8, ror #2
    2168:	00161f1a 	andseq	r1, r6, sl, lsl pc
    216c:	064b1b00 	strbeq	r1, [fp], -r0, lsl #22
    2170:	f51b0000 			; <UNDEFINED> instruction: 0xf51b0000
    2174:	1b000012 	blne	21c4 <__gnu_unwind_execute+0x1ca>
    2178:	00001371 	andeq	r1, r0, r1, ror r3
    217c:	00159a1b 	andseq	r9, r5, fp, lsl sl
    2180:	870d0000 	strhi	r0, [sp, -r0]
    2184:	1a000021 	bne	2210 <__gnu_unwind_execute+0x216>
    2188:	00001647 	andeq	r1, r0, r7, asr #12
    218c:	00064b1b 	andeq	r4, r6, fp, lsl fp
    2190:	12f51b00 	rscsne	r1, r5, #0, 22
    2194:	711b0000 	tstvc	fp, r0
    2198:	1d000013 	stcne	0, cr0, [r0, #-76]	; 0xffffffb4
    219c:	21a20d00 			; <UNDEFINED> instruction: 0x21a20d00
    21a0:	471a0000 	ldrmi	r0, [sl, -r0]
    21a4:	1b000016 	blne	2204 <__gnu_unwind_execute+0x20a>
    21a8:	0000064b 	andeq	r0, r0, fp, asr #12
    21ac:	0012f51b 	andseq	pc, r2, fp, lsl r5	; <UNPREDICTABLE>
    21b0:	13711b00 	cmnne	r1, #0, 22
    21b4:	501b0000 	andspl	r0, fp, r0
    21b8:	00000015 	andeq	r0, r0, r5, lsl r0
    21bc:	0021c10d 	eoreq	ip, r1, sp, lsl #2
    21c0:	16471a00 	strbne	r1, [r7], -r0, lsl #20
    21c4:	4b1b0000 	blmi	6c21cc <_end+0x6be1c4>
    21c8:	1b000006 	blne	21e8 <__gnu_unwind_execute+0x1ee>
    21cc:	000012f5 	strdeq	r1, [r0], -r5
    21d0:	0013711b 	andseq	r7, r3, fp, lsl r1
    21d4:	159a1b00 	ldrne	r1, [sl, #2816]	; 0xb00
    21d8:	0d000000 	stceq	0, cr0, [r0, #-0]
    21dc:	000021e0 	andeq	r2, r0, r0, ror #3
    21e0:	0012b01a 	andseq	fp, r2, sl, lsl r0
    21e4:	064b1b00 	strbeq	r1, [fp], -r0, lsl #22
    21e8:	f51b0000 			; <UNDEFINED> instruction: 0xf51b0000
    21ec:	1b000012 	blne	223c <__gnu_unwind_execute+0x242>
    21f0:	00001371 	andeq	r1, r0, r1, ror r3
    21f4:	fb0d001d 	blx	342272 <_end+0x33e26a>
    21f8:	1a000021 	bne	2284 <__gnu_unwind_frame+0x14>
    21fc:	000012b0 			; <UNDEFINED> instruction: 0x000012b0
    2200:	00064b1b 	andeq	r4, r6, fp, lsl fp
    2204:	12f51b00 	rscsne	r1, r5, #0, 22
    2208:	711b0000 	tstvc	fp, r0
    220c:	1b000013 	blne	2260 <__gnu_unwind_execute+0x266>
    2210:	00001550 	andeq	r1, r0, r0, asr r5
    2214:	221a0d00 	andscs	r0, sl, #0, 26
    2218:	b01a0000 	andslt	r0, sl, r0
    221c:	1b000012 	blne	226c <__gnu_unwind_execute+0x272>
    2220:	0000064b 	andeq	r0, r0, fp, asr #12
    2224:	0012f51b 	andseq	pc, r2, fp, lsl r5	; <UNPREDICTABLE>
    2228:	13711b00 	cmnne	r1, #0, 22
    222c:	9a1b0000 	bls	6c2234 <_end+0x6be22c>
    2230:	00000015 	andeq	r0, r0, r5, lsl r0
    2234:	0022390d 	eoreq	r3, r2, sp, lsl #18
    2238:	166f1a00 	strbtne	r1, [pc], -r0, lsl #20
    223c:	4b1b0000 	blmi	6c2244 <_end+0x6be23c>
    2240:	1b000006 	blne	2260 <__gnu_unwind_execute+0x266>
    2244:	000012f5 	strdeq	r1, [r0], -r5
    2248:	0013711b 	andseq	r7, r3, fp, lsl r1
    224c:	0d001d00 	stceq	13, cr1, [r0, #-0]
    2250:	00002254 	andeq	r2, r0, r4, asr r2
    2254:	00166f1a 	andseq	r6, r6, sl, lsl pc
    2258:	064b1b00 	strbeq	r1, [fp], -r0, lsl #22
    225c:	f51b0000 			; <UNDEFINED> instruction: 0xf51b0000
    2260:	1b000012 	blne	22b0 <_Unwind_GetLanguageSpecificData+0xc>
    2264:	00001371 	andeq	r1, r0, r1, ror r3
    2268:	0015501b 	andseq	r5, r5, fp, lsl r0
    226c:	730d0000 	movwvc	r0, #53248	; 0xd000
    2270:	1a000022 	bne	2300 <__exidx_start>
    2274:	0000166f 	andeq	r1, r0, pc, ror #12
    2278:	00064b1b 	andeq	r4, r6, fp, lsl fp
    227c:	12f51b00 	rscsne	r1, r5, #0, 22
    2280:	711b0000 	tstvc	fp, r0
    2284:	1b000013 	blne	22d8 <_Unwind_GetTextRelBase+0x1c>
    2288:	0000159a 	muleq	r0, sl, r5
    228c:	22920d00 	addscs	r0, r2, #0, 26
    2290:	971a0000 	ldrls	r0, [sl, -r0]
    2294:	1b000016 	blne	22f4 <_Unwind_GetTextRelBase+0x38>
    2298:	0000064b 	andeq	r0, r0, fp, asr #12
    229c:	0012f51b 	andseq	pc, r2, fp, lsl r5	; <UNPREDICTABLE>
    22a0:	13711b00 	cmnne	r1, #0, 22
    22a4:	001d0000 	andseq	r0, sp, r0
    22a8:	0022ad0d 	eoreq	sl, r2, sp, lsl #26
    22ac:	16971a00 	ldrne	r1, [r7], r0, lsl #20
    22b0:	4b1b0000 	blmi	6c22b8 <_end+0x6be2b0>
    22b4:	1b000006 	blne	22d4 <_Unwind_GetTextRelBase+0x18>
    22b8:	000012f5 	strdeq	r1, [r0], -r5
    22bc:	0013711b 	andseq	r7, r3, fp, lsl r1
    22c0:	15501b00 	ldrbne	r1, [r0, #-2816]	; 0xfffff500
    22c4:	0d000000 	stceq	0, cr0, [r0, #-0]
    22c8:	000022cc 	andeq	r2, r0, ip, asr #5
    22cc:	0016971a 	andseq	r9, r6, sl, lsl r7
    22d0:	064b1b00 	strbeq	r1, [fp], -r0, lsl #22
    22d4:	f51b0000 			; <UNDEFINED> instruction: 0xf51b0000
    22d8:	1b000012 	blne	2328 <__exidx_start+0x28>
    22dc:	00001371 	andeq	r1, r0, r1, ror r3
    22e0:	00159a1b 	andseq	r9, r5, fp, lsl sl
    22e4:	eb0d0000 	bl	3422ec <_end+0x33e2e4>
    22e8:	1a000022 	bne	2378 <__exidx_start+0x78>
    22ec:	000016a9 	andeq	r1, r0, r9, lsr #13
    22f0:	00064b1b 	andeq	r4, r6, fp, lsl fp
    22f4:	12f51b00 	rscsne	r1, r5, #0, 22
    22f8:	711b0000 	tstvc	fp, r0
    22fc:	1d000013 	stcne	0, cr0, [r0, #-76]	; 0xffffffb4
    2300:	23060d00 	movwcs	r0, #27904	; 0x6d00
    2304:	a91a0000 	ldmdbge	sl, {}	; <UNPREDICTABLE>
    2308:	1b000016 	blne	2368 <__exidx_start+0x68>
    230c:	0000064b 	andeq	r0, r0, fp, asr #12
    2310:	0012f51b 	andseq	pc, r2, fp, lsl r5	; <UNPREDICTABLE>
    2314:	13711b00 	cmnne	r1, #0, 22
    2318:	501b0000 	andspl	r0, fp, r0
    231c:	00000015 	andeq	r0, r0, r5, lsl r0
    2320:	0023250d 	eoreq	r2, r3, sp, lsl #10
    2324:	16a91a00 	strtne	r1, [r9], r0, lsl #20
    2328:	4b1b0000 	blmi	6c2330 <_end+0x6be328>
    232c:	1b000006 	blne	234c <__exidx_start+0x4c>
    2330:	000012f5 	strdeq	r1, [r0], -r5
    2334:	0013711b 	andseq	r7, r3, fp, lsl r1
    2338:	159a1b00 	ldrne	r1, [sl, #2816]	; 0xb00
    233c:	0d000000 	stceq	0, cr0, [r0, #-0]
    2340:	00002344 	andeq	r2, r0, r4, asr #6
    2344:	064b1b1c 			; <UNDEFINED> instruction: 0x064b1b1c
    2348:	f51b0000 			; <UNDEFINED> instruction: 0xf51b0000
    234c:	1b000012 	blne	239c <__exidx_start+0x9c>
    2350:	00001371 	andeq	r1, r0, r1, ror r3
    2354:	5b0d001d 	blpl	3423d0 <_end+0x33e3c8>
    2358:	1c000023 	stcne	0, cr0, [r0], {35}	; 0x23
    235c:	00064b1b 	andeq	r4, r6, fp, lsl fp
    2360:	12f51b00 	rscsne	r1, r5, #0, 22
    2364:	711b0000 	tstvc	fp, r0
    2368:	1b000013 	blne	23bc <__exidx_start+0xbc>
    236c:	00001550 	andeq	r1, r0, r0, asr r5
    2370:	23760d00 	cmncs	r6, #0, 26
    2374:	1b1c0000 	blne	70237c <_end+0x6fe374>
    2378:	0000064b 	andeq	r0, r0, fp, asr #12
    237c:	0012f51b 	andseq	pc, r2, fp, lsl r5	; <UNPREDICTABLE>
    2380:	13711b00 	cmnne	r1, #0, 22
    2384:	9a1b0000 	bls	6c238c <_end+0x6be384>
    2388:	00000015 	andeq	r0, r0, r5, lsl r0
    238c:	0023910d 	eoreq	r9, r3, sp, lsl #2
    2390:	05b01a00 	ldreq	r1, [r0, #2560]!	; 0xa00
    2394:	4b1b0000 	blmi	6c239c <_end+0x6be394>
    2398:	1b000006 	blne	23b8 <__exidx_start+0xb8>
    239c:	000012f5 	strdeq	r1, [r0], -r5
    23a0:	00139b1b 	andseq	r9, r3, fp, lsl fp
    23a4:	ab0d0000 	blge	3423ac <_end+0x33e3a4>
    23a8:	1a000023 	bne	243c <__exidx_end+0x14>
    23ac:	000013cf 	andeq	r1, r0, pc, asr #7
    23b0:	00064b1b 	andeq	r4, r6, fp, lsl fp
    23b4:	12f51b00 	rscsne	r1, r5, #0, 22
    23b8:	9b1b0000 	blls	6c23c0 <_end+0x6be3b8>
    23bc:	00000013 	andeq	r0, r0, r3, lsl r0
    23c0:	0023c50d 	eoreq	ip, r3, sp, lsl #10
    23c4:	13141a00 	tstne	r4, #0, 20
    23c8:	4b1b0000 	blmi	6c23d0 <_end+0x6be3c8>
    23cc:	1b000006 	blne	23ec <__exidx_start+0xec>
    23d0:	000012f5 	strdeq	r1, [r0], -r5
    23d4:	00139b1b 	andseq	r9, r3, fp, lsl fp
    23d8:	df0d0000 	svcle	0x000d0000
    23dc:	1a000023 	bne	2470 <__exidx_end+0x48>
    23e0:	0000161f 	andeq	r1, r0, pc, lsl r6
    23e4:	00064b1b 	andeq	r4, r6, fp, lsl fp
    23e8:	12f51b00 	rscsne	r1, r5, #0, 22
    23ec:	9b1b0000 	blls	6c23f4 <_end+0x6be3ec>
    23f0:	00000013 	andeq	r0, r0, r3, lsl r0
    23f4:	0023f90d 	eoreq	pc, r3, sp, lsl #18
    23f8:	16471a00 	strbne	r1, [r7], -r0, lsl #20
    23fc:	4b1b0000 	blmi	6c2404 <_end+0x6be3fc>
    2400:	1b000006 	blne	2420 <__exidx_start+0x120>
    2404:	000012f5 	strdeq	r1, [r0], -r5
    2408:	00139b1b 	andseq	r9, r3, fp, lsl fp
    240c:	130d0000 	movwne	r0, #53248	; 0xd000
    2410:	1a000024 	bne	24a8 <__exidx_end+0x80>
    2414:	000012b0 			; <UNDEFINED> instruction: 0x000012b0
    2418:	00064b1b 	andeq	r4, r6, fp, lsl fp
    241c:	12f51b00 	rscsne	r1, r5, #0, 22
    2420:	9b1b0000 	blls	6c2428 <_end+0x6be420>
    2424:	00000013 	andeq	r0, r0, r3, lsl r0
    2428:	00242d0d 	eoreq	r2, r4, sp, lsl #26
    242c:	166f1a00 	strbtne	r1, [pc], -r0, lsl #20
    2430:	4b1b0000 	blmi	6c2438 <_end+0x6be430>
    2434:	1b000006 	blne	2454 <__exidx_end+0x2c>
    2438:	000012f5 	strdeq	r1, [r0], -r5
    243c:	00139b1b 	andseq	r9, r3, fp, lsl fp
    2440:	470d0000 	strmi	r0, [sp, -r0]
    2444:	1a000024 	bne	24dc <__exidx_end+0xb4>
    2448:	00001697 	muleq	r0, r7, r6
    244c:	00064b1b 	andeq	r4, r6, fp, lsl fp
    2450:	12f51b00 	rscsne	r1, r5, #0, 22
    2454:	9b1b0000 	blls	6c245c <_end+0x6be454>
    2458:	00000013 	andeq	r0, r0, r3, lsl r0
    245c:	0024610d 	eoreq	r6, r4, sp, lsl #2
    2460:	16a91a00 	strtne	r1, [r9], r0, lsl #20
    2464:	4b1b0000 	blmi	6c246c <_end+0x6be464>
    2468:	1b000006 	blne	2488 <__exidx_end+0x60>
    246c:	000012f5 	strdeq	r1, [r0], -r5
    2470:	00139b1b 	andseq	r9, r3, fp, lsl fp
    2474:	7b0d0000 	blvc	34247c <_end+0x33e474>
    2478:	1c000024 	stcne	0, cr0, [r0], {36}	; 0x24
    247c:	00064b1b 	andeq	r4, r6, fp, lsl fp
    2480:	12f51b00 	rscsne	r1, r5, #0, 22
    2484:	9b1b0000 	blls	6c248c <_end+0x6be484>
    2488:	1b000013 	blne	24dc <__exidx_end+0xb4>
    248c:	000005b0 			; <UNDEFINED> instruction: 0x000005b0
    2490:	24960d00 	ldrcs	r0, [r6], #3328	; 0xd00
    2494:	1b1c0000 	blne	70249c <_end+0x6fe494>
    2498:	0000064b 	andeq	r0, r0, fp, asr #12
    249c:	0012f51b 	andseq	pc, r2, fp, lsl r5	; <UNPREDICTABLE>
    24a0:	139b1b00 	orrsne	r1, fp, #0, 22
    24a4:	cf1b0000 	svcgt	0x001b0000
    24a8:	00000013 	andeq	r0, r0, r3, lsl r0
    24ac:	0024b10d 	eoreq	fp, r4, sp, lsl #2
    24b0:	4b1b1c00 	blmi	6c94b8 <_end+0x6c54b0>
    24b4:	1b000006 	blne	24d4 <__exidx_end+0xac>
    24b8:	000012f5 	strdeq	r1, [r0], -r5
    24bc:	00139b1b 	andseq	r9, r3, fp, lsl fp
    24c0:	13141b00 	tstne	r4, #0, 22
    24c4:	0d000000 	stceq	0, cr0, [r0, #-0]
    24c8:	000024cc 	andeq	r2, r0, ip, asr #9
    24cc:	064b1b1c 			; <UNDEFINED> instruction: 0x064b1b1c
    24d0:	f51b0000 			; <UNDEFINED> instruction: 0xf51b0000
    24d4:	1b000012 	blne	2524 <__exidx_end+0xfc>
    24d8:	0000139b 	muleq	r0, fp, r3
    24dc:	00161f1b 	andseq	r1, r6, fp, lsl pc
    24e0:	e70d0000 	str	r0, [sp, -r0]
    24e4:	1c000024 	stcne	0, cr0, [r0], {36}	; 0x24
    24e8:	00064b1b 	andeq	r4, r6, fp, lsl fp
    24ec:	12f51b00 	rscsne	r1, r5, #0, 22
    24f0:	9b1b0000 	blls	6c24f8 <_end+0x6be4f0>
    24f4:	1b000013 	blne	2548 <__exidx_end+0x120>
    24f8:	00001647 	andeq	r1, r0, r7, asr #12
    24fc:	25020d00 	strcs	r0, [r2, #-3328]	; 0xfffff300
    2500:	1b1c0000 	blne	702508 <_end+0x6fe500>
    2504:	0000064b 	andeq	r0, r0, fp, asr #12
    2508:	0012f51b 	andseq	pc, r2, fp, lsl r5	; <UNPREDICTABLE>
    250c:	139b1b00 	orrsne	r1, fp, #0, 22
    2510:	b01b0000 	andslt	r0, fp, r0
    2514:	00000012 	andeq	r0, r0, r2, lsl r0
    2518:	00251d0d 	eoreq	r1, r5, sp, lsl #26
    251c:	4b1b1c00 	blmi	6c9524 <_end+0x6c551c>
    2520:	1b000006 	blne	2540 <__exidx_end+0x118>
    2524:	000012f5 	strdeq	r1, [r0], -r5
    2528:	00139b1b 	andseq	r9, r3, fp, lsl fp
    252c:	166f1b00 	strbtne	r1, [pc], -r0, lsl #22
    2530:	0d000000 	stceq	0, cr0, [r0, #-0]
    2534:	00002538 	andeq	r2, r0, r8, lsr r5
    2538:	064b1b1c 			; <UNDEFINED> instruction: 0x064b1b1c
    253c:	f51b0000 			; <UNDEFINED> instruction: 0xf51b0000
    2540:	1b000012 	blne	2590 <__exidx_end+0x168>
    2544:	0000139b 	muleq	r0, fp, r3
    2548:	0016971b 	andseq	r9, r6, fp, lsl r7
    254c:	530d0000 	movwpl	r0, #53248	; 0xd000
    2550:	1c000025 	stcne	0, cr0, [r0], {37}	; 0x25
    2554:	00064b1b 	andeq	r4, r6, fp, lsl fp
    2558:	12f51b00 	rscsne	r1, r5, #0, 22
    255c:	9b1b0000 	blls	6c2564 <_end+0x6be55c>
    2560:	1b000013 	blne	25b4 <__exidx_end+0x18c>
    2564:	000016a9 	andeq	r1, r0, r9, lsr #13
    2568:	256e0d00 	strbcs	r0, [lr, #-3328]!	; 0xfffff300
    256c:	a51a0000 	ldrge	r0, [sl, #-0]
    2570:	1b000005 	blne	258c <__exidx_end+0x164>
    2574:	0000064b 	andeq	r0, r0, fp, asr #12
    2578:	0025831b 	eoreq	r8, r5, fp, lsl r3
    257c:	133c1b00 	teqne	ip, #0, 22
    2580:	0d000000 	stceq	0, cr0, [r0, #-0]
    2584:	00002588 	andeq	r2, r0, r8, lsl #11
    2588:	00161f15 	andseq	r1, r6, r5, lsl pc
    258c:	25920d00 	ldrcs	r0, [r2, #3328]	; 0xd00
    2590:	3c1a0000 	ldccc	0, cr0, [sl], {-0}
    2594:	1b000013 	blne	25e8 <__exidx_end+0x1c0>
    2598:	0000064b 	andeq	r0, r0, fp, asr #12
    259c:	0005a51b 	andeq	sl, r5, fp, lsl r5
    25a0:	a70d0000 	strge	r0, [sp, -r0]
    25a4:	1a000025 	bne	2640 <__exidx_end+0x218>
    25a8:	00002583 	andeq	r2, r0, r3, lsl #11
    25ac:	00064b1b 	andeq	r4, r6, fp, lsl fp
    25b0:	05a51b00 	streq	r1, [r5, #2816]!	; 0xb00
    25b4:	bc1b0000 	ldclt	0, cr0, [fp], {-0}
    25b8:	00000025 	andeq	r0, r0, r5, lsr #32
    25bc:	0013cf0d 	andseq	ip, r3, sp, lsl #30
    25c0:	25c60d00 	strbcs	r0, [r6, #3328]	; 0xd00
    25c4:	1b1c0000 	blne	7025cc <_end+0x6fe5c4>
    25c8:	0000064b 	andeq	r0, r0, fp, asr #12
    25cc:	0005a51b 	andeq	sl, r5, fp, lsl r5
    25d0:	25831b00 	strcs	r1, [r3, #2816]	; 0xb00
    25d4:	0d000000 	stceq	0, cr0, [r0, #-0]
    25d8:	000025dc 	ldrdeq	r2, [r0], -ip
    25dc:	0005a51a 	andeq	sl, r5, sl, lsl r5
    25e0:	064b1b00 	strbeq	r1, [fp], -r0, lsl #22
    25e4:	001b0000 	andseq	r0, fp, r0
    25e8:	00000013 	andeq	r0, r0, r3, lsl r0
    25ec:	0025f10d 	eoreq	pc, r5, sp, lsl #2
    25f0:	13001a00 	movwne	r1, #2560	; 0xa00
    25f4:	4b1b0000 	blmi	6c25fc <_end+0x6be5f4>
    25f8:	1b000006 	blne	2618 <__exidx_end+0x1f0>
    25fc:	000005a5 	andeq	r0, r0, r5, lsr #11
    2600:	0025bc1b 	eoreq	fp, r5, fp, lsl ip
    2604:	0b0d0000 	bleq	34260c <_end+0x33e604>
    2608:	1c000026 	stcne	0, cr0, [r0], {38}	; 0x26
    260c:	00064b1b 	andeq	r4, r6, fp, lsl fp
    2610:	05a51b00 	streq	r1, [r5, #2816]!	; 0xb00
    2614:	001b0000 	andseq	r0, fp, r0
    2618:	00000013 	andeq	r0, r0, r3, lsl r0
    261c:	0026210d 	eoreq	r2, r6, sp, lsl #2
    2620:	133c1a00 	teqne	ip, #0, 20
    2624:	4b1b0000 	blmi	6c262c <_end+0x6be624>
    2628:	1b000006 	blne	2648 <__exidx_end+0x220>
    262c:	00002631 	andeq	r2, r0, r1, lsr r6
    2630:	05b00c00 	ldreq	r0, [r0, #3072]!	; 0xc00
    2634:	11eb0000 	mvnne	r0, r0
    2638:	57020000 	strpl	r0, [r2, -r0]
    263c:	0026410d 	eoreq	r4, r6, sp, lsl #2
    2640:	265b1a00 	ldrbcs	r1, [fp], -r0, lsl #20
    2644:	4b1b0000 	blmi	6c264c <_end+0x6be644>
    2648:	1b000006 	blne	2668 <__exidx_end+0x240>
    264c:	0000133c 	andeq	r1, r0, ip, lsr r3
    2650:	0012f51b 	andseq	pc, r2, fp, lsl r5	; <UNPREDICTABLE>
    2654:	05b01b00 	ldreq	r1, [r0, #2816]!	; 0xb00
    2658:	0c000000 	stceq	0, cr0, [r0], {-0}
    265c:	00002631 	andeq	r2, r0, r1, lsr r6
    2660:	00001201 	andeq	r1, r0, r1, lsl #4
    2664:	6b0d5802 	blvs	358674 <_end+0x35466c>
    2668:	1a000026 	bne	2708 <__exidx_end+0x2e0>
    266c:	000005b0 			; <UNDEFINED> instruction: 0x000005b0
    2670:	00064b1b 	andeq	r4, r6, fp, lsl fp
    2674:	265b1b00 	ldrbcs	r1, [fp], -r0, lsl #22
    2678:	3c1b0000 	ldccc	0, cr0, [fp], {-0}
    267c:	00000013 	andeq	r0, r0, r3, lsl r0
    2680:	0026850d 	eoreq	r8, r6, sp, lsl #10
    2684:	4b1b1c00 	blmi	6c968c <_end+0x6c5684>
    2688:	1b000006 	blne	26a8 <__exidx_end+0x280>
    268c:	0000265b 	andeq	r2, r0, fp, asr r6
    2690:	00133c1b 	andseq	r3, r3, fp, lsl ip
    2694:	05b01b00 	ldreq	r1, [r0, #2816]!	; 0xb00
    2698:	0d000000 	stceq	0, cr0, [r0, #-0]
    269c:	000026a0 	andeq	r2, r0, r0, lsr #13
    26a0:	0026b01a 	eoreq	fp, r6, sl, lsl r0
    26a4:	064b1b00 	strbeq	r1, [fp], -r0, lsl #22
    26a8:	3c1b0000 	ldccc	0, cr0, [fp], {-0}
    26ac:	00000013 	andeq	r0, r0, r3, lsl r0
    26b0:	0026310c 	eoreq	r3, r6, ip, lsl #2
    26b4:	00124a00 	andseq	r4, r2, r0, lsl #20
    26b8:	0d590200 	lfmeq	f0, 2, [r9, #-0]
    26bc:	000026c0 	andeq	r2, r0, r0, asr #13
    26c0:	0026d01a 	eoreq	sp, r6, sl, lsl r0
    26c4:	064b1b00 	strbeq	r1, [fp], -r0, lsl #22
    26c8:	3c1b0000 	ldccc	0, cr0, [fp], {-0}
    26cc:	00000013 	andeq	r0, r0, r3, lsl r0
    26d0:	0026310c 	eoreq	r3, r6, ip, lsl #2
    26d4:	00126500 	andseq	r6, r2, r0, lsl #10
    26d8:	0d5a0200 	lfmeq	f0, 2, [sl, #-0]
    26dc:	000026e0 	andeq	r2, r0, r0, ror #13
    26e0:	0026f01a 	eoreq	pc, r6, sl, lsl r0	; <UNPREDICTABLE>
    26e4:	064b1b00 	strbeq	r1, [fp], -r0, lsl #22
    26e8:	3c1b0000 	ldccc	0, cr0, [fp], {-0}
    26ec:	00000013 	andeq	r0, r0, r3, lsl r0
    26f0:	0026310c 	eoreq	r3, r6, ip, lsl #2
    26f4:	00127d00 	andseq	r7, r2, r0, lsl #26
    26f8:	0d5b0200 	lfmeq	f0, 2, [fp, #-0]
    26fc:	00002700 	andeq	r2, r0, r0, lsl #14
    2700:	0027101a 	eoreq	r1, r7, sl, lsl r0
    2704:	064b1b00 	strbeq	r1, [fp], -r0, lsl #22
    2708:	3c1b0000 	ldccc	0, cr0, [fp], {-0}
    270c:	00000013 	andeq	r0, r0, r3, lsl r0
    2710:	0026310c 	eoreq	r3, r6, ip, lsl #2
    2714:	00129600 	andseq	r9, r2, r0, lsl #12
    2718:	0d5c0200 	lfmeq	f0, 2, [ip, #-0]
    271c:	00002720 	andeq	r2, r0, r0, lsr #14
    2720:	0027301a 	eoreq	r3, r7, sl, lsl r0
    2724:	064b1b00 	strbeq	r1, [fp], -r0, lsl #22
    2728:	3c1b0000 	ldccc	0, cr0, [fp], {-0}
    272c:	00000013 	andeq	r0, r0, r3, lsl r0
    2730:	0026310c 	eoreq	r3, r6, ip, lsl #2
    2734:	0012ae00 	andseq	sl, r2, r0, lsl #28
    2738:	0d5d0200 	lfmeq	f0, 2, [sp, #-0]
    273c:	00002740 	andeq	r2, r0, r0, asr #14
    2740:	0027501a 	eoreq	r5, r7, sl, lsl r0
    2744:	064b1b00 	strbeq	r1, [fp], -r0, lsl #22
    2748:	3c1b0000 	ldccc	0, cr0, [fp], {-0}
    274c:	00000013 	andeq	r0, r0, r3, lsl r0
    2750:	0026310c 	eoreq	r3, r6, ip, lsl #2
    2754:	0012c500 	andseq	ip, r2, r0, lsl #10
    2758:	0d5e0200 	lfmeq	f0, 2, [lr, #-0]
    275c:	00002760 	andeq	r2, r0, r0, ror #14
    2760:	0027701a 	eoreq	r7, r7, sl, lsl r0
    2764:	064b1b00 	strbeq	r1, [fp], -r0, lsl #22
    2768:	3c1b0000 	ldccc	0, cr0, [fp], {-0}
    276c:	00000013 	andeq	r0, r0, r3, lsl r0
    2770:	0026310c 	eoreq	r3, r6, ip, lsl #2
    2774:	0012de00 	andseq	sp, r2, r0, lsl #28
    2778:	0d5f0200 	lfmeq	f0, 2, [pc, #-0]	; 2780 <__exidx_end+0x358>
    277c:	00002780 	andeq	r2, r0, r0, lsl #15
    2780:	0027901a 	eoreq	r9, r7, sl, lsl r0
    2784:	064b1b00 	strbeq	r1, [fp], -r0, lsl #22
    2788:	3c1b0000 	ldccc	0, cr0, [fp], {-0}
    278c:	00000013 	andeq	r0, r0, r3, lsl r0
    2790:	0026310c 	eoreq	r3, r6, ip, lsl #2
    2794:	0012f900 	andseq	pc, r2, r0, lsl #18
    2798:	0d600200 	sfmeq	f0, 2, [r0, #-0]
    279c:	000027a0 	andeq	r2, r0, r0, lsr #15
    27a0:	0025bc1a 	eoreq	fp, r5, sl, lsl ip
    27a4:	064b1b00 	strbeq	r1, [fp], -r0, lsl #22
    27a8:	b01b0000 	andslt	r0, fp, r0
    27ac:	1b000026 	blne	284c <__exidx_end+0x424>
    27b0:	000025bc 			; <UNDEFINED> instruction: 0x000025bc
    27b4:	27ba0d00 	ldrcs	r0, [sl, r0, lsl #26]!
    27b8:	cf1a0000 	svcgt	0x001a0000
    27bc:	1b000027 	blne	2860 <__exidx_end+0x438>
    27c0:	0000064b 	andeq	r0, r0, fp, asr #12
    27c4:	0026d01b 	eoreq	sp, r6, fp, lsl r0
    27c8:	25bc1b00 	ldrcs	r1, [ip, #2816]!	; 0xb00
    27cc:	0d000000 	stceq	0, cr0, [r0, #-0]
    27d0:	00001314 	andeq	r1, r0, r4, lsl r3
    27d4:	0027d90d 	eoreq	sp, r7, sp, lsl #18
    27d8:	27ee1a00 	strbcs	r1, [lr, r0, lsl #20]!
    27dc:	4b1b0000 	blmi	6c27e4 <_end+0x6be7dc>
    27e0:	1b000006 	blne	2800 <__exidx_end+0x3d8>
    27e4:	000026f0 	strdeq	r2, [r0], -r0
    27e8:	0025bc1b 	eoreq	fp, r5, fp, lsl ip
    27ec:	1f0d0000 	svcne	0x000d0000
    27f0:	0d000016 	stceq	0, cr0, [r0, #-88]	; 0xffffffa8
    27f4:	000027f8 	strdeq	r2, [r0], -r8
    27f8:	00280d1a 	eoreq	r0, r8, sl, lsl sp
    27fc:	064b1b00 	strbeq	r1, [fp], -r0, lsl #22
    2800:	101b0000 	andsne	r0, fp, r0
    2804:	1b000027 	blne	28a8 <__exidx_end+0x480>
    2808:	000025bc 			; <UNDEFINED> instruction: 0x000025bc
    280c:	16470d00 	strbne	r0, [r7], -r0, lsl #26
    2810:	170d0000 	strne	r0, [sp, -r0]
    2814:	1a000028 	bne	28bc <__exidx_end+0x494>
    2818:	0000282c 	andeq	r2, r0, ip, lsr #16
    281c:	00064b1b 	andeq	r4, r6, fp, lsl fp
    2820:	27301b00 	ldrcs	r1, [r0, -r0, lsl #22]!
    2824:	bc1b0000 	ldclt	0, cr0, [fp], {-0}
    2828:	00000025 	andeq	r0, r0, r5, lsr #32
    282c:	0012b00d 	andseq	fp, r2, sp
    2830:	28360d00 	ldmdacs	r6!, {r8, sl, fp}
    2834:	4b1a0000 	blmi	68283c <_end+0x67e834>
    2838:	1b000028 	blne	28e0 <__exidx_end+0x4b8>
    283c:	0000064b 	andeq	r0, r0, fp, asr #12
    2840:	0027501b 	eoreq	r5, r7, fp, lsl r0
    2844:	25bc1b00 	ldrcs	r1, [ip, #2816]!	; 0xb00
    2848:	0d000000 	stceq	0, cr0, [r0, #-0]
    284c:	0000166f 	andeq	r1, r0, pc, ror #12
    2850:	0028550d 	eoreq	r5, r8, sp, lsl #10
    2854:	286a1a00 	stmdacs	sl!, {r9, fp, ip}^
    2858:	4b1b0000 	blmi	6c2860 <_end+0x6be858>
    285c:	1b000006 	blne	287c <__exidx_end+0x454>
    2860:	00002770 	andeq	r2, r0, r0, ror r7
    2864:	0025bc1b 	eoreq	fp, r5, fp, lsl ip
    2868:	970d0000 	strls	r0, [sp, -r0]
    286c:	0d000016 	stceq	0, cr0, [r0, #-88]	; 0xffffffa8
    2870:	00002874 	andeq	r2, r0, r4, ror r8
    2874:	0028891a 	eoreq	r8, r8, sl, lsl r9
    2878:	064b1b00 	strbeq	r1, [fp], -r0, lsl #22
    287c:	901b0000 	andsls	r0, fp, r0
    2880:	1b000027 	blne	2924 <__exidx_end+0x4fc>
    2884:	000025bc 			; <UNDEFINED> instruction: 0x000025bc
    2888:	16a90d00 	strtne	r0, [r9], r0, lsl #26
    288c:	930d0000 	movwls	r0, #53248	; 0xd000
    2890:	1c000028 	stcne	0, cr0, [r0], {40}	; 0x28
    2894:	00064b1b 	andeq	r4, r6, fp, lsl fp
    2898:	26b01b00 	ldrtcs	r1, [r0], r0, lsl #22
    289c:	bc1b0000 	ldclt	0, cr0, [fp], {-0}
    28a0:	1b000025 	blne	293c <__exidx_end+0x514>
    28a4:	000012b0 			; <UNDEFINED> instruction: 0x000012b0
    28a8:	28ae0d00 	stmiacs	lr!, {r8, sl, fp}
    28ac:	1b1c0000 	blne	7028b4 <_end+0x6fe8ac>
    28b0:	0000064b 	andeq	r0, r0, fp, asr #12
    28b4:	0026d01b 	eoreq	sp, r6, fp, lsl r0
    28b8:	27cf1b00 	strbcs	r1, [pc, r0, lsl #22]
    28bc:	b01b0000 	andslt	r0, fp, r0
    28c0:	00000012 	andeq	r0, r0, r2, lsl r0
    28c4:	0028c90d 	eoreq	ip, r8, sp, lsl #18
    28c8:	4b1b1c00 	blmi	6c98d0 <_end+0x6c58c8>
    28cc:	1b000006 	blne	28ec <__exidx_end+0x4c4>
    28d0:	000026f0 	strdeq	r2, [r0], -r0
    28d4:	0027ee1b 	eoreq	lr, r7, fp, lsl lr
    28d8:	12b01b00 	adcsne	r1, r0, #0, 22
    28dc:	0d000000 	stceq	0, cr0, [r0, #-0]
    28e0:	000028e4 	andeq	r2, r0, r4, ror #17
    28e4:	064b1b1c 			; <UNDEFINED> instruction: 0x064b1b1c
    28e8:	101b0000 	andsne	r0, fp, r0
    28ec:	1b000027 	blne	2990 <__exidx_end+0x568>
    28f0:	0000280d 	andeq	r2, r0, sp, lsl #16
    28f4:	0012b01b 	andseq	fp, r2, fp, lsl r0
    28f8:	ff0d0000 			; <UNDEFINED> instruction: 0xff0d0000
    28fc:	1c000028 	stcne	0, cr0, [r0], {40}	; 0x28
    2900:	00064b1b 	andeq	r4, r6, fp, lsl fp
    2904:	27301b00 	ldrcs	r1, [r0, -r0, lsl #22]!
    2908:	2c1b0000 	ldccs	0, cr0, [fp], {-0}
    290c:	1b000028 	blne	29b4 <__exidx_end+0x58c>
    2910:	000012b0 			; <UNDEFINED> instruction: 0x000012b0
    2914:	291a0d00 	ldmdbcs	sl, {r8, sl, fp}
    2918:	1b1c0000 	blne	702920 <_end+0x6fe918>
    291c:	0000064b 	andeq	r0, r0, fp, asr #12
    2920:	0027501b 	eoreq	r5, r7, fp, lsl r0
    2924:	284b1b00 	stmdacs	fp, {r8, r9, fp, ip}^
    2928:	b01b0000 	andslt	r0, fp, r0
    292c:	00000012 	andeq	r0, r0, r2, lsl r0
    2930:	0029350d 	eoreq	r3, r9, sp, lsl #10
    2934:	4b1b1c00 	blmi	6c993c <_end+0x6c5934>
    2938:	1b000006 	blne	2958 <__exidx_end+0x530>
    293c:	00002770 	andeq	r2, r0, r0, ror r7
    2940:	00286a1b 	eoreq	r6, r8, fp, lsl sl
    2944:	12b01b00 	adcsne	r1, r0, #0, 22
    2948:	0d000000 	stceq	0, cr0, [r0, #-0]
    294c:	00002950 	andeq	r2, r0, r0, asr r9
    2950:	064b1b1c 			; <UNDEFINED> instruction: 0x064b1b1c
    2954:	901b0000 	andsls	r0, fp, r0
    2958:	1b000027 	blne	29fc <__exidx_end+0x5d4>
    295c:	00002889 	andeq	r2, r0, r9, lsl #17
    2960:	0012b01b 	andseq	fp, r2, fp, lsl r0
    2964:	6b0d0000 	blvs	34296c <_end+0x33e964>
    2968:	1c000029 	stcne	0, cr0, [r0], {41}	; 0x29
    296c:	00064b1b 	andeq	r4, r6, fp, lsl fp
    2970:	26b01b00 	ldrtcs	r1, [r0], r0, lsl #22
    2974:	3c1b0000 	ldccc	0, cr0, [fp], {-0}
    2978:	1b000013 	blne	29cc <__exidx_end+0x5a4>
    297c:	0000133c 	andeq	r1, r0, ip, lsr r3
    2980:	0025bc1b 	eoreq	fp, r5, fp, lsl ip
    2984:	8b0d0000 	blhi	34298c <_end+0x33e984>
    2988:	1c000029 	stcne	0, cr0, [r0], {41}	; 0x29
    298c:	00064b1b 	andeq	r4, r6, fp, lsl fp
    2990:	26d01b00 	ldrbcs	r1, [r0], r0, lsl #22
    2994:	3c1b0000 	ldccc	0, cr0, [fp], {-0}
    2998:	1b000013 	blne	29ec <__exidx_end+0x5c4>
    299c:	0000133c 	andeq	r1, r0, ip, lsr r3
    29a0:	0027cf1b 	eoreq	ip, r7, fp, lsl pc
    29a4:	ab0d0000 	blge	3429ac <_end+0x33e9a4>
    29a8:	1c000029 	stcne	0, cr0, [r0], {41}	; 0x29
    29ac:	00064b1b 	andeq	r4, r6, fp, lsl fp
    29b0:	26f01b00 	ldrbtcs	r1, [r0], r0, lsl #22
    29b4:	3c1b0000 	ldccc	0, cr0, [fp], {-0}
    29b8:	1b000013 	blne	2a0c <__exidx_end+0x5e4>
    29bc:	0000133c 	andeq	r1, r0, ip, lsr r3
    29c0:	0027ee1b 	eoreq	lr, r7, fp, lsl lr
    29c4:	cb0d0000 	blgt	3429cc <_end+0x33e9c4>
    29c8:	1c000029 	stcne	0, cr0, [r0], {41}	; 0x29
    29cc:	00064b1b 	andeq	r4, r6, fp, lsl fp
    29d0:	27101b00 	ldrcs	r1, [r0, -r0, lsl #22]
    29d4:	3c1b0000 	ldccc	0, cr0, [fp], {-0}
    29d8:	1b000013 	blne	2a2c <__exidx_end+0x604>
    29dc:	0000133c 	andeq	r1, r0, ip, lsr r3
    29e0:	00280d1b 	eoreq	r0, r8, fp, lsl sp
    29e4:	eb0d0000 	bl	3429ec <_end+0x33e9e4>
    29e8:	1c000029 	stcne	0, cr0, [r0], {41}	; 0x29
    29ec:	00064b1b 	andeq	r4, r6, fp, lsl fp
    29f0:	27301b00 	ldrcs	r1, [r0, -r0, lsl #22]!
    29f4:	3c1b0000 	ldccc	0, cr0, [fp], {-0}
    29f8:	1b000013 	blne	2a4c <__exidx_end+0x624>
    29fc:	0000133c 	andeq	r1, r0, ip, lsr r3
    2a00:	00282c1b 	eoreq	r2, r8, fp, lsl ip
    2a04:	0b0d0000 	bleq	342a0c <_end+0x33ea04>
    2a08:	1c00002a 	stcne	0, cr0, [r0], {42}	; 0x2a
    2a0c:	00064b1b 	andeq	r4, r6, fp, lsl fp
    2a10:	27501b00 	ldrbcs	r1, [r0, -r0, lsl #22]
    2a14:	3c1b0000 	ldccc	0, cr0, [fp], {-0}
    2a18:	1b000013 	blne	2a6c <__exidx_end+0x644>
    2a1c:	0000133c 	andeq	r1, r0, ip, lsr r3
    2a20:	00284b1b 	eoreq	r4, r8, fp, lsl fp
    2a24:	2b0d0000 	blcs	342a2c <_end+0x33ea24>
    2a28:	1c00002a 	stcne	0, cr0, [r0], {42}	; 0x2a
    2a2c:	00064b1b 	andeq	r4, r6, fp, lsl fp
    2a30:	27701b00 	ldrbcs	r1, [r0, -r0, lsl #22]!
    2a34:	3c1b0000 	ldccc	0, cr0, [fp], {-0}
    2a38:	1b000013 	blne	2a8c <__exidx_end+0x664>
    2a3c:	0000133c 	andeq	r1, r0, ip, lsr r3
    2a40:	00286a1b 	eoreq	r6, r8, fp, lsl sl
    2a44:	4b0d0000 	blmi	342a4c <_end+0x33ea44>
    2a48:	1c00002a 	stcne	0, cr0, [r0], {42}	; 0x2a
    2a4c:	00064b1b 	andeq	r4, r6, fp, lsl fp
    2a50:	27901b00 	ldrcs	r1, [r0, r0, lsl #22]
    2a54:	3c1b0000 	ldccc	0, cr0, [fp], {-0}
    2a58:	1b000013 	blne	2aac <__exidx_end+0x684>
    2a5c:	0000133c 	andeq	r1, r0, ip, lsr r3
    2a60:	0028891b 	eoreq	r8, r8, fp, lsl r9
    2a64:	6b0d0000 	blvs	342a6c <_end+0x33ea64>
    2a68:	1c00002a 	stcne	0, cr0, [r0], {42}	; 0x2a
    2a6c:	00064b1b 	andeq	r4, r6, fp, lsl fp
    2a70:	26b01b00 	ldrtcs	r1, [r0], r0, lsl #22
    2a74:	3c1b0000 	ldccc	0, cr0, [fp], {-0}
    2a78:	1b000013 	blne	2acc <__exidx_end+0x6a4>
    2a7c:	0000133c 	andeq	r1, r0, ip, lsr r3
    2a80:	002a861b 	eoreq	r8, sl, fp, lsl r6
    2a84:	8b0d0000 	blhi	342a8c <_end+0x33ea84>
    2a88:	1500002a 	strne	r0, [r0, #-42]	; 0xffffffd6
    2a8c:	000013cf 	andeq	r1, r0, pc, asr #7
    2a90:	002a950d 	eoreq	r9, sl, sp, lsl #10
    2a94:	4b1b1c00 	blmi	6c9a9c <_end+0x6c5a94>
    2a98:	1b000006 	blne	2ab8 <__exidx_end+0x690>
    2a9c:	000026d0 	ldrdeq	r2, [r0], -r0
    2aa0:	00133c1b 	andseq	r3, r3, fp, lsl ip
    2aa4:	133c1b00 	teqne	ip, #0, 22
    2aa8:	0a1b0000 	beq	6c2ab0 <_end+0x6beaa8>
    2aac:	00000013 	andeq	r0, r0, r3, lsl r0
    2ab0:	002ab50d 	eoreq	fp, sl, sp, lsl #10
    2ab4:	4b1b1c00 	blmi	6c9abc <_end+0x6c5ab4>
    2ab8:	1b000006 	blne	2ad8 <__exidx_end+0x6b0>
    2abc:	000026f0 	strdeq	r2, [r0], -r0
    2ac0:	00133c1b 	andseq	r3, r3, fp, lsl ip
    2ac4:	133c1b00 	teqne	ip, #0, 22
    2ac8:	831b0000 	tsthi	fp, #0
    2acc:	00000025 	andeq	r0, r0, r5, lsr #32
    2ad0:	002ad50d 	eoreq	sp, sl, sp, lsl #10
    2ad4:	4b1b1c00 	blmi	6c9adc <_end+0x6c5ad4>
    2ad8:	1b000006 	blne	2af8 <__exidx_end+0x6d0>
    2adc:	00002710 	andeq	r2, r0, r0, lsl r7
    2ae0:	00133c1b 	andseq	r3, r3, fp, lsl ip
    2ae4:	133c1b00 	teqne	ip, #0, 22
    2ae8:	f01b0000 			; <UNDEFINED> instruction: 0xf01b0000
    2aec:	0000002a 	andeq	r0, r0, sl, lsr #32
    2af0:	002af50d 	eoreq	pc, sl, sp, lsl #10
    2af4:	16471500 	strbne	r1, [r7], -r0, lsl #10
    2af8:	ff0d0000 			; <UNDEFINED> instruction: 0xff0d0000
    2afc:	1c00002a 	stcne	0, cr0, [r0], {42}	; 0x2a
    2b00:	00064b1b 	andeq	r4, r6, fp, lsl fp
    2b04:	27301b00 	ldrcs	r1, [r0, -r0, lsl #22]!
    2b08:	3c1b0000 	ldccc	0, cr0, [fp], {-0}
    2b0c:	1b000013 	blne	2b60 <__exidx_end+0x738>
    2b10:	0000133c 	andeq	r1, r0, ip, lsr r3
    2b14:	002b1a1b 	eoreq	r1, fp, fp, lsl sl
    2b18:	1f0d0000 	svcne	0x000d0000
    2b1c:	1500002b 	strne	r0, [r0, #-43]	; 0xffffffd5
    2b20:	000012b0 			; <UNDEFINED> instruction: 0x000012b0
    2b24:	002b290d 	eoreq	r2, fp, sp, lsl #18
    2b28:	4b1b1c00 	blmi	6c9b30 <_end+0x6c5b28>
    2b2c:	1b000006 	blne	2b4c <__exidx_end+0x724>
    2b30:	00002750 	andeq	r2, r0, r0, asr r7
    2b34:	00133c1b 	andseq	r3, r3, fp, lsl ip
    2b38:	133c1b00 	teqne	ip, #0, 22
    2b3c:	441b0000 	ldrmi	r0, [fp], #-0
    2b40:	0000002b 	andeq	r0, r0, fp, lsr #32
    2b44:	002b490d 	eoreq	r4, fp, sp, lsl #18
    2b48:	166f1500 	strbtne	r1, [pc], -r0, lsl #10
    2b4c:	530d0000 	movwpl	r0, #53248	; 0xd000
    2b50:	1c00002b 	stcne	0, cr0, [r0], {43}	; 0x2b
    2b54:	00064b1b 	andeq	r4, r6, fp, lsl fp
    2b58:	27701b00 	ldrbcs	r1, [r0, -r0, lsl #22]!
    2b5c:	3c1b0000 	ldccc	0, cr0, [fp], {-0}
    2b60:	1b000013 	blne	2bb4 <__exidx_end+0x78c>
    2b64:	0000133c 	andeq	r1, r0, ip, lsr r3
    2b68:	002b6e1b 	eoreq	r6, fp, fp, lsl lr
    2b6c:	730d0000 	movwvc	r0, #53248	; 0xd000
    2b70:	1500002b 	strne	r0, [r0, #-43]	; 0xffffffd5
    2b74:	00001697 	muleq	r0, r7, r6
    2b78:	002b7d0d 	eoreq	r7, fp, sp, lsl #26
    2b7c:	4b1b1c00 	blmi	6c9b84 <_end+0x6c5b7c>
    2b80:	1b000006 	blne	2ba0 <__exidx_end+0x778>
    2b84:	00002790 	muleq	r0, r0, r7
    2b88:	00133c1b 	andseq	r3, r3, fp, lsl ip
    2b8c:	133c1b00 	teqne	ip, #0, 22
    2b90:	981b0000 	ldmdals	fp, {}	; <UNPREDICTABLE>
    2b94:	0000002b 	andeq	r0, r0, fp, lsr #32
    2b98:	002b9d0d 	eoreq	r9, fp, sp, lsl #26
    2b9c:	16a91500 	strtne	r1, [r9], r0, lsl #10
    2ba0:	a70d0000 	strge	r0, [sp, -r0]
    2ba4:	1a00002b 	bne	2c58 <__exidx_end+0x830>
    2ba8:	000012b0 			; <UNDEFINED> instruction: 0x000012b0
    2bac:	00064b1b 	andeq	r4, r6, fp, lsl fp
    2bb0:	12f51b00 	rscsne	r1, r5, #0, 22
    2bb4:	c11b0000 	tstgt	fp, r0
    2bb8:	1b00002b 	blne	2c6c <__exidx_end+0x844>
    2bbc:	000012b0 			; <UNDEFINED> instruction: 0x000012b0
    2bc0:	2bc60d00 	blcs	ff185fc8 <_end+0xff181fc0>
    2bc4:	cb150000 	blgt	542bcc <_end+0x53ebc4>
    2bc8:	0c00002b 	stceq	0, cr0, [r0], {43}	; 0x2b
    2bcc:	00002bd6 	ldrdeq	r2, [r0], -r6
    2bd0:	000015de 	ldrdeq	r1, [r0], -lr
    2bd4:	0c208502 	cfstr32eq	mvfx8, [r0], #-8
    2bd8:	190f8102 	stmdbne	pc, {r1, r8, pc}	; <UNPREDICTABLE>
    2bdc:	00000003 	andeq	r0, r0, r3
    2be0:	02000013 	andeq	r0, r0, #19
    2be4:	ce0f0082 	cdpgt	0, 0, cr0, cr15, cr2, {4}
    2be8:	00000015 	andeq	r0, r0, r5, lsl r0
    2bec:	02000013 	andeq	r0, r0, #19
    2bf0:	d80f0483 	stmdale	pc, {r0, r1, r7, sl}	; <UNPREDICTABLE>
    2bf4:	86000015 			; <UNDEFINED> instruction: 0x86000015
    2bf8:	02000000 	andeq	r0, r0, #0
    2bfc:	0d000884 	stceq	8, cr0, [r0, #-528]	; 0xfffffdf0
    2c00:	00002c04 	andeq	r2, r0, r4, lsl #24
    2c04:	0012b01a 	andseq	fp, r2, sl, lsl r0
    2c08:	064b1b00 	strbeq	r1, [fp], -r0, lsl #22
    2c0c:	f51b0000 			; <UNDEFINED> instruction: 0xf51b0000
    2c10:	00000012 	andeq	r0, r0, r2, lsl r0
    2c14:	002c190d 	eoreq	r1, ip, sp, lsl #18
    2c18:	12b01a00 	adcsne	r1, r0, #0, 20
    2c1c:	4b1b0000 	blmi	6c2c24 <_end+0x6bec1c>
    2c20:	1b000006 	blne	2c40 <__exidx_end+0x818>
    2c24:	000005b0 			; <UNDEFINED> instruction: 0x000005b0
    2c28:	2c2e0d00 	stccs	13, cr0, [lr], #-0
    2c2c:	b01a0000 	andslt	r0, sl, r0
    2c30:	1b000012 	blne	2c80 <__exidx_end+0x858>
    2c34:	0000064b 	andeq	r0, r0, fp, asr #12
    2c38:	002c3e1b 	eoreq	r3, ip, fp, lsl lr
    2c3c:	430d0000 	movwmi	r0, #53248	; 0xd000
    2c40:	0d00002c 	stceq	0, cr0, [r0, #-176]	; 0xffffff50
    2c44:	00002c48 	andeq	r2, r0, r8, asr #24
    2c48:	002c530c 	eoreq	r5, ip, ip, lsl #6
    2c4c:	00168f00 	andseq	r8, r6, r0, lsl #30
    2c50:	0d900200 	lfmeq	f0, 4, [r0]
    2c54:	00002c58 	andeq	r2, r0, r8, asr ip
    2c58:	002c5d15 	eoreq	r5, ip, r5, lsl sp
    2c5c:	167c2100 	ldrbtne	r2, [ip], -r0, lsl #2
    2c60:	02200000 	eoreq	r0, r0, #0
    2c64:	e922040e 	stmdb	r2!, {r1, r2, r3, sl}
    2c68:	86000003 	strhi	r0, [r0], -r3
    2c6c:	02000000 	andeq	r0, r0, #0
    2c70:	2200040f 	andcs	r0, r0, #251658240	; 0xf000000
    2c74:	000003f3 	strdeq	r0, [r0], -r3
    2c78:	00000086 	andeq	r0, r0, r6, lsl #1
    2c7c:	04041002 	streq	r1, [r4], #-2
    2c80:	0003fd22 	andeq	pc, r3, r2, lsr #26
    2c84:	00008600 	andeq	r8, r0, r0, lsl #12
    2c88:	04110200 	ldreq	r0, [r1], #-512	; 0xfffffe00
    2c8c:	16232208 	strtne	r2, [r3], -r8, lsl #4
    2c90:	2ccf0000 	stclcs	0, cr0, [pc], {0}
    2c94:	13020000 	movwne	r0, #8192	; 0x2000
    2c98:	31220c04 			; <UNDEFINED> instruction: 0x31220c04
    2c9c:	df000016 	svcle	0x00000016
    2ca0:	0200002c 	andeq	r0, r0, #44	; 0x2c
    2ca4:	22100414 	andscs	r0, r0, #20, 8	; 0x14000000
    2ca8:	00001645 	andeq	r1, r0, r5, asr #12
    2cac:	00002ccf 	andeq	r2, r0, pc, asr #25
    2cb0:	14041502 	strne	r1, [r4], #-1282	; 0xfffffafe
    2cb4:	00165922 	andseq	r5, r6, r2, lsr #18
    2cb8:	002cfe00 	eoreq	pc, ip, r0, lsl #28
    2cbc:	04160200 	ldreq	r0, [r6], #-512	; 0xfffffe00
    2cc0:	16602218 			; <UNDEFINED> instruction: 0x16602218
    2cc4:	2cdf0000 	ldclcs	0, cr0, [pc], {0}
    2cc8:	17020000 	strne	r0, [r2, -r0]
    2ccc:	0d001c04 	stceq	12, cr1, [r0, #-16]
    2cd0:	00002cd4 	ldrdeq	r2, [r0], -r4
    2cd4:	0012b01a 	andseq	fp, r2, sl, lsl r0
    2cd8:	2c431b00 	mcrrcs	11, 0, r1, r3, cr0
    2cdc:	0d000000 	stceq	0, cr0, [r0, #-0]
    2ce0:	00002ce4 	andeq	r2, r0, r4, ror #25
    2ce4:	0012b01a 	andseq	fp, r2, sl, lsl r0
    2ce8:	2c431b00 	mcrrcs	11, 0, r1, r3, cr0
    2cec:	f91b0000 			; <UNDEFINED> instruction: 0xf91b0000
    2cf0:	1b00002c 	blne	2da8 <__exidx_end+0x980>
    2cf4:	00000086 	andeq	r0, r0, r6, lsl #1
    2cf8:	064b0d00 	strbeq	r0, [fp], -r0, lsl #26
    2cfc:	030d0000 	movweq	r0, #53248	; 0xd000
    2d00:	1a00002d 	bne	2dbc <__exidx_end+0x994>
    2d04:	000012b0 			; <UNDEFINED> instruction: 0x000012b0
    2d08:	002c431b 	eoreq	r4, ip, fp, lsl r3
    2d0c:	2d181b00 	vldrcs	d1, [r8, #-0]
    2d10:	b01b0000 	andslt	r0, fp, r0
    2d14:	00000012 	andeq	r0, r0, r2, lsl r0
    2d18:	0000860d 	andeq	r8, r0, sp, lsl #12
    2d1c:	2d220d00 	stccs	13, cr0, [r2, #-0]
    2d20:	1b1c0000 	blne	702d28 <_end+0x6fed20>
    2d24:	0000064b 	andeq	r0, r0, fp, asr #12
    2d28:	0005a51b 	andeq	sl, r5, fp, lsl r5
    2d2c:	133c1b00 	teqne	ip, #0, 22
    2d30:	3c1b0000 	ldccc	0, cr0, [fp], {-0}
    2d34:	1b000013 	blne	2d88 <__exidx_end+0x960>
    2d38:	000027ee 	andeq	r2, r0, lr, ror #15
    2d3c:	2d420d00 	stclcs	13, cr0, [r2, #-0]
    2d40:	1b1c0000 	blne	702d48 <_end+0x6fed40>
    2d44:	0000064b 	andeq	r0, r0, fp, asr #12
    2d48:	0005a51b 	andeq	sl, r5, fp, lsl r5
    2d4c:	133c1b00 	teqne	ip, #0, 22
    2d50:	3c1b0000 	ldccc	0, cr0, [fp], {-0}
    2d54:	1b000013 	blne	2da8 <__exidx_end+0x980>
    2d58:	00000646 	andeq	r0, r0, r6, asr #12
    2d5c:	2d620d00 	stclcs	13, cr0, [r2, #-0]
    2d60:	861a0000 	ldrhi	r0, [sl], -r0
    2d64:	1b000000 	blne	2d6c <__exidx_end+0x944>
    2d68:	0000064b 	andeq	r0, r0, fp, asr #12
    2d6c:	0026311b 	eoreq	r3, r6, fp, lsl r1
    2d70:	25bc1b00 	ldrcs	r1, [ip, #2816]!	; 0xb00
    2d74:	0d000000 	stceq	0, cr0, [r0, #-0]
    2d78:	00002d7c 	andeq	r2, r0, ip, ror sp
    2d7c:	064b1b1c 			; <UNDEFINED> instruction: 0x064b1b1c
    2d80:	311b0000 	tstcc	fp, r0
    2d84:	1b000026 	blne	2e24 <__exidx_end+0x9fc>
    2d88:	00000086 	andeq	r0, r0, r6, lsl #1
    2d8c:	0012b01b 	andseq	fp, r2, fp, lsl r0
    2d90:	970d0000 	strls	r0, [sp, -r0]
    2d94:	1a00002d 	bne	2e50 <__exidx_end+0xa28>
    2d98:	00002da7 	andeq	r2, r0, r7, lsr #27
    2d9c:	00064b1b 	andeq	r4, r6, fp, lsl fp
    2da0:	05b01b00 	ldreq	r1, [r0, #2816]!	; 0xb00
    2da4:	0c000000 	stceq	0, cr0, [r0], {-0}
    2da8:	000005b0 			; <UNDEFINED> instruction: 0x000005b0
    2dac:	0000172a 	andeq	r1, r0, sl, lsr #14
    2db0:	b70d6202 	strlt	r6, [sp, -r2, lsl #4]
    2db4:	1c00002d 	stcne	0, cr0, [r0], {45}	; 0x2d
    2db8:	00064b1b 	andeq	r4, r6, fp, lsl fp
    2dbc:	2da71b00 			; <UNDEFINED> instruction: 0x2da71b00
    2dc0:	0d000000 	stceq	0, cr0, [r0, #-0]
    2dc4:	00002dc8 	andeq	r2, r0, r8, asr #27
    2dc8:	0013cf1a 	andseq	ip, r3, sl, lsl pc
    2dcc:	064b1b00 	strbeq	r1, [fp], -r0, lsl #22
    2dd0:	0d000000 	stceq	0, cr0, [r0, #-0]
    2dd4:	00002dd8 	ldrdeq	r2, [r0], -r8
    2dd8:	0005b01a 	andeq	fp, r5, sl, lsl r0
    2ddc:	064b1b00 	strbeq	r1, [fp], -r0, lsl #22
    2de0:	861b0000 	ldrhi	r0, [fp], -r0
    2de4:	1b000000 	blne	2dec <__exidx_end+0x9c4>
    2de8:	0000166f 	andeq	r1, r0, pc, ror #12
    2dec:	2df20d00 	ldclcs	13, cr0, [r2]
    2df0:	861a0000 	ldrhi	r0, [sl], -r0
    2df4:	1b000000 	blne	2dfc <__exidx_end+0x9d4>
    2df8:	0000064b 	andeq	r0, r0, fp, asr #12
    2dfc:	0005b01b 	andeq	fp, r5, fp, lsl r0
    2e00:	070d0000 	streq	r0, [sp, -r0]
    2e04:	1a00002e 	bne	2ec4 <__exidx_end+0xa9c>
    2e08:	0000166f 	andeq	r1, r0, pc, ror #12
    2e0c:	00064b1b 	andeq	r4, r6, fp, lsl fp
    2e10:	05b01b00 	ldreq	r1, [r0, #2816]!	; 0xb00
    2e14:	0d000000 	stceq	0, cr0, [r0, #-0]
    2e18:	00002e1c 	andeq	r2, r0, ip, lsl lr
    2e1c:	002e2c1a 	eoreq	r2, lr, sl, lsl ip
    2e20:	064b1b00 	strbeq	r1, [fp], -r0, lsl #22
    2e24:	b01b0000 	andslt	r0, fp, r0
    2e28:	00000005 	andeq	r0, r0, r5
    2e2c:	0000650c 	andeq	r6, r0, ip, lsl #10
    2e30:	0001cd00 	andeq	ip, r1, r0, lsl #26
    2e34:	0c7f0200 	lfmeq	f0, 2, [pc], #-0	; 2e3c <__exidx_end+0xa14>
    2e38:	00002e42 	andeq	r2, r0, r2, asr #28
    2e3c:	000017e8 	andeq	r1, r0, r8, ror #15
    2e40:	4d0c2f0a 	stcmi	15, cr2, [ip, #-40]	; 0xffffffd8
    2e44:	e000002e 	and	r0, r0, lr, lsr #32
    2e48:	0a000017 	beq	2eac <__exidx_end+0xa84>
    2e4c:	06080c2e 	streq	r0, [r8], -lr, lsr #24
    2e50:	17d10000 	ldrbne	r0, [r1, r0]
    2e54:	21090000 	mrscs	r0, (UNDEF: 9)
    2e58:	002e630c 	eoreq	r6, lr, ip, lsl #6
    2e5c:	00181800 	andseq	r1, r8, r0, lsl #16
    2e60:	0c2d0a00 			; <UNDEFINED> instruction: 0x0c2d0a00
    2e64:	00002e6e 	andeq	r2, r0, lr, ror #28
    2e68:	00001810 	andeq	r1, r0, r0, lsl r8
    2e6c:	790c2c0a 	stmdbvc	ip, {r1, r3, sl, fp, sp}
    2e70:	ff00002e 			; <UNDEFINED> instruction: 0xff00002e
    2e74:	09000017 	stmdbeq	r0, {r0, r1, r2, r4}
    2e78:	17f21231 			; <UNDEFINED> instruction: 0x17f21231
    2e7c:	04070000 	streq	r0, [r7], #-0
    2e80:	0028ab00 	eoreq	sl, r8, r0, lsl #22
    2e84:	a0000400 	andge	r0, r0, r0, lsl #8
    2e88:	04000001 	streq	r0, [r0], #-1
    2e8c:	00000001 	andeq	r0, r0, r1
    2e90:	27000c00 	strcs	r0, [r0, -r0, lsl #24]
    2e94:	46000018 			; <UNDEFINED> instruction: 0x46000018
    2e98:	79000004 	stmdbvc	r0, {r2}
    2e9c:	b0000000 	andlt	r0, r0, r0
    2ea0:	2c000014 	stccs	0, cr0, [r0], {20}
    2ea4:	02000000 	andeq	r0, r0, #0
    2ea8:	0000185f 	andeq	r1, r0, pc, asr r8
    2eac:	00000037 	andeq	r0, r0, r7, lsr r0
    2eb0:	03050803 	movweq	r0, #22531	; 0x5803
    2eb4:	00004004 	andeq	r4, r0, r4
    2eb8:	00003c03 	andeq	r3, r0, r3, lsl #24
    2ebc:	00470400 	subeq	r0, r7, r0, lsl #8
    2ec0:	168f0000 	strne	r0, [pc], r0
    2ec4:	90010000 	andls	r0, r1, r0
    2ec8:	00004c03 	andeq	r4, r0, r3, lsl #24
    2ecc:	00510500 	subseq	r0, r1, r0, lsl #10
    2ed0:	7c060000 	stcvc	0, cr0, [r6], {-0}
    2ed4:	20000016 	andcs	r0, r0, r6, lsl r0
    2ed8:	07040e01 	streq	r0, [r4, -r1, lsl #28]
    2edc:	000003e9 	andeq	r0, r0, r9, ror #7
    2ee0:	000000c3 	andeq	r0, r0, r3, asr #1
    2ee4:	00040f01 	andeq	r0, r4, r1, lsl #30
    2ee8:	0003f307 	andeq	pc, r3, r7, lsl #6
    2eec:	0000c300 	andeq	ip, r0, r0, lsl #6
    2ef0:	04100100 	ldreq	r0, [r0], #-256	; 0xffffff00
    2ef4:	03fd0704 	mvnseq	r0, #4, 14	; 0x100000
    2ef8:	00c30000 	sbceq	r0, r3, r0
    2efc:	11010000 	mrsne	r0, (UNDEF: 1)
    2f00:	23070804 	movwcs	r0, #30724	; 0x7804
    2f04:	c4000016 	strgt	r0, [r0], #-22	; 0xffffffea
    2f08:	01000000 	mrseq	r0, (UNDEF: 0)
    2f0c:	070c0413 	smladeq	ip, r3, r4, r0
    2f10:	00001631 	andeq	r1, r0, r1, lsr r6
    2f14:	000000fc 	strdeq	r0, [r0], -ip
    2f18:	10041401 	andne	r1, r4, r1, lsl #8
    2f1c:	00164507 	andseq	r4, r6, r7, lsl #10
    2f20:	0000c400 	andeq	ip, r0, r0, lsl #8
    2f24:	04150100 	ldreq	r0, [r5], #-256	; 0xffffff00
    2f28:	16590714 			; <UNDEFINED> instruction: 0x16590714
    2f2c:	284f0000 	stmdacs	pc, {}^	; <UNPREDICTABLE>
    2f30:	16010000 	strne	r0, [r1], -r0
    2f34:	60071804 	andvs	r1, r7, r4, lsl #16
    2f38:	fc000016 	stc2	0, cr0, [r0], {22}
    2f3c:	01000000 	mrseq	r0, (UNDEF: 0)
    2f40:	001c0417 	andseq	r0, ip, r7, lsl r4
    2f44:	00c90308 	sbceq	r0, r9, r8, lsl #6
    2f48:	d4090000 	strle	r0, [r9], #-0
    2f4c:	0a000000 	beq	2f54 <__exidx_end+0xb2c>
    2f50:	00000037 	andeq	r0, r0, r7, lsr r0
    2f54:	00df0400 	sbcseq	r0, pc, r0, lsl #8
    2f58:	042e0000 	strteq	r0, [lr], #-0
    2f5c:	23010000 	movwcs	r0, #4096	; 0x1000
    2f60:	0000ea04 	andeq	lr, r0, r4, lsl #20
    2f64:	00042600 	andeq	r2, r4, r0, lsl #12
    2f68:	04400200 	strbeq	r0, [r0], #-512	; 0xfffffe00
    2f6c:	000000f5 	strdeq	r0, [r0], -r5
    2f70:	0000041c 	andeq	r0, r0, ip, lsl r4
    2f74:	fc0b2802 	stc2	8, cr2, [fp], {2}
    2f78:	05000002 	streq	r0, [r0, #-2]
    2f7c:	01010304 	tsteq	r1, r4, lsl #6
    2f80:	d4090000 	strle	r0, [r9], #-0
    2f84:	0a000000 	beq	2f8c <__exidx_end+0xb64>
    2f88:	00000037 	andeq	r0, r0, r7, lsr r0
    2f8c:	0001160a 	andeq	r1, r1, sl, lsl #12
    2f90:	00c30a00 	sbceq	r0, r3, r0, lsl #20
    2f94:	03000000 	movweq	r0, #0
    2f98:	0000011b 	andeq	r0, r0, fp, lsl r1
    2f9c:	00012003 	andeq	r2, r1, r3
    2fa0:	012b0400 			; <UNDEFINED> instruction: 0x012b0400
    2fa4:	17ba0000 	ldrne	r0, [sl, r0]!
    2fa8:	8f010000 	svchi	0x00010000
    2fac:	00013003 	andeq	r3, r1, r3
    2fb0:	01350500 	teqeq	r5, r0, lsl #10
    2fb4:	a70c0000 	strge	r0, [ip, -r0]
    2fb8:	a4000017 	strge	r0, [r0], #-23	; 0xffffffe9
    2fbc:	0d960103 	ldfeqs	f0, [r6, #12]
    2fc0:	000003e9 	andeq	r0, r0, r9, ror #7
    2fc4:	000000c3 	andeq	r0, r0, r3, asr #1
    2fc8:	0d009701 	stceq	7, cr9, [r0, #-4]
    2fcc:	000003f3 	strdeq	r0, [r0], -r3
    2fd0:	000000c3 	andeq	r0, r0, r3, asr #1
    2fd4:	0d049801 	stceq	8, cr9, [r4, #-4]
    2fd8:	000003fd 	strdeq	r0, [r0], -sp
    2fdc:	000000c3 	andeq	r0, r0, r3, asr #1
    2fe0:	0d089901 	vstreq.16	s18, [r8, #-2]	; <UNPREDICTABLE>
    2fe4:	00000407 	andeq	r0, r0, r7, lsl #8
    2fe8:	000000c3 	andeq	r0, r0, r3, asr #1
    2fec:	0d0c9a01 	vstreq	s18, [ip, #-4]
    2ff0:	00000411 	andeq	r0, r0, r1, lsl r4
    2ff4:	00000d70 	andeq	r0, r0, r0, ror sp
    2ff8:	0d109c01 	ldceq	12, cr9, [r0, #-4]
    2ffc:	00000433 	andeq	r0, r0, r3, lsr r4
    3000:	00000d80 	andeq	r0, r0, r0, lsl #27
    3004:	0d149e01 	ldceq	14, cr9, [r4, #-4]
    3008:	0000046e 	andeq	r0, r0, lr, ror #8
    300c:	00000e08 	andeq	r0, r0, r8, lsl #28
    3010:	0d18a001 	ldceq	0, cr10, [r8, #-4]
    3014:	00000478 	andeq	r0, r0, r8, ror r4
    3018:	00000e1d 	andeq	r0, r0, sp, lsl lr
    301c:	0d1ca201 	lfmeq	f2, 1, [ip, #-4]
    3020:	000004a1 	andeq	r0, r0, r1, lsr #9
    3024:	00000e47 	andeq	r0, r0, r7, asr #28
    3028:	0d20a301 	stceq	3, cr10, [r0, #-4]!
    302c:	000004c7 	andeq	r0, r0, r7, asr #9
    3030:	00000e71 	andeq	r0, r0, r1, ror lr
    3034:	0d24a501 	cfstr32eq	mvfx10, [r4, #-4]!
    3038:	00000502 	andeq	r0, r0, r2, lsl #10
    303c:	00000eb8 			; <UNDEFINED> instruction: 0x00000eb8
    3040:	0d28a701 	stceq	7, cr10, [r8, #-4]!
    3044:	00000510 	andeq	r0, r0, r0, lsl r5
    3048:	00000ecd 	andeq	r0, r0, sp, asr #29
    304c:	0d2ca801 	stceq	8, cr10, [ip, #-4]!
    3050:	00000521 	andeq	r0, r0, r1, lsr #10
    3054:	00000ee7 	andeq	r0, r0, r7, ror #29
    3058:	0d30ab01 	fldmdbxeq	r0!, {d10-d9}	;@ Deprecated
    305c:	00000532 	andeq	r0, r0, r2, lsr r5
    3060:	00000f06 	andeq	r0, r0, r6, lsl #30
    3064:	0d34ad01 	ldceq	13, cr10, [r4, #-4]!
    3068:	00000543 	andeq	r0, r0, r3, asr #10
    306c:	00000f26 	andeq	r0, r0, r6, lsr #30
    3070:	0d38ae01 	ldceq	14, cr10, [r8, #-4]!
    3074:	0000054c 	andeq	r0, r0, ip, asr #10
    3078:	00000f40 	andeq	r0, r0, r0, asr #30
    307c:	0d3caf01 	ldceq	15, cr10, [ip, #-4]!
    3080:	0000055e 	andeq	r0, r0, lr, asr r5
    3084:	00000f50 	andeq	r0, r0, r0, asr pc
    3088:	0d40b001 	stcleq	0, cr11, [r0, #-4]
    308c:	00000570 	andeq	r0, r0, r0, ror r5
    3090:	00000f50 	andeq	r0, r0, r0, asr pc
    3094:	0d44b101 	stfeqp	f3, [r4, #-4]
    3098:	0000057f 	andeq	r0, r0, pc, ror r5
    309c:	00000f5c 	andeq	r0, r0, ip, asr pc
    30a0:	0d48b201 	sfmeq	f3, 3, [r8, #-4]
    30a4:	0000058a 	andeq	r0, r0, sl, lsl #11
    30a8:	00000f6d 	andeq	r0, r0, sp, ror #30
    30ac:	0d4cb401 	cfstrdeq	mvd11, [ip, #-4]
    30b0:	00000599 	muleq	r0, r9, r5
    30b4:	00000f82 	andeq	r0, r0, r2, lsl #31
    30b8:	0d50b501 	cfldr64eq	mvdx11, [r0, #-4]
    30bc:	000005a7 	andeq	r0, r0, r7, lsr #11
    30c0:	00000f82 	andeq	r0, r0, r2, lsl #31
    30c4:	0d54b701 	ldcleq	7, cr11, [r4, #-4]
    30c8:	000005b4 			; <UNDEFINED> instruction: 0x000005b4
    30cc:	00000f97 	muleq	r0, r7, pc	; <UNPREDICTABLE>
    30d0:	0d58b801 	ldcleq	8, cr11, [r8, #-4]
    30d4:	000005c4 	andeq	r0, r0, r4, asr #11
    30d8:	00000f97 	muleq	r0, r7, pc	; <UNPREDICTABLE>
    30dc:	0d5cb901 	vldreq.16	s23, [ip, #-2]	; <UNPREDICTABLE>
    30e0:	000005d3 	ldrdeq	r0, [r0], -r3
    30e4:	00000fa8 	andeq	r0, r0, r8, lsr #31
    30e8:	0d60ba01 	vstmdbeq	r0!, {s23}
    30ec:	000005e0 	andeq	r0, r0, r0, ror #11
    30f0:	00000f82 	andeq	r0, r0, r2, lsl #31
    30f4:	0d64bc01 	stcleq	12, cr11, [r4, #-4]!
    30f8:	000005ec 	andeq	r0, r0, ip, ror #11
    30fc:	00000f6d 	andeq	r0, r0, sp, ror #30
    3100:	0d68bd01 	stcleq	13, cr11, [r8, #-4]!
    3104:	00000600 	andeq	r0, r0, r0, lsl #12
    3108:	00000fc2 	andeq	r0, r0, r2, asr #31
    310c:	0d6cbf01 	stcleq	15, cr11, [ip, #-4]!
    3110:	0000060c 	andeq	r0, r0, ip, lsl #12
    3114:	00000fd7 	ldrdeq	r0, [r0], -r7
    3118:	0d70c001 	ldcleq	0, cr12, [r0, #-4]!
    311c:	00000616 	andeq	r0, r0, r6, lsl r6
    3120:	00000ff2 	strdeq	r0, [r0], -r2
    3124:	0d74c101 	ldfeqp	f4, [r4, #-4]!
    3128:	0000064a 	andeq	r0, r0, sl, asr #12
    312c:	0000103c 	andeq	r1, r0, ip, lsr r0
    3130:	0d78c201 	lfmeq	f4, 3, [r8, #-4]!
    3134:	000006f8 	strdeq	r0, [r0], -r8
    3138:	0000117c 	andeq	r1, r0, ip, ror r1
    313c:	0d7cc401 	cfldrdeq	mvd12, [ip, #-4]!
    3140:	00000707 	andeq	r0, r0, r7, lsl #14
    3144:	00001191 	muleq	r0, r1, r1
    3148:	0d80c501 	cfstr32eq	mvfx12, [r0, #4]
    314c:	00000714 	andeq	r0, r0, r4, lsl r7
    3150:	000011ab 	andeq	r1, r0, fp, lsr #3
    3154:	0d84c601 	stceq	6, cr12, [r4, #4]
    3158:	00000720 	andeq	r0, r0, r0, lsr #14
    315c:	000011ca 	andeq	r1, r0, sl, asr #3
    3160:	0d88c801 	stceq	8, cr12, [r8, #4]
    3164:	00000731 	andeq	r0, r0, r1, lsr r7
    3168:	000011e5 	andeq	r1, r0, r5, ror #3
    316c:	0d8cc901 	vstreq.16	s24, [ip, #2]	; <UNPREDICTABLE>
    3170:	00000743 	andeq	r0, r0, r3, asr #14
    3174:	00001204 	andeq	r1, r0, r4, lsl #4
    3178:	0d90ca01 	vldreq	s24, [r0, #4]
    317c:	00000755 	andeq	r0, r0, r5, asr r7
    3180:	00001223 	andeq	r1, r0, r3, lsr #4
    3184:	0d94cb01 	vldreq	d12, [r4, #4]
    3188:	00000767 	andeq	r0, r0, r7, ror #14
    318c:	0000123e 	andeq	r1, r0, lr, lsr r2
    3190:	0d98cc01 	ldceq	12, cr12, [r8, #4]
    3194:	0000077a 	andeq	r0, r0, sl, ror r7
    3198:	0000125d 	andeq	r1, r0, sp, asr r2
    319c:	0d9ccd01 	ldceq	13, cr12, [ip, #4]
    31a0:	0000078d 	andeq	r0, r0, sp, lsl #15
    31a4:	0000127c 	andeq	r1, r0, ip, ror r2
    31a8:	0da0ce01 	stceq	14, cr12, [r0, #4]!
    31ac:	0000079c 	muleq	r0, ip, r7
    31b0:	00001297 	muleq	r0, r7, r2
    31b4:	0da4cf01 	stceq	15, cr12, [r4, #4]!
    31b8:	000007ac 	andeq	r0, r0, ip, lsr #15
    31bc:	000012b6 			; <UNDEFINED> instruction: 0x000012b6
    31c0:	0da8d001 	stceq	0, cr13, [r8, #4]!
    31c4:	000007bc 			; <UNDEFINED> instruction: 0x000007bc
    31c8:	000012d5 	ldrdeq	r1, [r0], -r5
    31cc:	0dacd101 	stfeqd	f5, [ip, #4]!
    31d0:	000007cb 	andeq	r0, r0, fp, asr #15
    31d4:	000012f0 	strdeq	r1, [r0], -r0
    31d8:	0db0d201 	lfmeq	f5, 1, [r0, #4]!
    31dc:	000007db 	ldrdeq	r0, [r0], -fp
    31e0:	0000130f 	andeq	r1, r0, pc, lsl #6
    31e4:	0db4d301 	ldceq	3, cr13, [r4, #4]!
    31e8:	000007eb 	andeq	r0, r0, fp, ror #15
    31ec:	0000132e 	andeq	r1, r0, lr, lsr #6
    31f0:	0db8d401 	cfldrseq	mvf13, [r8, #4]!
    31f4:	000007fb 	strdeq	r0, [r0], -fp
    31f8:	00001349 	andeq	r1, r0, r9, asr #6
    31fc:	0dbcd501 	cfldr32eq	mvfx13, [ip, #4]!
    3200:	0000080c 	andeq	r0, r0, ip, lsl #16
    3204:	00001368 	andeq	r1, r0, r8, ror #6
    3208:	0dc0d601 	stcleq	6, cr13, [r0, #4]
    320c:	0000081d 	andeq	r0, r0, sp, lsl r8
    3210:	00001387 	andeq	r1, r0, r7, lsl #7
    3214:	0dc4d701 	stcleq	7, cr13, [r4, #4]
    3218:	0000082b 	andeq	r0, r0, fp, lsr #16
    321c:	000013a2 	andeq	r1, r0, r2, lsr #7
    3220:	0dc8d801 	stcleq	8, cr13, [r8, #4]
    3224:	0000083a 	andeq	r0, r0, sl, lsr r8
    3228:	000013c1 	andeq	r1, r0, r1, asr #7
    322c:	0dccd901 	vstreq.16	s27, [ip, #2]	; <UNPREDICTABLE>
    3230:	00000849 	andeq	r0, r0, r9, asr #16
    3234:	000013e0 	andeq	r1, r0, r0, ror #7
    3238:	0dd0da01 	vldreq	s27, [r0, #4]
    323c:	00000858 	andeq	r0, r0, r8, asr r8
    3240:	000013fb 	strdeq	r1, [r0], -fp
    3244:	0dd4db01 	vldreq	d29, [r4, #4]
    3248:	00000868 	andeq	r0, r0, r8, ror #16
    324c:	0000141a 	andeq	r1, r0, sl, lsl r4
    3250:	0dd8dc01 	ldcleq	12, cr13, [r8, #4]
    3254:	00000878 	andeq	r0, r0, r8, ror r8
    3258:	00001439 	andeq	r1, r0, r9, lsr r4
    325c:	0ddcdd01 	ldcleq	13, cr13, [ip, #4]
    3260:	00000888 	andeq	r0, r0, r8, lsl #17
    3264:	00001454 	andeq	r1, r0, r4, asr r4
    3268:	0de0de01 	stcleq	14, cr13, [r0, #4]!
    326c:	00000899 	muleq	r0, r9, r8
    3270:	00001473 	andeq	r1, r0, r3, ror r4
    3274:	0de4df01 	stcleq	15, cr13, [r4, #4]!
    3278:	000008aa 	andeq	r0, r0, sl, lsr #17
    327c:	00001492 	muleq	r0, r2, r4
    3280:	0de8e001 	stcleq	0, cr14, [r8, #4]!
    3284:	000008bb 			; <UNDEFINED> instruction: 0x000008bb
    3288:	000014ad 	andeq	r1, r0, sp, lsr #9
    328c:	0dece101 	stfeqp	f6, [ip, #4]!
    3290:	000008cd 	andeq	r0, r0, sp, asr #17
    3294:	000014cc 	andeq	r1, r0, ip, asr #9
    3298:	0df0e201 	lfmeq	f6, 3, [r0, #4]!
    329c:	000008df 	ldrdeq	r0, [r0], -pc	; <UNPREDICTABLE>
    32a0:	000014eb 	andeq	r1, r0, fp, ror #9
    32a4:	0df4e301 	ldcleq	3, cr14, [r4, #4]!
    32a8:	000008ee 	andeq	r0, r0, lr, ror #17
    32ac:	00001502 	andeq	r1, r0, r2, lsl #10
    32b0:	0df8e401 	cfldrdeq	mvd14, [r8, #4]!
    32b4:	000008fe 	strdeq	r0, [r0], -lr
    32b8:	0000151d 	andeq	r1, r0, sp, lsl r5
    32bc:	0efce501 	cdpeq	5, 15, cr14, cr12, cr1, {0}
    32c0:	0000090e 	andeq	r0, r0, lr, lsl #18
    32c4:	00001538 	andeq	r1, r0, r8, lsr r5
    32c8:	0100e701 	tsteq	r0, r1, lsl #14
    32cc:	0009290e 	andeq	r2, r9, lr, lsl #18
    32d0:	00155800 	andseq	r5, r5, r0, lsl #16
    32d4:	04e90100 	strbteq	r0, [r9], #256	; 0x100
    32d8:	09450e01 	stmdbeq	r5, {r0, r9, sl, fp}^
    32dc:	157c0000 	ldrbne	r0, [ip, #-0]!
    32e0:	eb010000 	bl	432e8 <_end+0x3f2e0>
    32e4:	610e0108 	tstvs	lr, r8, lsl #2
    32e8:	a0000009 	andge	r0, r0, r9
    32ec:	01000015 	tsteq	r0, r5, lsl r0
    32f0:	0e010ced 	cdpeq	12, 0, cr0, cr1, cr13, {7}
    32f4:	0000097d 	andeq	r0, r0, sp, ror r9
    32f8:	000015c0 	andeq	r1, r0, r0, asr #11
    32fc:	0110ef01 	tsteq	r0, r1, lsl #30
    3300:	00099a0e 	andeq	r9, r9, lr, lsl #20
    3304:	0015e400 	andseq	lr, r5, r0, lsl #8
    3308:	14f10100 	ldrbtne	r0, [r1], #256	; 0x100
    330c:	09b70e01 	ldmibeq	r7!, {r0, r9, sl, fp}
    3310:	16080000 	strne	r0, [r8], -r0
    3314:	f3010000 	vhadd.u8	d0, d1, d0
    3318:	d00e0118 	andle	r0, lr, r8, lsl r1
    331c:	28000009 	stmdacs	r0, {r0, r3}
    3320:	01000016 	tsteq	r0, r6, lsl r0
    3324:	0e011cf5 	mcreq	12, 0, r1, cr1, cr5, {7}
    3328:	000009ea 	andeq	r0, r0, sl, ror #19
    332c:	0000164c 	andeq	r1, r0, ip, asr #12
    3330:	0120f701 	msreq	LR_irq, r1
    3334:	000a040e 	andeq	r0, sl, lr, lsl #8
    3338:	00167000 	andseq	r7, r6, r0
    333c:	24f90100 	ldrbtcs	r0, [r9], #256	; 0x100
    3340:	0a1d0e01 	beq	746b4c <_end+0x742b44>
    3344:	16900000 	ldrne	r0, [r0], r0
    3348:	fb010000 	blx	43352 <_end+0x3f34a>
    334c:	370e0128 	strcc	r0, [lr, -r8, lsr #2]
    3350:	b400000a 	strlt	r0, [r0], #-10
    3354:	01000016 	tsteq	r0, r6, lsl r0
    3358:	0e012cfd 	mcreq	12, 0, r2, cr1, cr13, {7}
    335c:	00000a51 	andeq	r0, r0, r1, asr sl
    3360:	000016d8 	ldrdeq	r1, [r0], -r8
    3364:	0130ff01 	teqeq	r0, r1, lsl #30	; <UNPREDICTABLE>
    3368:	000a6b0f 	andeq	r6, sl, pc, lsl #22
    336c:	0016f800 	andseq	pc, r6, r0, lsl #16
    3370:	01010100 	mrseq	r0, (UNDEF: 17)
    3374:	860f0134 			; <UNDEFINED> instruction: 0x860f0134
    3378:	1c00000a 	stcne	0, cr0, [r0], {10}
    337c:	01000017 	tsteq	r0, r7, lsl r0
    3380:	01380103 	teqeq	r8, r3, lsl #2
    3384:	000aa10f 	andeq	sl, sl, pc, lsl #2
    3388:	00174000 	andseq	r4, r7, r0
    338c:	01050100 	mrseq	r0, (UNDEF: 21)
    3390:	b90f013c 	stmdblt	pc, {r2, r3, r4, r5, r8}	; <UNPREDICTABLE>
    3394:	6000000a 	andvs	r0, r0, sl
    3398:	01000017 	tsteq	r0, r7, lsl r0
    339c:	01400107 	cmpeq	r0, r7, lsl #2
    33a0:	000ad20f 	andeq	sp, sl, pc, lsl #4
    33a4:	00178400 	andseq	r8, r7, r0, lsl #8
    33a8:	01090100 	mrseq	r0, (UNDEF: 25)
    33ac:	eb0f0144 	bl	3c38c4 <_end+0x3bf8bc>
    33b0:	a800000a 	stmdage	r0, {r1, r3}
    33b4:	01000017 	tsteq	r0, r7, lsl r0
    33b8:	0148010b 	cmpeq	r8, fp, lsl #2
    33bc:	000b040f 	andeq	r0, fp, pc, lsl #8
    33c0:	0017c800 	andseq	ip, r7, r0, lsl #16
    33c4:	010d0100 	mrseq	r0, (UNDEF: 29)
    33c8:	1e0f014c 	adfneem	f0, f7, #4.0
    33cc:	ec00000b 	stc	0, cr0, [r0], {11}
    33d0:	01000017 	tsteq	r0, r7, lsl r0
    33d4:	0150010f 	cmpeq	r0, pc, lsl #2
    33d8:	000b380f 	andeq	r3, fp, pc, lsl #16
    33dc:	00181000 	andseq	r1, r8, r0
    33e0:	01110100 	tsteq	r1, r0, lsl #2
    33e4:	520f0154 	andpl	r0, pc, #84, 2
    33e8:	3000000b 	andcc	r0, r0, fp
    33ec:	01000018 	tsteq	r0, r8, lsl r0
    33f0:	01580113 	cmpeq	r8, r3, lsl r1
    33f4:	000b6d0f 	andeq	r6, fp, pc, lsl #26
    33f8:	00185400 	andseq	r5, r8, r0, lsl #8
    33fc:	01150100 	tsteq	r5, r0, lsl #2
    3400:	880f015c 	stmdahi	pc, {r2, r3, r4, r6, r8}	; <UNPREDICTABLE>
    3404:	7800000b 	stmdavc	r0, {r0, r1, r3}
    3408:	01000018 	tsteq	r0, r8, lsl r0
    340c:	01600117 	cmneq	r0, r7, lsl r1
    3410:	000ba30f 	andeq	sl, fp, pc, lsl #6
    3414:	00189800 	andseq	r9, r8, r0, lsl #16
    3418:	01190100 	tsteq	r9, r0, lsl #2
    341c:	bf0f0164 	svclt	0x000f0164
    3420:	bc00000b 	stclt	0, cr0, [r0], {11}
    3424:	01000018 	tsteq	r0, r8, lsl r0
    3428:	0168011b 	cmneq	r8, fp, lsl r1
    342c:	000bdb0f 	andeq	sp, fp, pc, lsl #22
    3430:	0018e000 	andseq	lr, r8, r0
    3434:	011d0100 	tsteq	sp, r0, lsl #2
    3438:	f40f016c 	vst4.16	{d0,d2,d4,d6}, [pc :128], ip
    343c:	fc00000b 	stc2	0, cr0, [r0], {11}
    3440:	01000018 	tsteq	r0, r8, lsl r0
    3444:	0170011f 	cmneq	r0, pc, lsl r1
    3448:	000c0e0f 	andeq	r0, ip, pc, lsl #28
    344c:	00191c00 	andseq	r1, r9, r0, lsl #24
    3450:	01210100 			; <UNDEFINED> instruction: 0x01210100
    3454:	280f0174 	stmdacs	pc, {r2, r4, r5, r6, r8}	; <UNPREDICTABLE>
    3458:	3c00000c 	stccc	0, cr0, [r0], {12}
    345c:	01000019 	tsteq	r0, r9, lsl r0
    3460:	01780124 	cmneq	r8, r4, lsr #2
    3464:	000c330f 	andeq	r3, ip, pc, lsl #6
    3468:	00195b00 	andseq	r5, r9, r0, lsl #22
    346c:	01260100 			; <UNDEFINED> instruction: 0x01260100
    3470:	420f017c 	andmi	r0, pc, #124, 2
    3474:	7500000c 	strvc	r0, [r0, #-12]
    3478:	01000019 	tsteq	r0, r9, lsl r0
    347c:	01800127 	orreq	r0, r0, r7, lsr #2
    3480:	000c520f 	andeq	r5, ip, pc, lsl #4
    3484:	00198f00 	andseq	r8, r9, r0, lsl #30
    3488:	01280100 			; <UNDEFINED> instruction: 0x01280100
    348c:	5f0f0184 	svcpl	0x000f0184
    3490:	a900000c 	stmdbge	r0, {r2, r3}
    3494:	01000019 	tsteq	r0, r9, lsl r0
    3498:	01880129 	orreq	r0, r8, r9, lsr #2
    349c:	000c6c0f 	andeq	r6, ip, pc, lsl #24
    34a0:	0019c300 	andseq	ip, r9, r0, lsl #6
    34a4:	012a0100 			; <UNDEFINED> instruction: 0x012a0100
    34a8:	7a0f018c 	bvc	3c3ae0 <_end+0x3bfad8>
    34ac:	dd00000c 	stcle	0, cr0, [r0, #-48]	; 0xffffffd0
    34b0:	01000019 	tsteq	r0, r9, lsl r0
    34b4:	0190012b 	orrseq	r0, r0, fp, lsr #2
    34b8:	000c860f 	andeq	r8, ip, pc, lsl #12
    34bc:	0019f700 	andseq	pc, r9, r0, lsl #14
    34c0:	012c0100 			; <UNDEFINED> instruction: 0x012c0100
    34c4:	930f0194 	movwls	r0, #61844	; 0xf194
    34c8:	1100000c 	tstne	r0, ip
    34cc:	0100001a 	tsteq	r0, sl, lsl r0
    34d0:	0198012d 	orrseq	r0, r8, sp, lsr #2
    34d4:	000ca10f 	andeq	sl, ip, pc, lsl #2
    34d8:	001a2b00 	andseq	r2, sl, r0, lsl #22
    34dc:	012e0100 			; <UNDEFINED> instruction: 0x012e0100
    34e0:	b00f019c 	mullt	pc, ip, r1	; <UNPREDICTABLE>
    34e4:	4500000c 	strmi	r0, [r0, #-12]
    34e8:	0100001a 	tsteq	r0, sl, lsl r0
    34ec:	01a00130 	lsreq	r0, r0, r1
    34f0:	000cbf0f 	andeq	fp, ip, pc, lsl #30
    34f4:	001a6000 	andseq	r6, sl, r0
    34f8:	01310100 	teqeq	r1, r0, lsl #2
    34fc:	cf0f01a4 	svcgt	0x000f01a4
    3500:	7b00000c 	blvc	3538 <__exidx_end+0x1110>
    3504:	0100001a 	tsteq	r0, sl, lsl r0
    3508:	01a80132 			; <UNDEFINED> instruction: 0x01a80132
    350c:	000cdc0f 	andeq	sp, ip, pc, lsl #24
    3510:	001a9600 	andseq	r9, sl, r0, lsl #12
    3514:	01330100 	teqeq	r3, r0, lsl #2
    3518:	e90f01ac 	stmdb	pc, {r2, r3, r5, r7, r8}	; <UNPREDICTABLE>
    351c:	b100000c 	tstlt	r0, ip
    3520:	0100001a 	tsteq	r0, sl, lsl r0
    3524:	01b00134 	lsrseq	r0, r4, r1
    3528:	000cf70f 	andeq	pc, ip, pc, lsl #14
    352c:	001acc00 	andseq	ip, sl, r0, lsl #24
    3530:	01350100 	teqeq	r5, r0, lsl #2
    3534:	030f01b4 	movweq	r0, #61876	; 0xf1b4
    3538:	e700000d 	str	r0, [r0, -sp]
    353c:	0100001a 	tsteq	r0, sl, lsl r0
    3540:	01b80136 			; <UNDEFINED> instruction: 0x01b80136
    3544:	000d100f 	andeq	r1, sp, pc
    3548:	001b0200 	andseq	r0, fp, r0, lsl #4
    354c:	01370100 	teqeq	r7, r0, lsl #2
    3550:	1e0f01bc 	mcrne	1, 0, r0, cr15, cr12, {5}
    3554:	1d00000d 	stcne	0, cr0, [r0, #-52]	; 0xffffffcc
    3558:	0100001b 	tsteq	r0, fp, lsl r0
    355c:	01c00138 	biceq	r0, r0, r8, lsr r1
    3560:	000d2d0f 	andeq	r2, sp, pc, lsl #26
    3564:	0011ab00 	andseq	sl, r1, r0, lsl #22
    3568:	013a0100 	teqeq	sl, r0, lsl #2
    356c:	3f0f01c4 	svccc	0x000f01c4
    3570:	d700000d 	strle	r0, [r0, -sp]
    3574:	0100000f 	tsteq	r0, pc
    3578:	01c8013c 	biceq	r0, r8, ip, lsr r1
    357c:	000d560f 	andeq	r5, sp, pc, lsl #12
    3580:	000ff200 	andeq	pc, pc, r0, lsl #4
    3584:	013d0100 	teqeq	sp, r0, lsl #2
    3588:	6e0f01cc 	adfvs<illegal precision>m	f0, f7, #4.0
    358c:	3c00000d 	stccc	0, cr0, [r0], {13}
    3590:	01000010 	tsteq	r0, r0, lsl r0
    3594:	01d0013e 	bicseq	r0, r0, lr, lsr r1
    3598:	000d860f 	andeq	r8, sp, pc, lsl #12
    359c:	001b3800 	andseq	r3, fp, r0, lsl #16
    35a0:	013f0100 	teqeq	pc, r0, lsl #2
    35a4:	9e0f01d4 	mcrls	1, 0, r0, cr15, cr4, {6}
    35a8:	5300000d 	movwpl	r0, #13
    35ac:	0100001b 	tsteq	r0, fp, lsl r0
    35b0:	01d80140 	bicseq	r0, r8, r0, asr #2
    35b4:	000db70f 	andeq	fp, sp, pc, lsl #14
    35b8:	001b7200 	andseq	r7, fp, r0, lsl #4
    35bc:	01420100 	mrseq	r0, (UNDEF: 82)
    35c0:	d00f01dc 	ldrdle	r0, [pc], -ip
    35c4:	9100000d 	tstls	r0, sp
    35c8:	0100001b 	tsteq	r0, fp, lsl r0
    35cc:	01e00144 	mvneq	r0, r4, asr #2
    35d0:	000de50f 	andeq	lr, sp, pc, lsl #10
    35d4:	001bac00 	andseq	sl, fp, r0, lsl #24
    35d8:	01450100 	mrseq	r0, (UNDEF: 85)
    35dc:	fb0f01e4 	blx	3c3d76 <_end+0x3bfd6e>
    35e0:	cb00000d 	blgt	361c <__exidx_end+0x11f4>
    35e4:	0100001b 	tsteq	r0, fp, lsl r0
    35e8:	01e80146 	mvneq	r0, r6, asr #2
    35ec:	000e110f 	andeq	r1, lr, pc, lsl #2
    35f0:	001bea00 	andseq	lr, fp, r0, lsl #20
    35f4:	01470100 	mrseq	r0, (UNDEF: 87)
    35f8:	260f01ec 	strcs	r0, [pc], -ip, ror #3
    35fc:	0500000e 	streq	r0, [r0, #-14]
    3600:	0100001c 	tsteq	r0, ip, lsl r0
    3604:	01f00148 	mvnseq	r0, r8, asr #2
    3608:	000e3c0f 	andeq	r3, lr, pc, lsl #24
    360c:	001c2400 	andseq	r2, ip, r0, lsl #8
    3610:	01490100 	mrseq	r0, (UNDEF: 89)
    3614:	520f01f4 	andpl	r0, pc, #244, 2	; 0x3d
    3618:	4300000e 	movwmi	r0, #14
    361c:	0100001c 	tsteq	r0, ip, lsl r0
    3620:	01f8014a 	mvnseq	r0, sl, asr #2
    3624:	000e680f 	andeq	r6, lr, pc, lsl #16
    3628:	001c5e00 	andseq	r5, ip, r0, lsl #28
    362c:	014b0100 	mrseq	r0, (UNDEF: 91)
    3630:	7f0f01fc 	svcvc	0x000f01fc
    3634:	7d00000e 	stcvc	0, cr0, [r0, #-56]	; 0xffffffc8
    3638:	0100001c 	tsteq	r0, ip, lsl r0
    363c:	0200014c 	andeq	r0, r0, #76, 2
    3640:	000e960f 	andeq	r9, lr, pc, lsl #12
    3644:	001c9c00 	andseq	r9, ip, r0, lsl #24
    3648:	014d0100 	mrseq	r0, (UNDEF: 93)
    364c:	aa0f0204 	bge	3c3e64 <_end+0x3bfe5c>
    3650:	b700000e 	strlt	r0, [r0, -lr]
    3654:	0100001c 	tsteq	r0, ip, lsl r0
    3658:	0208014e 	andeq	r0, r8, #-2147483629	; 0x80000013
    365c:	000ebf0f 	andeq	fp, lr, pc, lsl #30
    3660:	001cd600 	andseq	sp, ip, r0, lsl #12
    3664:	014f0100 	mrseq	r0, (UNDEF: 95)
    3668:	d40f020c 	strle	r0, [pc], #-524	; 3670 <__exidx_end+0x1248>
    366c:	f500000e 			; <UNDEFINED> instruction: 0xf500000e
    3670:	0100001c 	tsteq	r0, ip, lsl r0
    3674:	02100150 	andseq	r0, r0, #80, 2
    3678:	000ee90f 	andeq	lr, lr, pc, lsl #18
    367c:	001d1000 	andseq	r1, sp, r0
    3680:	01510100 	cmpeq	r1, r0, lsl #2
    3684:	ff0f0214 			; <UNDEFINED> instruction: 0xff0f0214
    3688:	2f00000e 	svccs	0x0000000e
    368c:	0100001d 	tsteq	r0, sp, lsl r0
    3690:	02180152 	andseq	r0, r8, #-2147483628	; 0x80000014
    3694:	000f150f 	andeq	r1, pc, pc, lsl #10
    3698:	001d4e00 	andseq	r4, sp, r0, lsl #28
    369c:	01530100 	cmpeq	r3, r0, lsl #2
    36a0:	2b0f021c 	blcs	3c3f18 <_end+0x3bff10>
    36a4:	6900000f 	stmdbvs	r0, {r0, r1, r2, r3}
    36a8:	0100001d 	tsteq	r0, sp, lsl r0
    36ac:	02200154 	eoreq	r0, r0, #84, 2
    36b0:	000f420f 	andeq	r4, pc, pc, lsl #4
    36b4:	001d8800 	andseq	r8, sp, r0, lsl #16
    36b8:	01550100 	cmpeq	r5, r0, lsl #2
    36bc:	590f0224 	stmdbpl	pc, {r2, r5, r9}	; <UNPREDICTABLE>
    36c0:	a700000f 	strge	r0, [r0, -pc]
    36c4:	0100001d 	tsteq	r0, sp, lsl r0
    36c8:	02280156 	eoreq	r0, r8, #-2147483627	; 0x80000015
    36cc:	000f700f 	andeq	r7, pc, pc
    36d0:	001dc200 	andseq	ip, sp, r0, lsl #4
    36d4:	01570100 	cmpeq	r7, r0, lsl #2
    36d8:	880f022c 	stmdahi	pc, {r2, r3, r5, r9}	; <UNPREDICTABLE>
    36dc:	e100000f 	tst	r0, pc
    36e0:	0100001d 	tsteq	r0, sp, lsl r0
    36e4:	02300158 	eorseq	r0, r0, #88, 2
    36e8:	000fa00f 	andeq	sl, pc, pc
    36ec:	001e0000 	andseq	r0, lr, r0
    36f0:	01590100 	cmpeq	r9, r0, lsl #2
    36f4:	b50f0234 	strlt	r0, [pc, #-564]	; 34c8 <__exidx_end+0x10a0>
    36f8:	1700000f 	strne	r0, [r0, -pc]
    36fc:	0100001e 	tsteq	r0, lr, lsl r0
    3700:	0238015a 	eorseq	r0, r8, #-2147483626	; 0x80000016
    3704:	000fcb0f 	andeq	ip, pc, pc, lsl #22
    3708:	001e3200 	andseq	r3, lr, r0, lsl #4
    370c:	015b0100 	cmpeq	fp, r0, lsl #2
    3710:	e10f023c 	tst	pc, ip, lsr r2	; <UNPREDICTABLE>
    3714:	3c00000f 	stccc	0, cr0, [r0], {15}
    3718:	01000019 	tsteq	r0, r9, lsl r0
    371c:	0240015d 	subeq	r0, r0, #1073741847	; 0x40000017
    3720:	000ff20f 	andeq	pc, pc, pc, lsl #4
    3724:	001e4d00 	andseq	r4, lr, r0, lsl #26
    3728:	01600100 	cmneq	r0, r0, lsl #2
    372c:	070f0244 	streq	r0, [pc, -r4, asr #4]
    3730:	67000010 	smladvs	r0, r0, r0, r0
    3734:	0100001e 	tsteq	r0, lr, lsl r0
    3738:	02480161 	subeq	r0, r8, #1073741848	; 0x40000018
    373c:	00101d0f 	andseq	r1, r0, pc, lsl #26
    3740:	001e8100 	andseq	r8, lr, r0, lsl #2
    3744:	01620100 	cmneq	r2, r0, lsl #2
    3748:	300f024c 	andcc	r0, pc, ip, asr #4
    374c:	9b000010 	blls	3794 <__exidx_end+0x136c>
    3750:	0100001e 	tsteq	r0, lr, lsl r0
    3754:	02500163 	subseq	r0, r0, #-1073741800	; 0xc0000018
    3758:	0010430f 	andseq	r4, r0, pc, lsl #6
    375c:	001eb500 	andseq	fp, lr, r0, lsl #10
    3760:	01640100 	cmneq	r4, r0, lsl #2
    3764:	570f0254 	smlsdpl	pc, r4, r2, r0	; <UNPREDICTABLE>
    3768:	cf000010 	svcgt	0x00000010
    376c:	0100001e 	tsteq	r0, lr, lsl r0
    3770:	02580165 	subseq	r0, r8, #1073741849	; 0x40000019
    3774:	0010690f 	andseq	r6, r0, pc, lsl #18
    3778:	001ee900 	andseq	lr, lr, r0, lsl #18
    377c:	01660100 	cmneq	r6, r0, lsl #2
    3780:	7c0f025c 	sfmvc	f0, 4, [pc], {92}	; 0x5c
    3784:	03000010 	movweq	r0, #16
    3788:	0100001f 	tsteq	r0, pc, lsl r0
    378c:	02600167 	rsbeq	r0, r0, #-1073741799	; 0xc0000019
    3790:	0010900f 	andseq	r9, r0, pc
    3794:	001f1d00 	andseq	r1, pc, r0, lsl #26
    3798:	01680100 	cmneq	r8, r0, lsl #2
    379c:	a50f0264 	strge	r0, [pc, #-612]	; 3540 <__exidx_end+0x1118>
    37a0:	37000010 	smladcc	r0, r0, r0, r0
    37a4:	0100001f 	tsteq	r0, pc, lsl r0
    37a8:	0268016a 	rsbeq	r0, r8, #-2147483622	; 0x8000001a
    37ac:	0010ba0f 	andseq	fp, r0, pc, lsl #20
    37b0:	001f5200 	andseq	r5, pc, r0, lsl #4
    37b4:	016b0100 	cmneq	fp, r0, lsl #2
    37b8:	d00f026c 	andle	r0, pc, ip, ror #4
    37bc:	6d000010 	stcvs	0, cr0, [r0, #-64]	; 0xffffffc0
    37c0:	0100001f 	tsteq	r0, pc, lsl r0
    37c4:	0270016c 	rsbseq	r0, r0, #108, 2
    37c8:	0010e30f 	andseq	lr, r0, pc, lsl #6
    37cc:	001f8800 	andseq	r8, pc, r0, lsl #16
    37d0:	016d0100 	cmneq	sp, r0, lsl #2
    37d4:	f60f0274 			; <UNDEFINED> instruction: 0xf60f0274
    37d8:	a3000010 	movwge	r0, #16
    37dc:	0100001f 	tsteq	r0, pc, lsl r0
    37e0:	0278016e 	rsbseq	r0, r8, #-2147483621	; 0x8000001b
    37e4:	00110a0f 	andseq	r0, r1, pc, lsl #20
    37e8:	001fbe00 	andseq	fp, pc, r0, lsl #28
    37ec:	016f0100 	cmneq	pc, r0, lsl #2
    37f0:	1c0f027c 	sfmne	f0, 4, [pc], {124}	; 0x7c
    37f4:	d9000011 	stmdble	r0, {r0, r4}
    37f8:	0100001f 	tsteq	r0, pc, lsl r0
    37fc:	02800170 	addeq	r0, r0, #112, 2
    3800:	00112f0f 	andseq	r2, r1, pc, lsl #30
    3804:	001ff400 	andseq	pc, pc, r0, lsl #8
    3808:	01710100 	cmneq	r1, r0, lsl #2
    380c:	430f0284 	movwmi	r0, #62084	; 0xf284
    3810:	0f000011 	svceq	0x00000011
    3814:	01000020 	tsteq	r0, r0, lsr #32
    3818:	02880172 	addeq	r0, r8, #-2147483620	; 0x8000001c
    381c:	0011580f 	andseq	r5, r1, pc, lsl #16
    3820:	00202a00 	eoreq	r2, r0, r0, lsl #20
    3824:	01740100 	cmneq	r4, r0, lsl #2
    3828:	620f028c 	andvs	r0, pc, #140, 4	; 0xc0000008
    382c:	59000011 	stmdbpl	r0, {r0, r4}
    3830:	01000020 	tsteq	r0, r0, lsr #32
    3834:	02900175 	addseq	r0, r0, #1073741853	; 0x4000001d
    3838:	0011720f 	andseq	r7, r1, pc, lsl #4
    383c:	00206e00 	eoreq	r6, r0, r0, lsl #28
    3840:	01760100 	cmneq	r6, r0, lsl #2
    3844:	810f0294 			; <UNDEFINED> instruction: 0x810f0294
    3848:	8d000011 	stchi	0, cr0, [r0, #-68]	; 0xffffffbc
    384c:	01000020 	tsteq	r0, r0, lsr #32
    3850:	02980177 	addseq	r0, r8, #-1073741795	; 0xc000001d
    3854:	0011940f 	andseq	r9, r1, pc, lsl #8
    3858:	0020a300 	eoreq	sl, r0, r0, lsl #6
    385c:	01780100 	cmneq	r8, r0, lsl #2
    3860:	a10f029c 			; <UNDEFINED> instruction: 0xa10f029c
    3864:	59000011 	stmdbpl	r0, {r0, r4}
    3868:	01000020 	tsteq	r0, r0, lsr #32
    386c:	02a00179 	adceq	r0, r0, #1073741854	; 0x4000001e
    3870:	0011b40f 	andseq	fp, r1, pc, lsl #8
    3874:	0020b800 	eoreq	fp, r0, r0, lsl #16
    3878:	017b0100 	cmneq	fp, r0, lsl #2
    387c:	c60f02a4 	strgt	r0, [pc], -r4, lsr #5
    3880:	d2000011 	andle	r0, r0, #17
    3884:	01000020 	tsteq	r0, r0, lsr #32
    3888:	02a8017c 	adceq	r0, r8, #124, 2
    388c:	0011dc0f 	andseq	sp, r1, pc, lsl #24
    3890:	0020e800 	eoreq	lr, r0, r0, lsl #16
    3894:	017d0100 	cmneq	sp, r0, lsl #2
    3898:	f20f02ac 	vhsub.s8	d0, d31, d28
    389c:	08000011 	stmdaeq	r0, {r0, r4}
    38a0:	01000021 	tsteq	r0, r1, lsr #32
    38a4:	02b0017e 	adcseq	r0, r0, #-2147483617	; 0x8000001f
    38a8:	00120e0f 	andseq	r0, r2, pc, lsl #28
    38ac:	00213200 	eoreq	r3, r1, r0, lsl #4
    38b0:	017f0100 	cmneq	pc, r0, lsl #2
    38b4:	240f02b4 	strcs	r0, [pc], #-692	; 38bc <__exidx_end+0x1494>
    38b8:	4c000012 	stcmi	0, cr0, [r0], {18}
    38bc:	01000021 	tsteq	r0, r1, lsr #32
    38c0:	02b80180 	adcseq	r0, r8, #128, 2
    38c4:	00123a0f 	andseq	r3, r2, pc, lsl #20
    38c8:	00216700 	eoreq	r6, r1, r0, lsl #14
    38cc:	01820100 	orreq	r0, r2, r0, lsl #2
    38d0:	580f02bc 	stmdapl	pc, {r2, r3, r4, r5, r7, r9}	; <UNPREDICTABLE>
    38d4:	87000012 	smladhi	r0, r2, r0, r0
    38d8:	01000021 	tsteq	r0, r1, lsr #32
    38dc:	02c00183 	sbceq	r0, r0, #-1073741792	; 0xc0000020
    38e0:	0012700f 	andseq	r7, r2, pc
    38e4:	0021a700 	eoreq	sl, r1, r0, lsl #14
    38e8:	01840100 	orreq	r0, r4, r0, lsl #2
    38ec:	880f02c4 	stmdahi	pc, {r2, r6, r7, r9}	; <UNPREDICTABLE>
    38f0:	c7000012 	smladgt	r0, r2, r0, r0
    38f4:	01000021 	tsteq	r0, r1, lsr #32
    38f8:	02c80185 	sbceq	r0, r8, #1073741857	; 0x40000021
    38fc:	0012a20f 	andseq	sl, r2, pc, lsl #4
    3900:	0021e700 	eoreq	lr, r1, r0, lsl #14
    3904:	01860100 	orreq	r0, r6, r0, lsl #2
    3908:	b80f02cc 	stmdalt	pc, {r2, r3, r6, r7, r9}	; <UNPREDICTABLE>
    390c:	07000012 	smladeq	r0, r2, r0, r0
    3910:	01000022 	tsteq	r0, r2, lsr #32
    3914:	02d00187 	sbcseq	r0, r0, #-1073741791	; 0xc0000021
    3918:	0012d00f 	andseq	sp, r2, pc
    391c:	00222700 	eoreq	r2, r2, r0, lsl #14
    3920:	01880100 	orreq	r0, r8, r0, lsl #2
    3924:	ea0f02d4 	b	3c447c <_end+0x3c0474>
    3928:	47000012 	smladmi	r0, r2, r0, r0
    392c:	01000022 	tsteq	r0, r2, lsr #32
    3930:	02d80189 	sbcseq	r0, r8, #1073741858	; 0x40000022
    3934:	0013060f 	andseq	r0, r3, pc, lsl #12
    3938:	00226700 	eoreq	r6, r2, r0, lsl #14
    393c:	018b0100 	orreq	r0, fp, r0, lsl #2
    3940:	1e0f02dc 	mcrne	2, 0, r0, cr15, cr12, {6}
    3944:	81000013 	tsthi	r0, r3, lsl r0
    3948:	01000022 	tsteq	r0, r2, lsr #32
    394c:	02e0018c 	rsceq	r0, r0, #140, 2	; 0x23
    3950:	0013330f 	andseq	r3, r3, pc, lsl #6
    3954:	0022a000 	eoreq	sl, r2, r0
    3958:	018d0100 	orreq	r0, sp, r0, lsl #2
    395c:	480f02e4 	stmdami	pc, {r2, r5, r6, r7, r9}	; <UNPREDICTABLE>
    3960:	bf000013 	svclt	0x00000013
    3964:	01000022 	tsteq	r0, r2, lsr #32
    3968:	02e8018e 	rsceq	r0, r8, #-2147483613	; 0x80000023
    396c:	00135e0f 	andseq	r5, r3, pc, lsl #28
    3970:	0022de00 	eoreq	sp, r2, r0, lsl #28
    3974:	018f0100 	orreq	r0, pc, r0, lsl #2
    3978:	720f02ec 	andvc	r0, pc, #236, 4	; 0xc000000e
    397c:	fd000013 	stc2	0, cr0, [r0, #-76]	; 0xffffffb4
    3980:	01000022 	tsteq	r0, r2, lsr #32
    3984:	02f00190 	rscseq	r0, r0, #144, 2	; 0x24
    3988:	0013870f 	andseq	r8, r3, pc, lsl #14
    398c:	00231c00 	eoreq	r1, r3, r0, lsl #24
    3990:	01910100 	orrseq	r0, r1, r0, lsl #2
    3994:	9d0f02f4 	sfmls	f0, 4, [pc, #-976]	; 35cc <__exidx_end+0x11a4>
    3998:	3b000013 	blcc	39ec <__exidx_end+0x15c4>
    399c:	01000023 	tsteq	r0, r3, lsr #32
    39a0:	02f80192 	rscseq	r0, r8, #-2147483612	; 0x80000024
    39a4:	0013b40f 	andseq	fp, r3, pc, lsl #8
    39a8:	00235a00 	eoreq	r5, r3, r0, lsl #20
    39ac:	01940100 	orrseq	r0, r4, r0, lsl #2
    39b0:	d00f02fc 	strdle	r0, [pc], -ip
    39b4:	75000013 	strvc	r0, [r0, #-19]	; 0xffffffed
    39b8:	01000023 	tsteq	r0, r3, lsr #32
    39bc:	03000196 	movweq	r0, #406	; 0x196
    39c0:	0013e90f 	andseq	lr, r3, pc, lsl #18
    39c4:	00239000 	eoreq	r9, r3, r0
    39c8:	01980100 	orrseq	r0, r8, r0, lsl #2
    39cc:	020f0304 	andeq	r0, pc, #4, 6	; 0x10000000
    39d0:	ab000014 	blge	3a28 <__exidx_end+0x1600>
    39d4:	01000023 	tsteq	r0, r3, lsr #32
    39d8:	0308019a 	movweq	r0, #33178	; 0x819a
    39dc:	00141c0f 	andseq	r1, r4, pc, lsl #24
    39e0:	0023c600 	eoreq	ip, r3, r0, lsl #12
    39e4:	019c0100 	orrseq	r0, ip, r0, lsl #2
    39e8:	340f030c 	strcc	r0, [pc], #-780	; 39f0 <__exidx_end+0x15c8>
    39ec:	e1000014 	tst	r0, r4, lsl r0
    39f0:	01000023 	tsteq	r0, r3, lsr #32
    39f4:	0310019e 	tsteq	r0, #-2147483609	; 0x80000027
    39f8:	00144d0f 	andseq	r4, r4, pc, lsl #26
    39fc:	0023fc00 	eoreq	pc, r3, r0, lsl #24
    3a00:	01a00100 	lsleq	r0, r0, #2
    3a04:	670f0314 	smladvs	pc, r4, r3, r0	; <UNPREDICTABLE>
    3a08:	17000014 	smladne	r0, r4, r0, r0
    3a0c:	01000024 	tsteq	r0, r4, lsr #32
    3a10:	031801a2 	tsteq	r8, #-2147483608	; 0x80000028
    3a14:	0014820f 	andseq	r8, r4, pc, lsl #4
    3a18:	00243200 	eoreq	r3, r4, r0, lsl #4
    3a1c:	01a50100 			; <UNDEFINED> instruction: 0x01a50100
    3a20:	980f031c 	stmdals	pc, {r2, r3, r4, r8, r9}	; <UNPREDICTABLE>
    3a24:	52000014 	andpl	r0, r0, #20
    3a28:	01000024 	tsteq	r0, r4, lsr #32
    3a2c:	032001a7 			; <UNDEFINED> instruction: 0x032001a7
    3a30:	0014ab0f 	andseq	sl, r4, pc, lsl #22
    3a34:	00247200 	eoreq	r7, r4, r0, lsl #4
    3a38:	01a90100 			; <UNDEFINED> instruction: 0x01a90100
    3a3c:	be0f0324 	cdplt	3, 0, cr0, cr15, cr4, {1}
    3a40:	92000014 	andls	r0, r0, #20
    3a44:	01000024 	tsteq	r0, r4, lsr #32
    3a48:	032801ab 			; <UNDEFINED> instruction: 0x032801ab
    3a4c:	0014d20f 	andseq	sp, r4, pc, lsl #4
    3a50:	0024b200 	eoreq	fp, r4, r0, lsl #4
    3a54:	01ad0100 			; <UNDEFINED> instruction: 0x01ad0100
    3a58:	e40f032c 	str	r0, [pc], #-812	; 3a60 <__exidx_end+0x1638>
    3a5c:	d2000014 	andle	r0, r0, #20
    3a60:	01000024 	tsteq	r0, r4, lsr #32
    3a64:	033001af 	teqeq	r0, #-1073741781	; 0xc000002b
    3a68:	0014f70f 	andseq	pc, r4, pc, lsl #14
    3a6c:	0024f200 	eoreq	pc, r4, r0, lsl #4
    3a70:	01b10100 			; <UNDEFINED> instruction: 0x01b10100
    3a74:	0b0f0334 	bleq	3c474c <_end+0x3c0744>
    3a78:	12000015 	andne	r0, r0, #21
    3a7c:	01000025 	tsteq	r0, r5, lsr #32
    3a80:	033801b3 	teqeq	r8, #-1073741780	; 0xc000002c
    3a84:	0015200f 	andseq	r2, r5, pc
    3a88:	00253200 	eoreq	r3, r5, r0, lsl #4
    3a8c:	01b70100 			; <UNDEFINED> instruction: 0x01b70100
    3a90:	360f033c 			; <UNDEFINED> instruction: 0x360f033c
    3a94:	5c000015 	stcpl	0, cr0, [r0], {21}
    3a98:	01000025 	tsteq	r0, r5, lsr #32
    3a9c:	034001b9 	movteq	r0, #441	; 0x1b9
    3aa0:	0015490f 	andseq	r4, r5, pc, lsl #18
    3aa4:	00257c00 	eoreq	r7, r5, r0, lsl #24
    3aa8:	01bb0100 			; <UNDEFINED> instruction: 0x01bb0100
    3aac:	5c0f0344 	stcpl	3, cr0, [pc], {68}	; 0x44
    3ab0:	9c000015 	stcls	0, cr0, [r0], {21}
    3ab4:	01000025 	tsteq	r0, r5, lsr #32
    3ab8:	034801bd 	movteq	r0, #33213	; 0x81bd
    3abc:	0015700f 	andseq	r7, r5, pc
    3ac0:	0025c600 	eoreq	ip, r5, r0, lsl #12
    3ac4:	01bf0100 			; <UNDEFINED> instruction: 0x01bf0100
    3ac8:	820f034c 	andhi	r0, pc, #76, 6	; 0x30000001
    3acc:	f0000015 			; <UNDEFINED> instruction: 0xf0000015
    3ad0:	01000025 	tsteq	r0, r5, lsr #32
    3ad4:	035001c1 	cmpeq	r0, #1073741872	; 0x40000030
    3ad8:	0015950f 	andseq	r9, r5, pc, lsl #10
    3adc:	00261a00 	eoreq	r1, r6, r0, lsl #20
    3ae0:	01c30100 	biceq	r0, r3, r0, lsl #2
    3ae4:	a90f0354 	stmdbge	pc, {r2, r4, r6, r8, r9}	; <UNPREDICTABLE>
    3ae8:	44000015 	strmi	r0, [r0], #-21	; 0xffffffeb
    3aec:	01000026 	tsteq	r0, r6, lsr #32
    3af0:	035801c5 	cmpeq	r8, #1073741873	; 0x40000031
    3af4:	0015be0f 	andseq	fp, r5, pc, lsl #28
    3af8:	00266e00 	eoreq	r6, r6, r0, lsl #28
    3afc:	01c80100 	biceq	r0, r8, r0, lsl #2
    3b00:	ee0f035c 	mcr	3, 0, r0, cr15, cr12, {2}
    3b04:	cb000015 	blgt	3b60 <__exidx_end+0x1738>
    3b08:	01000026 	tsteq	r0, r6, lsr #32
    3b0c:	036001ca 	cmneq	r0, #-2147483598	; 0x80000032
    3b10:	0016000f 	andseq	r0, r6, pc
    3b14:	0026e000 	eoreq	lr, r6, r0
    3b18:	01cb0100 	biceq	r0, fp, r0, lsl #2
    3b1c:	0d0f0364 	stceq	3, cr0, [pc, #-400]	; 3994 <__exidx_end+0x156c>
    3b20:	e0000016 	and	r0, r0, r6, lsl r0
    3b24:	01000026 	tsteq	r0, r6, lsr #32
    3b28:	036801cc 	cmneq	r8, #204, 2	; 0x33
    3b2c:	0016190f 	andseq	r1, r6, pc, lsl #18
    3b30:	0026f500 	eoreq	pc, r6, r0, lsl #10
    3b34:	01cd0100 	biceq	r0, sp, r0, lsl #2
    3b38:	960f036c 	strls	r0, [pc], -ip, ror #6
    3b3c:	0f000016 	svceq	0x00000016
    3b40:	01000027 	tsteq	r0, r7, lsr #32
    3b44:	037001cf 	cmneq	r0, #-1073741773	; 0xc0000033
    3b48:	0016a60f 	andseq	sl, r6, pc, lsl #12
    3b4c:	00272f00 	eoreq	r2, r7, r0, lsl #30
    3b50:	01d00100 	bicseq	r0, r0, r0, lsl #2
    3b54:	b90f0374 	stmdblt	pc, {r2, r4, r5, r6, r8, r9}	; <UNPREDICTABLE>
    3b58:	54000016 	strpl	r0, [r0], #-22	; 0xffffffea
    3b5c:	01000027 	tsteq	r0, r7, lsr #32
    3b60:	037801d2 	cmneq	r8, #-2147483596	; 0x80000034
    3b64:	0016d30f 	andseq	sp, r6, pc, lsl #6
    3b68:	00276e00 	eoreq	r6, r7, r0, lsl #28
    3b6c:	01d30100 	bicseq	r0, r3, r0, lsl #2
    3b70:	f10f037c 			; <UNDEFINED> instruction: 0xf10f037c
    3b74:	6e000016 	mcrvs	0, 0, r0, cr0, cr6, {0}
    3b78:	01000020 	tsteq	r0, r0, lsr #32
    3b7c:	038001d5 	orreq	r0, r0, #1073741877	; 0x40000035
    3b80:	0017030f 	andseq	r0, r7, pc, lsl #6
    3b84:	00208d00 	eoreq	r8, r0, r0, lsl #26
    3b88:	01d60100 	bicseq	r0, r6, r0, lsl #2
    3b8c:	190f0384 	stmdbne	pc, {r2, r7, r8, r9}	; <UNPREDICTABLE>
    3b90:	89000017 	stmdbhi	r0, {r0, r1, r2, r4}
    3b94:	01000027 	tsteq	r0, r7, lsr #32
    3b98:	038801d8 	orreq	r0, r8, #216, 2	; 0x36
    3b9c:	0017300f 	andseq	r3, r7, pc
    3ba0:	0027a900 	eoreq	sl, r7, r0, lsl #18
    3ba4:	01d90100 	bicseq	r0, r9, r0, lsl #2
    3ba8:	440f038c 	strmi	r0, [pc], #-908	; 3bb0 <__exidx_end+0x1788>
    3bac:	ba000017 	blt	3c10 <__exidx_end+0x17e8>
    3bb0:	01000027 	tsteq	r0, r7, lsr #32
    3bb4:	039001db 	orrseq	r0, r0, #-1073741770	; 0xc0000036
    3bb8:	0017530f 	andseq	r5, r7, pc, lsl #6
    3bbc:	0027ca00 	eoreq	ip, r7, r0, lsl #20
    3bc0:	01dd0100 	bicseq	r0, sp, r0, lsl #2
    3bc4:	670f0394 			; <UNDEFINED> instruction: 0x670f0394
    3bc8:	e4000017 	str	r0, [r0], #-23	; 0xffffffe9
    3bcc:	01000027 	tsteq	r0, r7, lsr #32
    3bd0:	039801de 	orrseq	r0, r8, #-2147483593	; 0x80000037
    3bd4:	00177e0f 	andseq	r7, r7, pc, lsl #28
    3bd8:	0027f900 	eoreq	pc, r7, r0, lsl #18
    3bdc:	01df0100 	bicseq	r0, pc, r0, lsl #2
    3be0:	960f039c 			; <UNDEFINED> instruction: 0x960f039c
    3be4:	0e000017 	mcreq	0, 0, r0, cr0, cr7, {0}
    3be8:	01000028 	tsteq	r0, r8, lsr #32
    3bec:	03a001e2 	moveq	r0, #-2147483592	; 0x80000038
    3bf0:	0d750300 	ldcleq	3, cr0, [r5, #-0]
    3bf4:	d4090000 	strle	r0, [r9], #-0
    3bf8:	0a000000 	beq	3c00 <__exidx_end+0x17d8>
    3bfc:	0000011b 	andeq	r0, r0, fp, lsl r1
    3c00:	0d850300 	stceq	3, cr0, [r5]
    3c04:	a4090000 	strge	r0, [r9], #-0
    3c08:	0a00000d 	beq	3c44 <__exidx_end+0x181c>
    3c0c:	0000011b 	andeq	r0, r0, fp, lsl r1
    3c10:	000dba0a 	andeq	fp, sp, sl, lsl #20
    3c14:	0daf0a00 			; <UNDEFINED> instruction: 0x0daf0a00
    3c18:	cb0a0000 	blgt	283c20 <_end+0x27fc18>
    3c1c:	0a00000d 	beq	3c58 <__exidx_end+0x1830>
    3c20:	00000dfd 	strdeq	r0, [r0], -sp
    3c24:	0daf0400 	cfstrseq	mvf0, [pc]	; 3c2c <__exidx_end+0x1804>
    3c28:	043f0000 	ldrteq	r0, [pc], #-0	; 3c30 <__exidx_end+0x1808>
    3c2c:	55010000 	strpl	r0, [r1, #-0]
    3c30:	0000c304 	andeq	ip, r0, r4, lsl #6
    3c34:	00027600 	andeq	r7, r2, r0, lsl #12
    3c38:	03540100 	cmpeq	r4, #0, 2
    3c3c:	00000dbf 			; <UNDEFINED> instruction: 0x00000dbf
    3c40:	000dc405 	andeq	ip, sp, r5, lsl #8
    3c44:	02d00b00 	sbcseq	r0, r0, #0, 22
    3c48:	01080000 	mrseq	r0, (UNDEF: 8)
    3c4c:	000dd003 	andeq	sp, sp, r3
    3c50:	0dd50500 	cfldr64eq	mvdx0, [r5]
    3c54:	e0040000 	and	r0, r4, r0
    3c58:	6200000d 	andvs	r0, r0, #13
    3c5c:	01000004 	tsteq	r0, r4
    3c60:	0deb0420 	cfstrdeq	mvd0, [fp, #128]!	; 0x80
    3c64:	045b0000 	ldrbeq	r0, [fp], #-0
    3c68:	3a020000 	bcc	83c70 <_end+0x7fc68>
    3c6c:	000df604 	andeq	pc, sp, r4, lsl #12
    3c70:	00045200 	andeq	r5, r4, r0, lsl #4
    3c74:	0b240200 	bleq	90447c <_end+0x900474>
    3c78:	00000446 	andeq	r0, r0, r6, asr #8
    3c7c:	d4040106 	strle	r0, [r4], #-262	; 0xfffffefa
    3c80:	68000000 	stmdavs	r0, {}	; <UNPREDICTABLE>
    3c84:	01000004 	tsteq	r0, r4
    3c88:	0e0d0329 	cdpeq	3, 0, cr0, cr13, cr9, {1}
    3c8c:	a4090000 	strge	r0, [r9], #-0
    3c90:	0a00000d 	beq	3ccc <__exidx_end+0x18a4>
    3c94:	0000011b 	andeq	r0, r0, fp, lsl r1
    3c98:	000dba0a 	andeq	fp, sp, sl, lsl #20
    3c9c:	22030000 	andcs	r0, r3, #0
    3ca0:	0900000e 	stmdbeq	r0, {r1, r2, r3}
    3ca4:	00000e32 	andeq	r0, r0, r2, lsr lr
    3ca8:	00011b0a 	andeq	r1, r1, sl, lsl #22
    3cac:	0daf0a00 			; <UNDEFINED> instruction: 0x0daf0a00
    3cb0:	04000000 	streq	r0, [r0], #-0
    3cb4:	00000e3d 	andeq	r0, r0, sp, lsr lr
    3cb8:	00000497 	muleq	r0, r7, r4
    3cbc:	42036a01 	andmi	r6, r3, #4096	; 0x1000
    3cc0:	1000000e 	andne	r0, r0, lr
    3cc4:	0000048c 	andeq	r0, r0, ip, lsl #9
    3cc8:	000e4c03 	andeq	r4, lr, r3, lsl #24
    3ccc:	0e5c0900 	vnmlseq.f16	s1, s24, s0	; <UNPREDICTABLE>
    3cd0:	1b0a0000 	blne	283cd8 <_end+0x27fcd0>
    3cd4:	0a000001 	beq	3ce0 <__exidx_end+0x18b8>
    3cd8:	00000daf 	andeq	r0, r0, pc, lsr #27
    3cdc:	0e670400 	cdpeq	4, 6, cr0, cr7, cr0, {0}
    3ce0:	04be0000 	ldrteq	r0, [lr], #0
    3ce4:	67010000 	strvs	r0, [r1, -r0]
    3ce8:	000e6c03 	andeq	r6, lr, r3, lsl #24
    3cec:	04b41000 	ldrteq	r1, [r4], #0
    3cf0:	76030000 	strvc	r0, [r3], -r0
    3cf4:	0900000e 	stmdbeq	r0, {r1, r2, r3}
    3cf8:	00000daf 	andeq	r0, r0, pc, lsr #27
    3cfc:	00011b0a 	andeq	r1, r1, sl, lsl #22
    3d00:	0da40a00 			; <UNDEFINED> instruction: 0x0da40a00
    3d04:	320a0000 	andcc	r0, sl, #0
    3d08:	0a00000e 	beq	3d48 <__exidx_end+0x1920>
    3d0c:	00000e90 	muleq	r0, r0, lr
    3d10:	0e9b0400 	cdpeq	4, 9, cr0, cr11, cr0, {0}
    3d14:	04f90000 	ldrbteq	r0, [r9], #0
    3d18:	1f010000 	svcne	0x00010000
    3d1c:	000ea604 	andeq	sl, lr, r4, lsl #12
    3d20:	0004f100 	andeq	pc, r4, r0, lsl #2
    3d24:	043b0200 	ldrteq	r0, [fp], #-512	; 0xfffffe00
    3d28:	00000eb1 			; <UNDEFINED> instruction: 0x00000eb1
    3d2c:	000004e7 	andeq	r0, r0, r7, ror #9
    3d30:	d90b2502 	stmdble	fp, {r1, r8, sl, sp}
    3d34:	08000004 	stmdaeq	r0, {r2}
    3d38:	0ebd0301 	cdpeq	3, 11, cr0, cr13, cr1, {0}
    3d3c:	a4090000 	strge	r0, [r9], #-0
    3d40:	0a00000d 	beq	3d7c <__exidx_end+0x1954>
    3d44:	0000011b 	andeq	r0, r0, fp, lsl r1
    3d48:	000da40a 	andeq	sl, sp, sl, lsl #8
    3d4c:	d2030000 	andle	r0, r3, #0
    3d50:	0900000e 	stmdbeq	r0, {r1, r2, r3}
    3d54:	00000e90 	muleq	r0, r0, lr
    3d58:	00011b0a 	andeq	r1, r1, sl, lsl #22
    3d5c:	0da40a00 			; <UNDEFINED> instruction: 0x0da40a00
    3d60:	a40a0000 	strge	r0, [sl], #-0
    3d64:	0000000d 	andeq	r0, r0, sp
    3d68:	000eec03 	andeq	lr, lr, r3, lsl #24
    3d6c:	0daf0900 			; <UNDEFINED> instruction: 0x0daf0900
    3d70:	1b0a0000 	blne	283d78 <_end+0x27fd70>
    3d74:	0a000001 	beq	3d80 <__exidx_end+0x1958>
    3d78:	00000da4 	andeq	r0, r0, r4, lsr #27
    3d7c:	000e5c0a 	andeq	r5, lr, sl, lsl #24
    3d80:	0e900a00 	vfnmseq.f32	s0, s0, s0
    3d84:	03000000 	movweq	r0, #0
    3d88:	00000f0b 	andeq	r0, r0, fp, lsl #30
    3d8c:	0000d409 	andeq	sp, r0, r9, lsl #8
    3d90:	011b0a00 	tsteq	fp, r0, lsl #20
    3d94:	1b0a0000 	blne	283d9c <_end+0x27fd94>
    3d98:	0000000f 	andeq	r0, r0, pc
    3d9c:	000daf04 	andeq	sl, sp, r4, lsl #30
    3da0:	00053800 	andeq	r3, r5, r0, lsl #16
    3da4:	03610100 	cmneq	r1, #0, 2
    3da8:	00000f2b 	andeq	r0, r0, fp, lsr #30
    3dac:	0000d409 	andeq	sp, r0, r9, lsl #8
    3db0:	011b0a00 	tsteq	fp, r0, lsl #20
    3db4:	a40a0000 	strge	r0, [sl], #-0
    3db8:	0a00000d 	beq	3df4 <__exidx_end+0x19cc>
    3dbc:	00000dba 			; <UNDEFINED> instruction: 0x00000dba
    3dc0:	0f450300 	svceq	0x00450300
    3dc4:	1b090000 	blne	243dcc <_end+0x23fdc4>
    3dc8:	0a00000f 	beq	3e0c <__exidx_end+0x19e4>
    3dcc:	0000011b 	andeq	r0, r0, fp, lsl r1
    3dd0:	0f550300 	svceq	0x00550300
    3dd4:	0a110000 	beq	443ddc <_end+0x43fdd4>
    3dd8:	0000011b 	andeq	r0, r0, fp, lsl r1
    3ddc:	0f610300 	svceq	0x00610300
    3de0:	0a110000 	beq	443de8 <_end+0x43fde0>
    3de4:	0000011b 	andeq	r0, r0, fp, lsl r1
    3de8:	000dba0a 	andeq	fp, sp, sl, lsl #20
    3dec:	72030000 	andvc	r0, r3, #0
    3df0:	0900000f 	stmdbeq	r0, {r0, r1, r2, r3}
    3df4:	000000d4 	ldrdeq	r0, [r0], -r4
    3df8:	00011b0a 	andeq	r1, r1, sl, lsl #22
    3dfc:	00d40a00 	sbcseq	r0, r4, r0, lsl #20
    3e00:	03000000 	movweq	r0, #0
    3e04:	00000f87 	andeq	r0, r0, r7, lsl #31
    3e08:	000daf09 	andeq	sl, sp, r9, lsl #30
    3e0c:	011b0a00 	tsteq	fp, r0, lsl #20
    3e10:	af0a0000 	svcge	0x000a0000
    3e14:	0000000d 	andeq	r0, r0, sp
    3e18:	000f9c03 	andeq	r9, pc, r3, lsl #24
    3e1c:	1b0a1100 	blne	288224 <_end+0x28421c>
    3e20:	0a000001 	beq	3e2c <__exidx_end+0x1a04>
    3e24:	00000daf 	andeq	r0, r0, pc, lsr #27
    3e28:	0fad0300 	svceq	0x00ad0300
    3e2c:	90090000 	andls	r0, r9, r0
    3e30:	0a00000e 	beq	3e70 <_DYNAMIC+0x1c>
    3e34:	0000011b 	andeq	r0, r0, fp, lsl r1
    3e38:	000daf0a 	andeq	sl, sp, sl, lsl #30
    3e3c:	0daf0a00 			; <UNDEFINED> instruction: 0x0daf0a00
    3e40:	03000000 	movweq	r0, #0
    3e44:	00000fc7 	andeq	r0, r0, r7, asr #31
    3e48:	000daf09 	andeq	sl, sp, r9, lsl #30
    3e4c:	011b0a00 	tsteq	fp, r0, lsl #20
    3e50:	a40a0000 	strge	r0, [sl], #-0
    3e54:	0000000d 	andeq	r0, r0, sp
    3e58:	000fdc03 	andeq	sp, pc, r3, lsl #24
    3e5c:	0daf0900 			; <UNDEFINED> instruction: 0x0daf0900
    3e60:	1b0a0000 	blne	283e68 <_end+0x27fe60>
    3e64:	0a000001 	beq	3e70 <_DYNAMIC+0x1c>
    3e68:	00000da4 	andeq	r0, r0, r4, lsr #27
    3e6c:	000e320a 	andeq	r3, lr, sl, lsl #4
    3e70:	03001200 	movweq	r1, #512	; 0x200
    3e74:	00000ff7 	strdeq	r0, [r0], -r7
    3e78:	000daf09 	andeq	sl, sp, r9, lsl #30
    3e7c:	011b0a00 	tsteq	fp, r0, lsl #20
    3e80:	a40a0000 	strge	r0, [sl], #-0
    3e84:	0a00000d 	beq	3ec0 <_DYNAMIC+0x6c>
    3e88:	00000e32 	andeq	r0, r0, r2, lsr lr
    3e8c:	0010110a 	andseq	r1, r0, sl, lsl #2
    3e90:	1c040000 	stcne	0, cr0, [r4], {-0}
    3e94:	42000010 	andmi	r0, r0, #16
    3e98:	04000006 	streq	r0, [r0], #-6
    3e9c:	1027041e 	eorne	r0, r7, lr, lsl r4
    3ea0:	06300000 	ldrteq	r0, [r0], -r0
    3ea4:	08030000 	stmdaeq	r3, {}	; <UNPREDICTABLE>
    3ea8:	00062613 	andeq	r2, r6, r3, lsl r6
    3eac:	08030400 	stmdaeq	r3, {sl}
    3eb0:	0006210d 	andeq	r2, r6, sp, lsl #2
    3eb4:	0000c300 	andeq	ip, r0, r0, lsl #6
    3eb8:	00080300 	andeq	r0, r8, r0, lsl #6
    3ebc:	10410300 	subne	r0, r1, r0, lsl #6
    3ec0:	af090000 	svcge	0x00090000
    3ec4:	0a00000d 	beq	3f00 <_DYNAMIC+0xac>
    3ec8:	0000011b 	andeq	r0, r0, fp, lsl r1
    3ecc:	000da40a 	andeq	sl, sp, sl, lsl #8
    3ed0:	0e320a00 	vaddeq.f32	s0, s4, s0
    3ed4:	5b0a0000 	blpl	283edc <_end+0x27fed4>
    3ed8:	00000010 	andeq	r0, r0, r0, lsl r0
    3edc:	00106003 	andseq	r6, r0, r3
    3ee0:	106b0400 	rsbne	r0, fp, r0, lsl #8
    3ee4:	06f10000 	ldrbteq	r0, [r1], r0
    3ee8:	78010000 	stmdavc	r1, {}	; <UNPREDICTABLE>
    3eec:	0006f114 	andeq	pc, r6, r4, lsl r1	; <UNPREDICTABLE>
    3ef0:	6e010800 	cdpvs	8, 0, cr0, cr1, cr0, {0}
    3ef4:	0006550d 	andeq	r5, r6, sp, lsl #10
    3ef8:	000e9000 	andeq	r9, lr, r0
    3efc:	006f0100 	rsbeq	r0, pc, r0, lsl #2
    3f00:	0006570d 	andeq	r5, r6, sp, lsl #14
    3f04:	000dd500 	andeq	sp, sp, r0, lsl #10
    3f08:	00700100 	rsbseq	r0, r0, r0, lsl #2
    3f0c:	0006590d 	andeq	r5, r6, sp, lsl #18
    3f10:	0010e000 	andseq	lr, r0, r0
    3f14:	00710100 	rsbseq	r0, r1, r0, lsl #2
    3f18:	0006840d 	andeq	r8, r6, sp, lsl #8
    3f1c:	00110800 	andseq	r0, r1, r0, lsl #16
    3f20:	00720100 	rsbseq	r0, r2, r0, lsl #2
    3f24:	0006a50d 	andeq	sl, r6, sp, lsl #10
    3f28:	0000d400 	andeq	sp, r0, r0, lsl #8
    3f2c:	00730100 	rsbseq	r0, r3, r0, lsl #2
    3f30:	0006a70d 	andeq	sl, r6, sp, lsl #14
    3f34:	00113000 	andseq	r3, r1, r0
    3f38:	00740100 	rsbseq	r0, r4, r0, lsl #2
    3f3c:	0006cf0d 	andeq	ip, r6, sp, lsl #30
    3f40:	00115800 	andseq	r5, r1, r0, lsl #16
    3f44:	00750100 	rsbseq	r0, r5, r0, lsl #2
    3f48:	0006de0d 	andeq	sp, r6, sp, lsl #28
    3f4c:	00116a00 	andseq	r6, r1, r0, lsl #20
    3f50:	00760100 	rsbseq	r0, r6, r0, lsl #2
    3f54:	0006ef0d 	andeq	lr, r6, sp, lsl #30
    3f58:	000daf00 	andeq	sl, sp, r0, lsl #30
    3f5c:	00770100 	rsbseq	r0, r7, r0, lsl #2
    3f60:	10eb0400 	rscne	r0, fp, r0, lsl #8
    3f64:	067e0000 	ldrbteq	r0, [lr], -r0
    3f68:	21010000 	mrscs	r0, (UNDEF: 1)
    3f6c:	0010f604 	andseq	pc, r0, r4, lsl #12
    3f70:	00067500 	andeq	r7, r6, r0, lsl #10
    3f74:	043e0200 	ldrteq	r0, [lr], #-512	; 0xfffffe00
    3f78:	00001101 	andeq	r1, r0, r1, lsl #2
    3f7c:	0000066a 	andeq	r0, r0, sl, ror #12
    3f80:	5b0b2702 	blpl	2cdb90 <_end+0x2c9b88>
    3f84:	07000006 	streq	r0, [r0, -r6]
    3f88:	11130402 	tstne	r3, r2, lsl #8
    3f8c:	069e0000 	ldreq	r0, [lr], r0
    3f90:	22010000 	andcs	r0, r1, #0
    3f94:	00111e04 	andseq	r1, r1, r4, lsl #28
    3f98:	00069600 	andeq	r9, r6, r0, lsl #12
    3f9c:	043d0200 	ldrteq	r0, [sp], #-512	; 0xfffffe00
    3fa0:	00001129 	andeq	r1, r0, r9, lsr #2
    3fa4:	0000068c 	andeq	r0, r0, ip, lsl #13
    3fa8:	860b2602 	strhi	r2, [fp], -r2, lsl #12
    3fac:	05000006 	streq	r0, [r0, #-6]
    3fb0:	113b0402 	teqne	fp, r2, lsl #8
    3fb4:	06c90000 	strbeq	r0, [r9], r0
    3fb8:	24010000 	strcs	r0, [r1], #-0
    3fbc:	00114604 	andseq	r4, r1, r4, lsl #12
    3fc0:	0006c100 	andeq	ip, r6, r0, lsl #2
    3fc4:	04430200 	strbeq	r0, [r3], #-512	; 0xfffffe00
    3fc8:	00001151 	andeq	r1, r0, r1, asr r1
    3fcc:	000006b7 			; <UNDEFINED> instruction: 0x000006b7
    3fd0:	a90b2e02 	stmdbge	fp, {r1, r9, sl, fp, sp}
    3fd4:	05000006 	streq	r0, [r0, #-6]
    3fd8:	11630408 	cmnne	r3, r8, lsl #8
    3fdc:	06d70000 	ldrbeq	r0, [r7], r0
    3fe0:	25010000 	strcs	r0, [r1, #-0]
    3fe4:	0006d10b 	andeq	sp, r6, fp, lsl #2
    3fe8:	04040400 	streq	r0, [r4], #-1024	; 0xfffffc00
    3fec:	00001175 	andeq	r1, r0, r5, ror r1
    3ff0:	000006e7 	andeq	r0, r0, r7, ror #13
    3ff4:	e00b2601 	and	r2, fp, r1, lsl #12
    3ff8:	04000006 	streq	r0, [r0], #-6
    3ffc:	11810308 	orrne	r0, r1, r8, lsl #6
    4000:	a4090000 	strge	r0, [r9], #-0
    4004:	0a00000d 	beq	4040 <_end+0x38>
    4008:	0000011b 	andeq	r0, r0, fp, lsl r1
    400c:	000daf0a 	andeq	sl, sp, sl, lsl #30
    4010:	96030000 	strls	r0, [r3], -r0
    4014:	09000011 	stmdbeq	r0, {r0, r4}
    4018:	00000e90 	muleq	r0, r0, lr
    401c:	00011b0a 	andeq	r1, r1, sl, lsl #22
    4020:	0daf0a00 			; <UNDEFINED> instruction: 0x0daf0a00
    4024:	a40a0000 	strge	r0, [sl], #-0
    4028:	0000000d 	andeq	r0, r0, sp
    402c:	0011b003 	andseq	fp, r1, r3
    4030:	0e320900 	vaddeq.f16	s0, s4, s0	; <UNPREDICTABLE>
    4034:	1b0a0000 	blne	28403c <_end+0x280034>
    4038:	0a000001 	beq	4044 <_end+0x3c>
    403c:	00000da4 	andeq	r0, r0, r4, lsr #27
    4040:	000dba0a 	andeq	fp, sp, sl, lsl #20
    4044:	0dba0a00 			; <UNDEFINED> instruction: 0x0dba0a00
    4048:	03000000 	movweq	r0, #0
    404c:	000011cf 	andeq	r1, r0, pc, asr #3
    4050:	000daf09 	andeq	sl, sp, r9, lsl #30
    4054:	011b0a00 	tsteq	fp, r0, lsl #20
    4058:	af0a0000 	svcge	0x000a0000
    405c:	0a00000d 	beq	4098 <_end+0x90>
    4060:	00000e32 	andeq	r0, r0, r2, lsr lr
    4064:	ea030012 	b	c40b4 <_end+0xc00ac>
    4068:	09000011 	stmdbeq	r0, {r0, r4}
    406c:	00000daf 	andeq	r0, r0, pc, lsr #27
    4070:	00011b0a 	andeq	r1, r1, sl, lsl #22
    4074:	0daf0a00 			; <UNDEFINED> instruction: 0x0daf0a00
    4078:	320a0000 	andcc	r0, sl, #0
    407c:	0a00000e 	beq	40bc <_end+0xb4>
    4080:	00001011 	andeq	r1, r0, r1, lsl r0
    4084:	12090300 	andne	r0, r9, #0, 6
    4088:	af090000 	svcge	0x00090000
    408c:	0a00000d 	beq	40c8 <_end+0xc0>
    4090:	0000011b 	andeq	r0, r0, fp, lsl r1
    4094:	000daf0a 	andeq	sl, sp, sl, lsl #30
    4098:	0e320a00 	vaddeq.f32	s0, s4, s0
    409c:	5b0a0000 	blpl	2840a4 <_end+0x28009c>
    40a0:	00000010 	andeq	r0, r0, r0, lsl r0
    40a4:	00122803 	andseq	r2, r2, r3, lsl #16
    40a8:	0e900900 	vfnmseq.f16	s0, s0, s0	; <UNPREDICTABLE>
    40ac:	1b0a0000 	blne	2840b4 <_end+0x2800ac>
    40b0:	0a000001 	beq	40bc <_end+0xb4>
    40b4:	00000daf 	andeq	r0, r0, pc, lsr #27
    40b8:	000e320a 	andeq	r3, lr, sl, lsl #4
    40bc:	03001200 	movweq	r1, #512	; 0x200
    40c0:	00001243 	andeq	r1, r0, r3, asr #4
    40c4:	000e9009 	andeq	r9, lr, r9
    40c8:	011b0a00 	tsteq	fp, r0, lsl #20
    40cc:	af0a0000 	svcge	0x000a0000
    40d0:	0a00000d 	beq	410c <_end+0x104>
    40d4:	00000e32 	andeq	r0, r0, r2, lsr lr
    40d8:	0010110a 	andseq	r1, r0, sl, lsl #2
    40dc:	62030000 	andvs	r0, r3, #0
    40e0:	09000012 	stmdbeq	r0, {r1, r4}
    40e4:	00000e90 	muleq	r0, r0, lr
    40e8:	00011b0a 	andeq	r1, r1, sl, lsl #22
    40ec:	0daf0a00 			; <UNDEFINED> instruction: 0x0daf0a00
    40f0:	320a0000 	andcc	r0, sl, #0
    40f4:	0a00000e 	beq	4134 <_end+0x12c>
    40f8:	0000105b 	andeq	r1, r0, fp, asr r0
    40fc:	12810300 	addne	r0, r1, #0, 6
    4100:	d5090000 	strle	r0, [r9, #-0]
    4104:	0a00000d 	beq	4140 <_end+0x138>
    4108:	0000011b 	andeq	r0, r0, fp, lsl r1
    410c:	000daf0a 	andeq	sl, sp, sl, lsl #30
    4110:	0e320a00 	vaddeq.f32	s0, s4, s0
    4114:	00120000 	andseq	r0, r2, r0
    4118:	00129c03 	andseq	r9, r2, r3, lsl #24
    411c:	0dd50900 	vldreq.16	s1, [r5]	; <UNPREDICTABLE>
    4120:	1b0a0000 	blne	284128 <_end+0x280120>
    4124:	0a000001 	beq	4130 <_end+0x128>
    4128:	00000daf 	andeq	r0, r0, pc, lsr #27
    412c:	000e320a 	andeq	r3, lr, sl, lsl #4
    4130:	10110a00 	andsne	r0, r1, r0, lsl #20
    4134:	03000000 	movweq	r0, #0
    4138:	000012bb 			; <UNDEFINED> instruction: 0x000012bb
    413c:	000dd509 	andeq	sp, sp, r9, lsl #10
    4140:	011b0a00 	tsteq	fp, r0, lsl #20
    4144:	af0a0000 	svcge	0x000a0000
    4148:	0a00000d 	beq	4184 <_end+0x17c>
    414c:	00000e32 	andeq	r0, r0, r2, lsr lr
    4150:	00105b0a 	andseq	r5, r0, sl, lsl #22
    4154:	da030000 	ble	c415c <_end+0xc0154>
    4158:	09000012 	stmdbeq	r0, {r1, r4}
    415c:	000010e0 	andeq	r1, r0, r0, ror #1
    4160:	00011b0a 	andeq	r1, r1, sl, lsl #22
    4164:	0daf0a00 			; <UNDEFINED> instruction: 0x0daf0a00
    4168:	320a0000 	andcc	r0, sl, #0
    416c:	1200000e 	andne	r0, r0, #14
    4170:	12f50300 	rscsne	r0, r5, #0, 6
    4174:	e0090000 	and	r0, r9, r0
    4178:	0a000010 	beq	41c0 <_end+0x1b8>
    417c:	0000011b 	andeq	r0, r0, fp, lsl r1
    4180:	000daf0a 	andeq	sl, sp, sl, lsl #30
    4184:	0e320a00 	vaddeq.f32	s0, s4, s0
    4188:	110a0000 	mrsne	r0, (UNDEF: 10)
    418c:	00000010 	andeq	r0, r0, r0, lsl r0
    4190:	00131403 	andseq	r1, r3, r3, lsl #8
    4194:	10e00900 	rscne	r0, r0, r0, lsl #18
    4198:	1b0a0000 	blne	2841a0 <_end+0x280198>
    419c:	0a000001 	beq	41a8 <_end+0x1a0>
    41a0:	00000daf 	andeq	r0, r0, pc, lsr #27
    41a4:	000e320a 	andeq	r3, lr, sl, lsl #4
    41a8:	105b0a00 	subsne	r0, fp, r0, lsl #20
    41ac:	03000000 	movweq	r0, #0
    41b0:	00001333 	andeq	r1, r0, r3, lsr r3
    41b4:	00110809 	andseq	r0, r1, r9, lsl #16
    41b8:	011b0a00 	tsteq	fp, r0, lsl #20
    41bc:	af0a0000 	svcge	0x000a0000
    41c0:	0a00000d 	beq	41fc <_end+0x1f4>
    41c4:	00000e32 	andeq	r0, r0, r2, lsr lr
    41c8:	4e030012 	mcrmi	0, 0, r0, cr3, cr2, {0}
    41cc:	09000013 	stmdbeq	r0, {r0, r1, r4}
    41d0:	00001108 	andeq	r1, r0, r8, lsl #2
    41d4:	00011b0a 	andeq	r1, r1, sl, lsl #22
    41d8:	0daf0a00 			; <UNDEFINED> instruction: 0x0daf0a00
    41dc:	320a0000 	andcc	r0, sl, #0
    41e0:	0a00000e 	beq	4220 <_end+0x218>
    41e4:	00001011 	andeq	r1, r0, r1, lsl r0
    41e8:	136d0300 	cmnne	sp, #0, 6
    41ec:	08090000 	stmdaeq	r9, {}	; <UNPREDICTABLE>
    41f0:	0a000011 	beq	423c <_end+0x234>
    41f4:	0000011b 	andeq	r0, r0, fp, lsl r1
    41f8:	000daf0a 	andeq	sl, sp, sl, lsl #30
    41fc:	0e320a00 	vaddeq.f32	s0, s4, s0
    4200:	5b0a0000 	blpl	284208 <_end+0x280200>
    4204:	00000010 	andeq	r0, r0, r0, lsl r0
    4208:	00138c03 	andseq	r8, r3, r3, lsl #24
    420c:	00d40900 	sbcseq	r0, r4, r0, lsl #18
    4210:	1b0a0000 	blne	284218 <_end+0x280210>
    4214:	0a000001 	beq	4220 <_end+0x218>
    4218:	00000daf 	andeq	r0, r0, pc, lsr #27
    421c:	000e320a 	andeq	r3, lr, sl, lsl #4
    4220:	03001200 	movweq	r1, #512	; 0x200
    4224:	000013a7 	andeq	r1, r0, r7, lsr #7
    4228:	0000d409 	andeq	sp, r0, r9, lsl #8
    422c:	011b0a00 	tsteq	fp, r0, lsl #20
    4230:	af0a0000 	svcge	0x000a0000
    4234:	0a00000d 	beq	4270 <_end+0x268>
    4238:	00000e32 	andeq	r0, r0, r2, lsr lr
    423c:	0010110a 	andseq	r1, r0, sl, lsl #2
    4240:	c6030000 	strgt	r0, [r3], -r0
    4244:	09000013 	stmdbeq	r0, {r0, r1, r4}
    4248:	000000d4 	ldrdeq	r0, [r0], -r4
    424c:	00011b0a 	andeq	r1, r1, sl, lsl #22
    4250:	0daf0a00 			; <UNDEFINED> instruction: 0x0daf0a00
    4254:	320a0000 	andcc	r0, sl, #0
    4258:	0a00000e 	beq	4298 <_end+0x290>
    425c:	0000105b 	andeq	r1, r0, fp, asr r0
    4260:	13e50300 	mvnne	r0, #0, 6
    4264:	30090000 	andcc	r0, r9, r0
    4268:	0a000011 	beq	42b4 <_end+0x2ac>
    426c:	0000011b 	andeq	r0, r0, fp, lsl r1
    4270:	000daf0a 	andeq	sl, sp, sl, lsl #30
    4274:	0e320a00 	vaddeq.f32	s0, s4, s0
    4278:	00120000 	andseq	r0, r2, r0
    427c:	00140003 	andseq	r0, r4, r3
    4280:	11300900 	teqne	r0, r0, lsl #18
    4284:	1b0a0000 	blne	28428c <_end+0x280284>
    4288:	0a000001 	beq	4294 <_end+0x28c>
    428c:	00000daf 	andeq	r0, r0, pc, lsr #27
    4290:	000e320a 	andeq	r3, lr, sl, lsl #4
    4294:	10110a00 	andsne	r0, r1, r0, lsl #20
    4298:	03000000 	movweq	r0, #0
    429c:	0000141f 	andeq	r1, r0, pc, lsl r4
    42a0:	00113009 	andseq	r3, r1, r9
    42a4:	011b0a00 	tsteq	fp, r0, lsl #20
    42a8:	af0a0000 	svcge	0x000a0000
    42ac:	0a00000d 	beq	42e8 <_end+0x2e0>
    42b0:	00000e32 	andeq	r0, r0, r2, lsr lr
    42b4:	00105b0a 	andseq	r5, r0, sl, lsl #22
    42b8:	3e030000 	cdpcc	0, 0, cr0, cr3, cr0, {0}
    42bc:	09000014 	stmdbeq	r0, {r2, r4}
    42c0:	00001158 	andeq	r1, r0, r8, asr r1
    42c4:	00011b0a 	andeq	r1, r1, sl, lsl #22
    42c8:	0daf0a00 			; <UNDEFINED> instruction: 0x0daf0a00
    42cc:	320a0000 	andcc	r0, sl, #0
    42d0:	1200000e 	andne	r0, r0, #14
    42d4:	14590300 	ldrbne	r0, [r9], #-768	; 0xfffffd00
    42d8:	58090000 	stmdapl	r9, {}	; <UNPREDICTABLE>
    42dc:	0a000011 	beq	4328 <_end+0x320>
    42e0:	0000011b 	andeq	r0, r0, fp, lsl r1
    42e4:	000daf0a 	andeq	sl, sp, sl, lsl #30
    42e8:	0e320a00 	vaddeq.f32	s0, s4, s0
    42ec:	110a0000 	mrsne	r0, (UNDEF: 10)
    42f0:	00000010 	andeq	r0, r0, r0, lsl r0
    42f4:	00147803 	andseq	r7, r4, r3, lsl #16
    42f8:	11580900 	cmpne	r8, r0, lsl #18
    42fc:	1b0a0000 	blne	284304 <_end+0x2802fc>
    4300:	0a000001 	beq	430c <_end+0x304>
    4304:	00000daf 	andeq	r0, r0, pc, lsr #27
    4308:	000e320a 	andeq	r3, lr, sl, lsl #4
    430c:	105b0a00 	subsne	r0, fp, r0, lsl #20
    4310:	03000000 	movweq	r0, #0
    4314:	00001497 	muleq	r0, r7, r4
    4318:	00116a09 	andseq	r6, r1, r9, lsl #20
    431c:	011b0a00 	tsteq	fp, r0, lsl #20
    4320:	af0a0000 	svcge	0x000a0000
    4324:	0a00000d 	beq	4360 <_end+0x358>
    4328:	00000e32 	andeq	r0, r0, r2, lsr lr
    432c:	b2030012 	andlt	r0, r3, #18
    4330:	09000014 	stmdbeq	r0, {r2, r4}
    4334:	0000116a 	andeq	r1, r0, sl, ror #2
    4338:	00011b0a 	andeq	r1, r1, sl, lsl #22
    433c:	0daf0a00 			; <UNDEFINED> instruction: 0x0daf0a00
    4340:	320a0000 	andcc	r0, sl, #0
    4344:	0a00000e 	beq	4384 <_end+0x37c>
    4348:	00001011 	andeq	r1, r0, r1, lsl r0
    434c:	14d10300 	ldrbne	r0, [r1], #768	; 0x300
    4350:	6a090000 	bvs	244358 <_end+0x240350>
    4354:	0a000011 	beq	43a0 <_end+0x398>
    4358:	0000011b 	andeq	r0, r0, fp, lsl r1
    435c:	000daf0a 	andeq	sl, sp, sl, lsl #30
    4360:	0e320a00 	vaddeq.f32	s0, s4, s0
    4364:	5b0a0000 	blpl	28436c <_end+0x280364>
    4368:	00000010 	andeq	r0, r0, r0, lsl r0
    436c:	0014f003 	andseq	pc, r4, r3
    4370:	1b0a1100 	blne	288778 <_end+0x284770>
    4374:	0a000001 	beq	4380 <_end+0x378>
    4378:	00000daf 	andeq	r0, r0, pc, lsr #27
    437c:	000e320a 	andeq	r3, lr, sl, lsl #4
    4380:	03001200 	movweq	r1, #512	; 0x200
    4384:	00001507 	andeq	r1, r0, r7, lsl #10
    4388:	011b0a11 	tsteq	fp, r1, lsl sl
    438c:	af0a0000 	svcge	0x000a0000
    4390:	0a00000d 	beq	43cc <_end+0x3c4>
    4394:	00000e32 	andeq	r0, r0, r2, lsr lr
    4398:	0010110a 	andseq	r1, r0, sl, lsl #2
    439c:	22030000 	andcs	r0, r3, #0
    43a0:	11000015 	tstne	r0, r5, lsl r0
    43a4:	00011b0a 	andeq	r1, r1, sl, lsl #22
    43a8:	0daf0a00 			; <UNDEFINED> instruction: 0x0daf0a00
    43ac:	320a0000 	andcc	r0, sl, #0
    43b0:	0a00000e 	beq	43f0 <_end+0x3e8>
    43b4:	0000105b 	andeq	r1, r0, fp, asr r0
    43b8:	153d0300 	ldrne	r0, [sp, #-768]!	; 0xfffffd00
    43bc:	af090000 	svcge	0x00090000
    43c0:	0a00000d 	beq	43fc <_end+0x3f4>
    43c4:	0000011b 	andeq	r0, r0, fp, lsl r1
    43c8:	000daf0a 	andeq	sl, sp, sl, lsl #30
    43cc:	0da40a00 			; <UNDEFINED> instruction: 0x0da40a00
    43d0:	320a0000 	andcc	r0, sl, #0
    43d4:	1200000e 	andne	r0, r0, #14
    43d8:	155d0300 	ldrbne	r0, [sp, #-768]	; 0xfffffd00
    43dc:	af090000 	svcge	0x00090000
    43e0:	0a00000d 	beq	441c <_end+0x414>
    43e4:	0000011b 	andeq	r0, r0, fp, lsl r1
    43e8:	000daf0a 	andeq	sl, sp, sl, lsl #30
    43ec:	0da40a00 			; <UNDEFINED> instruction: 0x0da40a00
    43f0:	320a0000 	andcc	r0, sl, #0
    43f4:	0a00000e 	beq	4434 <_end+0x42c>
    43f8:	00001011 	andeq	r1, r0, r1, lsl r0
    43fc:	15810300 	strne	r0, [r1, #768]	; 0x300
    4400:	af090000 	svcge	0x00090000
    4404:	0a00000d 	beq	4440 <_end+0x438>
    4408:	0000011b 	andeq	r0, r0, fp, lsl r1
    440c:	000daf0a 	andeq	sl, sp, sl, lsl #30
    4410:	0da40a00 			; <UNDEFINED> instruction: 0x0da40a00
    4414:	320a0000 	andcc	r0, sl, #0
    4418:	0a00000e 	beq	4458 <_end+0x450>
    441c:	0000105b 	andeq	r1, r0, fp, asr r0
    4420:	15a50300 	strne	r0, [r5, #768]!	; 0x300
    4424:	90090000 	andls	r0, r9, r0
    4428:	0a00000e 	beq	4468 <_end+0x460>
    442c:	0000011b 	andeq	r0, r0, fp, lsl r1
    4430:	000daf0a 	andeq	sl, sp, sl, lsl #30
    4434:	0da40a00 			; <UNDEFINED> instruction: 0x0da40a00
    4438:	320a0000 	andcc	r0, sl, #0
    443c:	1200000e 	andne	r0, r0, #14
    4440:	15c50300 	strbne	r0, [r5, #768]	; 0x300
    4444:	90090000 	andls	r0, r9, r0
    4448:	0a00000e 	beq	4488 <_end+0x480>
    444c:	0000011b 	andeq	r0, r0, fp, lsl r1
    4450:	000daf0a 	andeq	sl, sp, sl, lsl #30
    4454:	0da40a00 			; <UNDEFINED> instruction: 0x0da40a00
    4458:	320a0000 	andcc	r0, sl, #0
    445c:	0a00000e 	beq	449c <_end+0x494>
    4460:	00001011 	andeq	r1, r0, r1, lsl r0
    4464:	15e90300 	strbne	r0, [r9, #768]!	; 0x300
    4468:	90090000 	andls	r0, r9, r0
    446c:	0a00000e 	beq	44ac <_end+0x4a4>
    4470:	0000011b 	andeq	r0, r0, fp, lsl r1
    4474:	000daf0a 	andeq	sl, sp, sl, lsl #30
    4478:	0da40a00 			; <UNDEFINED> instruction: 0x0da40a00
    447c:	320a0000 	andcc	r0, sl, #0
    4480:	0a00000e 	beq	44c0 <_end+0x4b8>
    4484:	0000105b 	andeq	r1, r0, fp, asr r0
    4488:	160d0300 	strne	r0, [sp], -r0, lsl #6
    448c:	d5090000 	strle	r0, [r9, #-0]
    4490:	0a00000d 	beq	44cc <_end+0x4c4>
    4494:	0000011b 	andeq	r0, r0, fp, lsl r1
    4498:	000daf0a 	andeq	sl, sp, sl, lsl #30
    449c:	0da40a00 			; <UNDEFINED> instruction: 0x0da40a00
    44a0:	320a0000 	andcc	r0, sl, #0
    44a4:	1200000e 	andne	r0, r0, #14
    44a8:	162d0300 	strtne	r0, [sp], -r0, lsl #6
    44ac:	d5090000 	strle	r0, [r9, #-0]
    44b0:	0a00000d 	beq	44ec <_end+0x4e4>
    44b4:	0000011b 	andeq	r0, r0, fp, lsl r1
    44b8:	000daf0a 	andeq	sl, sp, sl, lsl #30
    44bc:	0da40a00 			; <UNDEFINED> instruction: 0x0da40a00
    44c0:	320a0000 	andcc	r0, sl, #0
    44c4:	0a00000e 	beq	4504 <_end+0x4fc>
    44c8:	00001011 	andeq	r1, r0, r1, lsl r0
    44cc:	16510300 	ldrbne	r0, [r1], -r0, lsl #6
    44d0:	d5090000 	strle	r0, [r9, #-0]
    44d4:	0a00000d 	beq	4510 <_end+0x508>
    44d8:	0000011b 	andeq	r0, r0, fp, lsl r1
    44dc:	000daf0a 	andeq	sl, sp, sl, lsl #30
    44e0:	0da40a00 			; <UNDEFINED> instruction: 0x0da40a00
    44e4:	320a0000 	andcc	r0, sl, #0
    44e8:	0a00000e 	beq	4528 <_end+0x520>
    44ec:	0000105b 	andeq	r1, r0, fp, asr r0
    44f0:	16750300 	ldrbtne	r0, [r5], -r0, lsl #6
    44f4:	e0090000 	and	r0, r9, r0
    44f8:	0a000010 	beq	4540 <_end+0x538>
    44fc:	0000011b 	andeq	r0, r0, fp, lsl r1
    4500:	000daf0a 	andeq	sl, sp, sl, lsl #30
    4504:	0da40a00 			; <UNDEFINED> instruction: 0x0da40a00
    4508:	320a0000 	andcc	r0, sl, #0
    450c:	1200000e 	andne	r0, r0, #14
    4510:	16950300 	ldrne	r0, [r5], r0, lsl #6
    4514:	e0090000 	and	r0, r9, r0
    4518:	0a000010 	beq	4560 <_end+0x558>
    451c:	0000011b 	andeq	r0, r0, fp, lsl r1
    4520:	000daf0a 	andeq	sl, sp, sl, lsl #30
    4524:	0da40a00 			; <UNDEFINED> instruction: 0x0da40a00
    4528:	320a0000 	andcc	r0, sl, #0
    452c:	0a00000e 	beq	456c <_end+0x564>
    4530:	00001011 	andeq	r1, r0, r1, lsl r0
    4534:	16b90300 	ldrtne	r0, [r9], r0, lsl #6
    4538:	e0090000 	and	r0, r9, r0
    453c:	0a000010 	beq	4584 <_end+0x57c>
    4540:	0000011b 	andeq	r0, r0, fp, lsl r1
    4544:	000daf0a 	andeq	sl, sp, sl, lsl #30
    4548:	0da40a00 			; <UNDEFINED> instruction: 0x0da40a00
    454c:	320a0000 	andcc	r0, sl, #0
    4550:	0a00000e 	beq	4590 <_end+0x588>
    4554:	0000105b 	andeq	r1, r0, fp, asr r0
    4558:	16dd0300 	ldrbne	r0, [sp], r0, lsl #6
    455c:	08090000 	stmdaeq	r9, {}	; <UNPREDICTABLE>
    4560:	0a000011 	beq	45ac <_end+0x5a4>
    4564:	0000011b 	andeq	r0, r0, fp, lsl r1
    4568:	000daf0a 	andeq	sl, sp, sl, lsl #30
    456c:	0da40a00 			; <UNDEFINED> instruction: 0x0da40a00
    4570:	320a0000 	andcc	r0, sl, #0
    4574:	1200000e 	andne	r0, r0, #14
    4578:	16fd0300 	ldrbtne	r0, [sp], r0, lsl #6
    457c:	08090000 	stmdaeq	r9, {}	; <UNPREDICTABLE>
    4580:	0a000011 	beq	45cc <_end+0x5c4>
    4584:	0000011b 	andeq	r0, r0, fp, lsl r1
    4588:	000daf0a 	andeq	sl, sp, sl, lsl #30
    458c:	0da40a00 			; <UNDEFINED> instruction: 0x0da40a00
    4590:	320a0000 	andcc	r0, sl, #0
    4594:	0a00000e 	beq	45d4 <_end+0x5cc>
    4598:	00001011 	andeq	r1, r0, r1, lsl r0
    459c:	17210300 	strne	r0, [r1, -r0, lsl #6]!
    45a0:	08090000 	stmdaeq	r9, {}	; <UNPREDICTABLE>
    45a4:	0a000011 	beq	45f0 <_end+0x5e8>
    45a8:	0000011b 	andeq	r0, r0, fp, lsl r1
    45ac:	000daf0a 	andeq	sl, sp, sl, lsl #30
    45b0:	0da40a00 			; <UNDEFINED> instruction: 0x0da40a00
    45b4:	320a0000 	andcc	r0, sl, #0
    45b8:	0a00000e 	beq	45f8 <_end+0x5f0>
    45bc:	0000105b 	andeq	r1, r0, fp, asr r0
    45c0:	17450300 	strbne	r0, [r5, -r0, lsl #6]
    45c4:	d4090000 	strle	r0, [r9], #-0
    45c8:	0a000000 	beq	45d0 <_end+0x5c8>
    45cc:	0000011b 	andeq	r0, r0, fp, lsl r1
    45d0:	000daf0a 	andeq	sl, sp, sl, lsl #30
    45d4:	0da40a00 			; <UNDEFINED> instruction: 0x0da40a00
    45d8:	320a0000 	andcc	r0, sl, #0
    45dc:	1200000e 	andne	r0, r0, #14
    45e0:	17650300 	strbne	r0, [r5, -r0, lsl #6]!
    45e4:	d4090000 	strle	r0, [r9], #-0
    45e8:	0a000000 	beq	45f0 <_end+0x5e8>
    45ec:	0000011b 	andeq	r0, r0, fp, lsl r1
    45f0:	000daf0a 	andeq	sl, sp, sl, lsl #30
    45f4:	0da40a00 			; <UNDEFINED> instruction: 0x0da40a00
    45f8:	320a0000 	andcc	r0, sl, #0
    45fc:	0a00000e 	beq	463c <_end+0x634>
    4600:	00001011 	andeq	r1, r0, r1, lsl r0
    4604:	17890300 	strne	r0, [r9, r0, lsl #6]
    4608:	d4090000 	strle	r0, [r9], #-0
    460c:	0a000000 	beq	4614 <_end+0x60c>
    4610:	0000011b 	andeq	r0, r0, fp, lsl r1
    4614:	000daf0a 	andeq	sl, sp, sl, lsl #30
    4618:	0da40a00 			; <UNDEFINED> instruction: 0x0da40a00
    461c:	320a0000 	andcc	r0, sl, #0
    4620:	0a00000e 	beq	4660 <_end+0x658>
    4624:	0000105b 	andeq	r1, r0, fp, asr r0
    4628:	17ad0300 	strne	r0, [sp, r0, lsl #6]!
    462c:	30090000 	andcc	r0, r9, r0
    4630:	0a000011 	beq	467c <_end+0x674>
    4634:	0000011b 	andeq	r0, r0, fp, lsl r1
    4638:	000daf0a 	andeq	sl, sp, sl, lsl #30
    463c:	0da40a00 			; <UNDEFINED> instruction: 0x0da40a00
    4640:	320a0000 	andcc	r0, sl, #0
    4644:	1200000e 	andne	r0, r0, #14
    4648:	17cd0300 	strbne	r0, [sp, r0, lsl #6]
    464c:	30090000 	andcc	r0, r9, r0
    4650:	0a000011 	beq	469c <_end+0x694>
    4654:	0000011b 	andeq	r0, r0, fp, lsl r1
    4658:	000daf0a 	andeq	sl, sp, sl, lsl #30
    465c:	0da40a00 			; <UNDEFINED> instruction: 0x0da40a00
    4660:	320a0000 	andcc	r0, sl, #0
    4664:	0a00000e 	beq	46a4 <_end+0x69c>
    4668:	00001011 	andeq	r1, r0, r1, lsl r0
    466c:	17f10300 	ldrbne	r0, [r1, r0, lsl #6]!
    4670:	30090000 	andcc	r0, r9, r0
    4674:	0a000011 	beq	46c0 <_end+0x6b8>
    4678:	0000011b 	andeq	r0, r0, fp, lsl r1
    467c:	000daf0a 	andeq	sl, sp, sl, lsl #30
    4680:	0da40a00 			; <UNDEFINED> instruction: 0x0da40a00
    4684:	320a0000 	andcc	r0, sl, #0
    4688:	0a00000e 	beq	46c8 <_end+0x6c0>
    468c:	0000105b 	andeq	r1, r0, fp, asr r0
    4690:	18150300 	ldmdane	r5, {r8, r9}
    4694:	58090000 	stmdapl	r9, {}	; <UNPREDICTABLE>
    4698:	0a000011 	beq	46e4 <_end+0x6dc>
    469c:	0000011b 	andeq	r0, r0, fp, lsl r1
    46a0:	000daf0a 	andeq	sl, sp, sl, lsl #30
    46a4:	0da40a00 			; <UNDEFINED> instruction: 0x0da40a00
    46a8:	320a0000 	andcc	r0, sl, #0
    46ac:	1200000e 	andne	r0, r0, #14
    46b0:	18350300 	ldmdane	r5!, {r8, r9}
    46b4:	58090000 	stmdapl	r9, {}	; <UNPREDICTABLE>
    46b8:	0a000011 	beq	4704 <_end+0x6fc>
    46bc:	0000011b 	andeq	r0, r0, fp, lsl r1
    46c0:	000daf0a 	andeq	sl, sp, sl, lsl #30
    46c4:	0da40a00 			; <UNDEFINED> instruction: 0x0da40a00
    46c8:	320a0000 	andcc	r0, sl, #0
    46cc:	0a00000e 	beq	470c <_end+0x704>
    46d0:	00001011 	andeq	r1, r0, r1, lsl r0
    46d4:	18590300 	ldmdane	r9, {r8, r9}^
    46d8:	58090000 	stmdapl	r9, {}	; <UNPREDICTABLE>
    46dc:	0a000011 	beq	4728 <_end+0x720>
    46e0:	0000011b 	andeq	r0, r0, fp, lsl r1
    46e4:	000daf0a 	andeq	sl, sp, sl, lsl #30
    46e8:	0da40a00 			; <UNDEFINED> instruction: 0x0da40a00
    46ec:	320a0000 	andcc	r0, sl, #0
    46f0:	0a00000e 	beq	4730 <_end+0x728>
    46f4:	0000105b 	andeq	r1, r0, fp, asr r0
    46f8:	187d0300 	ldmdane	sp!, {r8, r9}^
    46fc:	6a090000 	bvs	244704 <_end+0x2406fc>
    4700:	0a000011 	beq	474c <_end+0x744>
    4704:	0000011b 	andeq	r0, r0, fp, lsl r1
    4708:	000daf0a 	andeq	sl, sp, sl, lsl #30
    470c:	0da40a00 			; <UNDEFINED> instruction: 0x0da40a00
    4710:	320a0000 	andcc	r0, sl, #0
    4714:	1200000e 	andne	r0, r0, #14
    4718:	189d0300 	ldmne	sp, {r8, r9}
    471c:	6a090000 	bvs	244724 <_end+0x24071c>
    4720:	0a000011 	beq	476c <_end+0x764>
    4724:	0000011b 	andeq	r0, r0, fp, lsl r1
    4728:	000daf0a 	andeq	sl, sp, sl, lsl #30
    472c:	0da40a00 			; <UNDEFINED> instruction: 0x0da40a00
    4730:	320a0000 	andcc	r0, sl, #0
    4734:	0a00000e 	beq	4774 <_end+0x76c>
    4738:	00001011 	andeq	r1, r0, r1, lsl r0
    473c:	18c10300 	stmiane	r1, {r8, r9}^
    4740:	6a090000 	bvs	244748 <_end+0x240740>
    4744:	0a000011 	beq	4790 <_end+0x788>
    4748:	0000011b 	andeq	r0, r0, fp, lsl r1
    474c:	000daf0a 	andeq	sl, sp, sl, lsl #30
    4750:	0da40a00 			; <UNDEFINED> instruction: 0x0da40a00
    4754:	320a0000 	andcc	r0, sl, #0
    4758:	0a00000e 	beq	4798 <_end+0x790>
    475c:	0000105b 	andeq	r1, r0, fp, asr r0
    4760:	18e50300 	stmiane	r5!, {r8, r9}^
    4764:	0a110000 	beq	44476c <_end+0x440764>
    4768:	0000011b 	andeq	r0, r0, fp, lsl r1
    476c:	000daf0a 	andeq	sl, sp, sl, lsl #30
    4770:	0da40a00 			; <UNDEFINED> instruction: 0x0da40a00
    4774:	320a0000 	andcc	r0, sl, #0
    4778:	1200000e 	andne	r0, r0, #14
    477c:	19010300 	stmdbne	r1, {r8, r9}
    4780:	0a110000 	beq	444788 <_end+0x440780>
    4784:	0000011b 	andeq	r0, r0, fp, lsl r1
    4788:	000daf0a 	andeq	sl, sp, sl, lsl #30
    478c:	0da40a00 			; <UNDEFINED> instruction: 0x0da40a00
    4790:	320a0000 	andcc	r0, sl, #0
    4794:	0a00000e 	beq	47d4 <_end+0x7cc>
    4798:	00001011 	andeq	r1, r0, r1, lsl r0
    479c:	19210300 	stmdbne	r1!, {r8, r9}
    47a0:	0a110000 	beq	4447a8 <_end+0x4407a0>
    47a4:	0000011b 	andeq	r0, r0, fp, lsl r1
    47a8:	000daf0a 	andeq	sl, sp, sl, lsl #30
    47ac:	0da40a00 			; <UNDEFINED> instruction: 0x0da40a00
    47b0:	320a0000 	andcc	r0, sl, #0
    47b4:	0a00000e 	beq	47f4 <_end+0x7ec>
    47b8:	0000105b 	andeq	r1, r0, fp, asr r0
    47bc:	19410300 	stmdbne	r1, {r8, r9}^
    47c0:	5c090000 	stcpl	0, cr0, [r9], {-0}
    47c4:	0a00000e 	beq	4804 <_end+0x7fc>
    47c8:	0000011b 	andeq	r0, r0, fp, lsl r1
    47cc:	000da40a 	andeq	sl, sp, sl, lsl #8
    47d0:	0dba0a00 			; <UNDEFINED> instruction: 0x0dba0a00
    47d4:	ba0a0000 	blt	2847dc <_end+0x2807d4>
    47d8:	0000000d 	andeq	r0, r0, sp
    47dc:	00196003 	andseq	r6, r9, r3
    47e0:	0daf0900 			; <UNDEFINED> instruction: 0x0daf0900
    47e4:	1b0a0000 	blne	2847ec <_end+0x2807e4>
    47e8:	0a000001 	beq	47f4 <_end+0x7ec>
    47ec:	00000daf 	andeq	r0, r0, pc, lsr #27
    47f0:	000e5c0a 	andeq	r5, lr, sl, lsl #24
    47f4:	7a030000 	bvc	c47fc <_end+0xc07f4>
    47f8:	09000019 	stmdbeq	r0, {r0, r3, r4}
    47fc:	00000e90 	muleq	r0, r0, lr
    4800:	00011b0a 	andeq	r1, r1, sl, lsl #22
    4804:	0daf0a00 			; <UNDEFINED> instruction: 0x0daf0a00
    4808:	5c0a0000 	stcpl	0, cr0, [sl], {-0}
    480c:	0000000e 	andeq	r0, r0, lr
    4810:	00199403 	andseq	r9, r9, r3, lsl #8
    4814:	0dd50900 	vldreq.16	s1, [r5]	; <UNPREDICTABLE>
    4818:	1b0a0000 	blne	284820 <_end+0x280818>
    481c:	0a000001 	beq	4828 <_end+0x820>
    4820:	00000daf 	andeq	r0, r0, pc, lsr #27
    4824:	000e5c0a 	andeq	r5, lr, sl, lsl #24
    4828:	ae030000 	cdpge	0, 0, cr0, cr3, cr0, {0}
    482c:	09000019 	stmdbeq	r0, {r0, r3, r4}
    4830:	000010e0 	andeq	r1, r0, r0, ror #1
    4834:	00011b0a 	andeq	r1, r1, sl, lsl #22
    4838:	0daf0a00 			; <UNDEFINED> instruction: 0x0daf0a00
    483c:	5c0a0000 	stcpl	0, cr0, [sl], {-0}
    4840:	0000000e 	andeq	r0, r0, lr
    4844:	0019c803 	andseq	ip, r9, r3, lsl #16
    4848:	11080900 	tstne	r8, r0, lsl #18
    484c:	1b0a0000 	blne	284854 <_end+0x28084c>
    4850:	0a000001 	beq	485c <_end+0x854>
    4854:	00000daf 	andeq	r0, r0, pc, lsr #27
    4858:	000e5c0a 	andeq	r5, lr, sl, lsl #24
    485c:	e2030000 	and	r0, r3, #0
    4860:	09000019 	stmdbeq	r0, {r0, r3, r4}
    4864:	000000d4 	ldrdeq	r0, [r0], -r4
    4868:	00011b0a 	andeq	r1, r1, sl, lsl #22
    486c:	0daf0a00 			; <UNDEFINED> instruction: 0x0daf0a00
    4870:	5c0a0000 	stcpl	0, cr0, [sl], {-0}
    4874:	0000000e 	andeq	r0, r0, lr
    4878:	0019fc03 	andseq	pc, r9, r3, lsl #24
    487c:	11300900 	teqne	r0, r0, lsl #18
    4880:	1b0a0000 	blne	284888 <_end+0x280880>
    4884:	0a000001 	beq	4890 <_end+0x888>
    4888:	00000daf 	andeq	r0, r0, pc, lsr #27
    488c:	000e5c0a 	andeq	r5, lr, sl, lsl #24
    4890:	16030000 	strne	r0, [r3], -r0
    4894:	0900001a 	stmdbeq	r0, {r1, r3, r4}
    4898:	00001158 	andeq	r1, r0, r8, asr r1
    489c:	00011b0a 	andeq	r1, r1, sl, lsl #22
    48a0:	0daf0a00 			; <UNDEFINED> instruction: 0x0daf0a00
    48a4:	5c0a0000 	stcpl	0, cr0, [sl], {-0}
    48a8:	0000000e 	andeq	r0, r0, lr
    48ac:	001a3003 	andseq	r3, sl, r3
    48b0:	116a0900 	cmnne	sl, r0, lsl #18
    48b4:	1b0a0000 	blne	2848bc <_end+0x2808b4>
    48b8:	0a000001 	beq	48c4 <_end+0x8bc>
    48bc:	00000daf 	andeq	r0, r0, pc, lsr #27
    48c0:	000e5c0a 	andeq	r5, lr, sl, lsl #24
    48c4:	4a030000 	bmi	c48cc <_end+0xc08c4>
    48c8:	1100001a 	tstne	r0, sl, lsl r0
    48cc:	00011b0a 	andeq	r1, r1, sl, lsl #22
    48d0:	0daf0a00 			; <UNDEFINED> instruction: 0x0daf0a00
    48d4:	5c0a0000 	stcpl	0, cr0, [sl], {-0}
    48d8:	0a00000e 	beq	4918 <_end+0x910>
    48dc:	00000daf 	andeq	r0, r0, pc, lsr #27
    48e0:	1a650300 	bne	19454e8 <_end+0x19414e0>
    48e4:	0a110000 	beq	4448ec <_end+0x4408e4>
    48e8:	0000011b 	andeq	r0, r0, fp, lsl r1
    48ec:	000daf0a 	andeq	sl, sp, sl, lsl #30
    48f0:	0e5c0a00 	vnmlseq.f32	s1, s24, s0
    48f4:	900a0000 	andls	r0, sl, r0
    48f8:	0000000e 	andeq	r0, r0, lr
    48fc:	001a8003 	andseq	r8, sl, r3
    4900:	1b0a1100 	blne	288d08 <_end+0x284d00>
    4904:	0a000001 	beq	4910 <_end+0x908>
    4908:	00000daf 	andeq	r0, r0, pc, lsr #27
    490c:	000e5c0a 	andeq	r5, lr, sl, lsl #24
    4910:	0dd50a00 	vldreq	s1, [r5]
    4914:	03000000 	movweq	r0, #0
    4918:	00001a9b 	muleq	r0, fp, sl
    491c:	011b0a11 	tsteq	fp, r1, lsl sl
    4920:	af0a0000 	svcge	0x000a0000
    4924:	0a00000d 	beq	4960 <_end+0x958>
    4928:	00000e5c 	andeq	r0, r0, ip, asr lr
    492c:	0010e00a 	andseq	lr, r0, sl
    4930:	b6030000 	strlt	r0, [r3], -r0
    4934:	1100001a 	tstne	r0, sl, lsl r0
    4938:	00011b0a 	andeq	r1, r1, sl, lsl #22
    493c:	0daf0a00 			; <UNDEFINED> instruction: 0x0daf0a00
    4940:	5c0a0000 	stcpl	0, cr0, [sl], {-0}
    4944:	0a00000e 	beq	4984 <_end+0x97c>
    4948:	00001108 	andeq	r1, r0, r8, lsl #2
    494c:	1ad10300 	bne	ff445554 <_end+0xff44154c>
    4950:	0a110000 	beq	444958 <_end+0x440950>
    4954:	0000011b 	andeq	r0, r0, fp, lsl r1
    4958:	000daf0a 	andeq	sl, sp, sl, lsl #30
    495c:	0e5c0a00 	vnmlseq.f32	s1, s24, s0
    4960:	d40a0000 	strle	r0, [sl], #-0
    4964:	00000000 	andeq	r0, r0, r0
    4968:	001aec03 	andseq	lr, sl, r3, lsl #24
    496c:	1b0a1100 	blne	288d74 <_end+0x284d6c>
    4970:	0a000001 	beq	497c <_end+0x974>
    4974:	00000daf 	andeq	r0, r0, pc, lsr #27
    4978:	000e5c0a 	andeq	r5, lr, sl, lsl #24
    497c:	11300a00 	teqne	r0, r0, lsl #20
    4980:	03000000 	movweq	r0, #0
    4984:	00001b07 	andeq	r1, r0, r7, lsl #22
    4988:	011b0a11 	tsteq	fp, r1, lsl sl
    498c:	af0a0000 	svcge	0x000a0000
    4990:	0a00000d 	beq	49cc <_end+0x9c4>
    4994:	00000e5c 	andeq	r0, r0, ip, asr lr
    4998:	0011580a 	andseq	r5, r1, sl, lsl #16
    499c:	22030000 	andcs	r0, r3, #0
    49a0:	1100001b 	tstne	r0, fp, lsl r0
    49a4:	00011b0a 	andeq	r1, r1, sl, lsl #22
    49a8:	0daf0a00 			; <UNDEFINED> instruction: 0x0daf0a00
    49ac:	5c0a0000 	stcpl	0, cr0, [sl], {-0}
    49b0:	0a00000e 	beq	49f0 <_end+0x9e8>
    49b4:	0000116a 	andeq	r1, r0, sl, ror #2
    49b8:	1b3d0300 	blne	f455c0 <_end+0xf415b8>
    49bc:	90090000 	andls	r0, r9, r0
    49c0:	0a00000e 	beq	4a00 <_end+0x9f8>
    49c4:	0000011b 	andeq	r0, r0, fp, lsl r1
    49c8:	000da40a 	andeq	sl, sp, sl, lsl #8
    49cc:	0e320a00 	vaddeq.f32	s0, s4, s0
    49d0:	00120000 	andseq	r0, r2, r0
    49d4:	001b5803 	andseq	r5, fp, r3, lsl #16
    49d8:	0e900900 	vfnmseq.f16	s0, s0, s0	; <UNPREDICTABLE>
    49dc:	1b0a0000 	blne	2849e4 <_end+0x2809dc>
    49e0:	0a000001 	beq	49ec <_end+0x9e4>
    49e4:	00000da4 	andeq	r0, r0, r4, lsr #27
    49e8:	000e320a 	andeq	r3, lr, sl, lsl #4
    49ec:	10110a00 	andsne	r0, r1, r0, lsl #20
    49f0:	03000000 	movweq	r0, #0
    49f4:	00001b77 	andeq	r1, r0, r7, ror fp
    49f8:	000e9009 	andeq	r9, lr, r9
    49fc:	011b0a00 	tsteq	fp, r0, lsl #20
    4a00:	a40a0000 	strge	r0, [sl], #-0
    4a04:	0a00000d 	beq	4a40 <_end+0xa38>
    4a08:	00000e32 	andeq	r0, r0, r2, lsr lr
    4a0c:	00105b0a 	andseq	r5, r0, sl, lsl #22
    4a10:	96030000 	strls	r0, [r3], -r0
    4a14:	0900001b 	stmdbeq	r0, {r0, r1, r3, r4}
    4a18:	00000dd5 	ldrdeq	r0, [r0], -r5
    4a1c:	00011b0a 	andeq	r1, r1, sl, lsl #22
    4a20:	0da40a00 			; <UNDEFINED> instruction: 0x0da40a00
    4a24:	320a0000 	andcc	r0, sl, #0
    4a28:	1200000e 	andne	r0, r0, #14
    4a2c:	1bb10300 	blne	fec45634 <_end+0xfec4162c>
    4a30:	d5090000 	strle	r0, [r9, #-0]
    4a34:	0a00000d 	beq	4a70 <_end+0xa68>
    4a38:	0000011b 	andeq	r0, r0, fp, lsl r1
    4a3c:	000da40a 	andeq	sl, sp, sl, lsl #8
    4a40:	0e320a00 	vaddeq.f32	s0, s4, s0
    4a44:	110a0000 	mrsne	r0, (UNDEF: 10)
    4a48:	00000010 	andeq	r0, r0, r0, lsl r0
    4a4c:	001bd003 	andseq	sp, fp, r3
    4a50:	0dd50900 	vldreq.16	s1, [r5]	; <UNPREDICTABLE>
    4a54:	1b0a0000 	blne	284a5c <_end+0x280a54>
    4a58:	0a000001 	beq	4a64 <_end+0xa5c>
    4a5c:	00000da4 	andeq	r0, r0, r4, lsr #27
    4a60:	000e320a 	andeq	r3, lr, sl, lsl #4
    4a64:	105b0a00 	subsne	r0, fp, r0, lsl #20
    4a68:	03000000 	movweq	r0, #0
    4a6c:	00001bef 	andeq	r1, r0, pc, ror #23
    4a70:	0010e009 	andseq	lr, r0, r9
    4a74:	011b0a00 	tsteq	fp, r0, lsl #20
    4a78:	a40a0000 	strge	r0, [sl], #-0
    4a7c:	0a00000d 	beq	4ab8 <_end+0xab0>
    4a80:	00000e32 	andeq	r0, r0, r2, lsr lr
    4a84:	0a030012 	beq	c4ad4 <_end+0xc0acc>
    4a88:	0900001c 	stmdbeq	r0, {r2, r3, r4}
    4a8c:	000010e0 	andeq	r1, r0, r0, ror #1
    4a90:	00011b0a 	andeq	r1, r1, sl, lsl #22
    4a94:	0da40a00 			; <UNDEFINED> instruction: 0x0da40a00
    4a98:	320a0000 	andcc	r0, sl, #0
    4a9c:	0a00000e 	beq	4adc <_end+0xad4>
    4aa0:	00001011 	andeq	r1, r0, r1, lsl r0
    4aa4:	1c290300 	stcne	3, cr0, [r9], #-0
    4aa8:	e0090000 	and	r0, r9, r0
    4aac:	0a000010 	beq	4af4 <_end+0xaec>
    4ab0:	0000011b 	andeq	r0, r0, fp, lsl r1
    4ab4:	000da40a 	andeq	sl, sp, sl, lsl #8
    4ab8:	0e320a00 	vaddeq.f32	s0, s4, s0
    4abc:	5b0a0000 	blpl	284ac4 <_end+0x280abc>
    4ac0:	00000010 	andeq	r0, r0, r0, lsl r0
    4ac4:	001c4803 	andseq	r4, ip, r3, lsl #16
    4ac8:	11080900 	tstne	r8, r0, lsl #18
    4acc:	1b0a0000 	blne	284ad4 <_end+0x280acc>
    4ad0:	0a000001 	beq	4adc <_end+0xad4>
    4ad4:	00000da4 	andeq	r0, r0, r4, lsr #27
    4ad8:	000e320a 	andeq	r3, lr, sl, lsl #4
    4adc:	03001200 	movweq	r1, #512	; 0x200
    4ae0:	00001c63 	andeq	r1, r0, r3, ror #24
    4ae4:	00110809 	andseq	r0, r1, r9, lsl #16
    4ae8:	011b0a00 	tsteq	fp, r0, lsl #20
    4aec:	a40a0000 	strge	r0, [sl], #-0
    4af0:	0a00000d 	beq	4b2c <_end+0xb24>
    4af4:	00000e32 	andeq	r0, r0, r2, lsr lr
    4af8:	0010110a 	andseq	r1, r0, sl, lsl #2
    4afc:	82030000 	andhi	r0, r3, #0
    4b00:	0900001c 	stmdbeq	r0, {r2, r3, r4}
    4b04:	00001108 	andeq	r1, r0, r8, lsl #2
    4b08:	00011b0a 	andeq	r1, r1, sl, lsl #22
    4b0c:	0da40a00 			; <UNDEFINED> instruction: 0x0da40a00
    4b10:	320a0000 	andcc	r0, sl, #0
    4b14:	0a00000e 	beq	4b54 <_end+0xb4c>
    4b18:	0000105b 	andeq	r1, r0, fp, asr r0
    4b1c:	1ca10300 	stcne	3, cr0, [r1]
    4b20:	d4090000 	strle	r0, [r9], #-0
    4b24:	0a000000 	beq	4b2c <_end+0xb24>
    4b28:	0000011b 	andeq	r0, r0, fp, lsl r1
    4b2c:	000da40a 	andeq	sl, sp, sl, lsl #8
    4b30:	0e320a00 	vaddeq.f32	s0, s4, s0
    4b34:	00120000 	andseq	r0, r2, r0
    4b38:	001cbc03 	andseq	fp, ip, r3, lsl #24
    4b3c:	00d40900 	sbcseq	r0, r4, r0, lsl #18
    4b40:	1b0a0000 	blne	284b48 <_end+0x280b40>
    4b44:	0a000001 	beq	4b50 <_end+0xb48>
    4b48:	00000da4 	andeq	r0, r0, r4, lsr #27
    4b4c:	000e320a 	andeq	r3, lr, sl, lsl #4
    4b50:	10110a00 	andsne	r0, r1, r0, lsl #20
    4b54:	03000000 	movweq	r0, #0
    4b58:	00001cdb 	ldrdeq	r1, [r0], -fp
    4b5c:	0000d409 	andeq	sp, r0, r9, lsl #8
    4b60:	011b0a00 	tsteq	fp, r0, lsl #20
    4b64:	a40a0000 	strge	r0, [sl], #-0
    4b68:	0a00000d 	beq	4ba4 <_end+0xb9c>
    4b6c:	00000e32 	andeq	r0, r0, r2, lsr lr
    4b70:	00105b0a 	andseq	r5, r0, sl, lsl #22
    4b74:	fa030000 	blx	c4b7c <_end+0xc0b74>
    4b78:	0900001c 	stmdbeq	r0, {r2, r3, r4}
    4b7c:	00001130 	andeq	r1, r0, r0, lsr r1
    4b80:	00011b0a 	andeq	r1, r1, sl, lsl #22
    4b84:	0da40a00 			; <UNDEFINED> instruction: 0x0da40a00
    4b88:	320a0000 	andcc	r0, sl, #0
    4b8c:	1200000e 	andne	r0, r0, #14
    4b90:	1d150300 	ldcne	3, cr0, [r5, #-0]
    4b94:	30090000 	andcc	r0, r9, r0
    4b98:	0a000011 	beq	4be4 <_end+0xbdc>
    4b9c:	0000011b 	andeq	r0, r0, fp, lsl r1
    4ba0:	000da40a 	andeq	sl, sp, sl, lsl #8
    4ba4:	0e320a00 	vaddeq.f32	s0, s4, s0
    4ba8:	110a0000 	mrsne	r0, (UNDEF: 10)
    4bac:	00000010 	andeq	r0, r0, r0, lsl r0
    4bb0:	001d3403 	andseq	r3, sp, r3, lsl #8
    4bb4:	11300900 	teqne	r0, r0, lsl #18
    4bb8:	1b0a0000 	blne	284bc0 <_end+0x280bb8>
    4bbc:	0a000001 	beq	4bc8 <_end+0xbc0>
    4bc0:	00000da4 	andeq	r0, r0, r4, lsr #27
    4bc4:	000e320a 	andeq	r3, lr, sl, lsl #4
    4bc8:	105b0a00 	subsne	r0, fp, r0, lsl #20
    4bcc:	03000000 	movweq	r0, #0
    4bd0:	00001d53 	andeq	r1, r0, r3, asr sp
    4bd4:	00115809 	andseq	r5, r1, r9, lsl #16
    4bd8:	011b0a00 	tsteq	fp, r0, lsl #20
    4bdc:	a40a0000 	strge	r0, [sl], #-0
    4be0:	0a00000d 	beq	4c1c <_end+0xc14>
    4be4:	00000e32 	andeq	r0, r0, r2, lsr lr
    4be8:	6e030012 	mcrvs	0, 0, r0, cr3, cr2, {0}
    4bec:	0900001d 	stmdbeq	r0, {r0, r2, r3, r4}
    4bf0:	00001158 	andeq	r1, r0, r8, asr r1
    4bf4:	00011b0a 	andeq	r1, r1, sl, lsl #22
    4bf8:	0da40a00 			; <UNDEFINED> instruction: 0x0da40a00
    4bfc:	320a0000 	andcc	r0, sl, #0
    4c00:	0a00000e 	beq	4c40 <_end+0xc38>
    4c04:	00001011 	andeq	r1, r0, r1, lsl r0
    4c08:	1d8d0300 	stcne	3, cr0, [sp]
    4c0c:	58090000 	stmdapl	r9, {}	; <UNPREDICTABLE>
    4c10:	0a000011 	beq	4c5c <_end+0xc54>
    4c14:	0000011b 	andeq	r0, r0, fp, lsl r1
    4c18:	000da40a 	andeq	sl, sp, sl, lsl #8
    4c1c:	0e320a00 	vaddeq.f32	s0, s4, s0
    4c20:	5b0a0000 	blpl	284c28 <_end+0x280c20>
    4c24:	00000010 	andeq	r0, r0, r0, lsl r0
    4c28:	001dac03 	andseq	sl, sp, r3, lsl #24
    4c2c:	116a0900 	cmnne	sl, r0, lsl #18
    4c30:	1b0a0000 	blne	284c38 <_end+0x280c30>
    4c34:	0a000001 	beq	4c40 <_end+0xc38>
    4c38:	00000da4 	andeq	r0, r0, r4, lsr #27
    4c3c:	000e320a 	andeq	r3, lr, sl, lsl #4
    4c40:	03001200 	movweq	r1, #512	; 0x200
    4c44:	00001dc7 	andeq	r1, r0, r7, asr #27
    4c48:	00116a09 	andseq	r6, r1, r9, lsl #20
    4c4c:	011b0a00 	tsteq	fp, r0, lsl #20
    4c50:	a40a0000 	strge	r0, [sl], #-0
    4c54:	0a00000d 	beq	4c90 <_end+0xc88>
    4c58:	00000e32 	andeq	r0, r0, r2, lsr lr
    4c5c:	0010110a 	andseq	r1, r0, sl, lsl #2
    4c60:	e6030000 	str	r0, [r3], -r0
    4c64:	0900001d 	stmdbeq	r0, {r0, r2, r3, r4}
    4c68:	0000116a 	andeq	r1, r0, sl, ror #2
    4c6c:	00011b0a 	andeq	r1, r1, sl, lsl #22
    4c70:	0da40a00 			; <UNDEFINED> instruction: 0x0da40a00
    4c74:	320a0000 	andcc	r0, sl, #0
    4c78:	0a00000e 	beq	4cb8 <_end+0xcb0>
    4c7c:	0000105b 	andeq	r1, r0, fp, asr r0
    4c80:	1e050300 	cdpne	3, 0, cr0, cr5, cr0, {0}
    4c84:	0a110000 	beq	444c8c <_end+0x440c84>
    4c88:	0000011b 	andeq	r0, r0, fp, lsl r1
    4c8c:	000da40a 	andeq	sl, sp, sl, lsl #8
    4c90:	0e320a00 	vaddeq.f32	s0, s4, s0
    4c94:	00120000 	andseq	r0, r2, r0
    4c98:	001e1c03 	andseq	r1, lr, r3, lsl #24
    4c9c:	1b0a1100 	blne	2890a4 <_end+0x28509c>
    4ca0:	0a000001 	beq	4cac <_end+0xca4>
    4ca4:	00000da4 	andeq	r0, r0, r4, lsr #27
    4ca8:	000e320a 	andeq	r3, lr, sl, lsl #4
    4cac:	10110a00 	andsne	r0, r1, r0, lsl #20
    4cb0:	03000000 	movweq	r0, #0
    4cb4:	00001e37 	andeq	r1, r0, r7, lsr lr
    4cb8:	011b0a11 	tsteq	fp, r1, lsl sl
    4cbc:	a40a0000 	strge	r0, [sl], #-0
    4cc0:	0a00000d 	beq	4cfc <_end+0xcf4>
    4cc4:	00000e32 	andeq	r0, r0, r2, lsr lr
    4cc8:	00105b0a 	andseq	r5, r0, sl, lsl #22
    4ccc:	52030000 	andpl	r0, r3, #0
    4cd0:	0900001e 	stmdbeq	r0, {r1, r2, r3, r4}
    4cd4:	00000daf 	andeq	r0, r0, pc, lsr #27
    4cd8:	00011b0a 	andeq	r1, r1, sl, lsl #22
    4cdc:	0da40a00 			; <UNDEFINED> instruction: 0x0da40a00
    4ce0:	5c0a0000 	stcpl	0, cr0, [sl], {-0}
    4ce4:	0000000e 	andeq	r0, r0, lr
    4ce8:	001e6c03 	andseq	r6, lr, r3, lsl #24
    4cec:	0e900900 	vfnmseq.f16	s0, s0, s0	; <UNPREDICTABLE>
    4cf0:	1b0a0000 	blne	284cf8 <_end+0x280cf0>
    4cf4:	0a000001 	beq	4d00 <_end+0xcf8>
    4cf8:	00000da4 	andeq	r0, r0, r4, lsr #27
    4cfc:	000e5c0a 	andeq	r5, lr, sl, lsl #24
    4d00:	86030000 	strhi	r0, [r3], -r0
    4d04:	0900001e 	stmdbeq	r0, {r1, r2, r3, r4}
    4d08:	00000dd5 	ldrdeq	r0, [r0], -r5
    4d0c:	00011b0a 	andeq	r1, r1, sl, lsl #22
    4d10:	0da40a00 			; <UNDEFINED> instruction: 0x0da40a00
    4d14:	5c0a0000 	stcpl	0, cr0, [sl], {-0}
    4d18:	0000000e 	andeq	r0, r0, lr
    4d1c:	001ea003 	andseq	sl, lr, r3
    4d20:	10e00900 	rscne	r0, r0, r0, lsl #18
    4d24:	1b0a0000 	blne	284d2c <_end+0x280d24>
    4d28:	0a000001 	beq	4d34 <_end+0xd2c>
    4d2c:	00000da4 	andeq	r0, r0, r4, lsr #27
    4d30:	000e5c0a 	andeq	r5, lr, sl, lsl #24
    4d34:	ba030000 	blt	c4d3c <_end+0xc0d34>
    4d38:	0900001e 	stmdbeq	r0, {r1, r2, r3, r4}
    4d3c:	00001108 	andeq	r1, r0, r8, lsl #2
    4d40:	00011b0a 	andeq	r1, r1, sl, lsl #22
    4d44:	0da40a00 			; <UNDEFINED> instruction: 0x0da40a00
    4d48:	5c0a0000 	stcpl	0, cr0, [sl], {-0}
    4d4c:	0000000e 	andeq	r0, r0, lr
    4d50:	001ed403 	andseq	sp, lr, r3, lsl #8
    4d54:	00d40900 	sbcseq	r0, r4, r0, lsl #18
    4d58:	1b0a0000 	blne	284d60 <_end+0x280d58>
    4d5c:	0a000001 	beq	4d68 <_end+0xd60>
    4d60:	00000da4 	andeq	r0, r0, r4, lsr #27
    4d64:	000e5c0a 	andeq	r5, lr, sl, lsl #24
    4d68:	ee030000 	cdp	0, 0, cr0, cr3, cr0, {0}
    4d6c:	0900001e 	stmdbeq	r0, {r1, r2, r3, r4}
    4d70:	00001130 	andeq	r1, r0, r0, lsr r1
    4d74:	00011b0a 	andeq	r1, r1, sl, lsl #22
    4d78:	0da40a00 			; <UNDEFINED> instruction: 0x0da40a00
    4d7c:	5c0a0000 	stcpl	0, cr0, [sl], {-0}
    4d80:	0000000e 	andeq	r0, r0, lr
    4d84:	001f0803 	andseq	r0, pc, r3, lsl #16
    4d88:	11580900 	cmpne	r8, r0, lsl #18
    4d8c:	1b0a0000 	blne	284d94 <_end+0x280d8c>
    4d90:	0a000001 	beq	4d9c <_end+0xd94>
    4d94:	00000da4 	andeq	r0, r0, r4, lsr #27
    4d98:	000e5c0a 	andeq	r5, lr, sl, lsl #24
    4d9c:	22030000 	andcs	r0, r3, #0
    4da0:	0900001f 	stmdbeq	r0, {r0, r1, r2, r3, r4}
    4da4:	0000116a 	andeq	r1, r0, sl, ror #2
    4da8:	00011b0a 	andeq	r1, r1, sl, lsl #22
    4dac:	0da40a00 			; <UNDEFINED> instruction: 0x0da40a00
    4db0:	5c0a0000 	stcpl	0, cr0, [sl], {-0}
    4db4:	0000000e 	andeq	r0, r0, lr
    4db8:	001f3c03 	andseq	r3, pc, r3, lsl #24
    4dbc:	1b0a1100 	blne	2891c4 <_end+0x2851bc>
    4dc0:	0a000001 	beq	4dcc <_end+0xdc4>
    4dc4:	00000da4 	andeq	r0, r0, r4, lsr #27
    4dc8:	000e5c0a 	andeq	r5, lr, sl, lsl #24
    4dcc:	0daf0a00 			; <UNDEFINED> instruction: 0x0daf0a00
    4dd0:	03000000 	movweq	r0, #0
    4dd4:	00001f57 	andeq	r1, r0, r7, asr pc
    4dd8:	011b0a11 	tsteq	fp, r1, lsl sl
    4ddc:	a40a0000 	strge	r0, [sl], #-0
    4de0:	0a00000d 	beq	4e1c <_end+0xe14>
    4de4:	00000e5c 	andeq	r0, r0, ip, asr lr
    4de8:	000e900a 	andeq	r9, lr, sl
    4dec:	72030000 	andvc	r0, r3, #0
    4df0:	1100001f 	tstne	r0, pc, lsl r0
    4df4:	00011b0a 	andeq	r1, r1, sl, lsl #22
    4df8:	0da40a00 			; <UNDEFINED> instruction: 0x0da40a00
    4dfc:	5c0a0000 	stcpl	0, cr0, [sl], {-0}
    4e00:	0a00000e 	beq	4e40 <_end+0xe38>
    4e04:	00000dd5 	ldrdeq	r0, [r0], -r5
    4e08:	1f8d0300 	svcne	0x008d0300
    4e0c:	0a110000 	beq	444e14 <_end+0x440e0c>
    4e10:	0000011b 	andeq	r0, r0, fp, lsl r1
    4e14:	000da40a 	andeq	sl, sp, sl, lsl #8
    4e18:	0e5c0a00 	vnmlseq.f32	s1, s24, s0
    4e1c:	e00a0000 	and	r0, sl, r0
    4e20:	00000010 	andeq	r0, r0, r0, lsl r0
    4e24:	001fa803 	andseq	sl, pc, r3, lsl #16
    4e28:	1b0a1100 	blne	289230 <_end+0x285228>
    4e2c:	0a000001 	beq	4e38 <_end+0xe30>
    4e30:	00000da4 	andeq	r0, r0, r4, lsr #27
    4e34:	000e5c0a 	andeq	r5, lr, sl, lsl #24
    4e38:	11080a00 	tstne	r8, r0, lsl #20
    4e3c:	03000000 	movweq	r0, #0
    4e40:	00001fc3 	andeq	r1, r0, r3, asr #31
    4e44:	011b0a11 	tsteq	fp, r1, lsl sl
    4e48:	a40a0000 	strge	r0, [sl], #-0
    4e4c:	0a00000d 	beq	4e88 <_end+0xe80>
    4e50:	00000e5c 	andeq	r0, r0, ip, asr lr
    4e54:	0000d40a 	andeq	sp, r0, sl, lsl #8
    4e58:	de030000 	cdple	0, 0, cr0, cr3, cr0, {0}
    4e5c:	1100001f 	tstne	r0, pc, lsl r0
    4e60:	00011b0a 	andeq	r1, r1, sl, lsl #22
    4e64:	0da40a00 			; <UNDEFINED> instruction: 0x0da40a00
    4e68:	5c0a0000 	stcpl	0, cr0, [sl], {-0}
    4e6c:	0a00000e 	beq	4eac <_end+0xea4>
    4e70:	00001130 	andeq	r1, r0, r0, lsr r1
    4e74:	1ff90300 	svcne	0x00f90300
    4e78:	0a110000 	beq	444e80 <_end+0x440e78>
    4e7c:	0000011b 	andeq	r0, r0, fp, lsl r1
    4e80:	000da40a 	andeq	sl, sp, sl, lsl #8
    4e84:	0e5c0a00 	vnmlseq.f32	s1, s24, s0
    4e88:	580a0000 	stmdapl	sl, {}	; <UNPREDICTABLE>
    4e8c:	00000011 	andeq	r0, r0, r1, lsl r0
    4e90:	00201403 	eoreq	r1, r0, r3, lsl #8
    4e94:	1b0a1100 	blne	28929c <_end+0x285294>
    4e98:	0a000001 	beq	4ea4 <_end+0xe9c>
    4e9c:	00000da4 	andeq	r0, r0, r4, lsr #27
    4ea0:	000e5c0a 	andeq	r5, lr, sl, lsl #24
    4ea4:	116a0a00 	cmnne	sl, r0, lsl #20
    4ea8:	03000000 	movweq	r0, #0
    4eac:	0000202f 	andeq	r2, r0, pc, lsr #32
    4eb0:	00204409 	eoreq	r4, r0, r9, lsl #8
    4eb4:	011b0a00 	tsteq	fp, r0, lsl #20
    4eb8:	4f0a0000 	svcmi	0x000a0000
    4ebc:	0a000020 	beq	4f44 <_end+0xf3c>
    4ec0:	00000dfd 	strdeq	r0, [r0], -sp
    4ec4:	0daf0400 	cfstrseq	mvf0, [pc]	; 4ecc <_end+0xec4>
    4ec8:	027e0000 	rsbseq	r0, lr, #0
    4ecc:	56010000 	strpl	r0, [r1], -r0
    4ed0:	00205403 	eoreq	r5, r0, r3, lsl #8
    4ed4:	10e00500 	rscne	r0, r0, r0, lsl #10
    4ed8:	5e030000 	cdppl	0, 0, cr0, cr3, cr0, {0}
    4edc:	09000020 	stmdbeq	r0, {r5}
    4ee0:	00000dfd 	strdeq	r0, [r0], -sp
    4ee4:	00011b0a 	andeq	r1, r1, sl, lsl #22
    4ee8:	20440a00 	subcs	r0, r4, r0, lsl #20
    4eec:	03000000 	movweq	r0, #0
    4ef0:	00002073 	andeq	r2, r0, r3, ror r0
    4ef4:	00204f09 	eoreq	r4, r0, r9, lsl #30
    4ef8:	011b0a00 	tsteq	fp, r0, lsl #20
    4efc:	440a0000 	strmi	r0, [sl], #-0
    4f00:	0a000020 	beq	4f88 <_end+0xf80>
    4f04:	00002088 	andeq	r2, r0, r8, lsl #1
    4f08:	0e900300 	cdpeq	3, 9, cr0, cr0, cr0, {0}
    4f0c:	92030000 	andls	r0, r3, #0
    4f10:	11000020 	tstne	r0, r0, lsr #32
    4f14:	00011b0a 	andeq	r1, r1, sl, lsl #22
    4f18:	20440a00 	subcs	r0, r4, r0, lsl #20
    4f1c:	4f0a0000 	svcmi	0x000a0000
    4f20:	00000020 	andeq	r0, r0, r0, lsr #32
    4f24:	0020a803 	eoreq	sl, r0, r3, lsl #16
    4f28:	20440900 	subcs	r0, r4, r0, lsl #18
    4f2c:	1b0a0000 	blne	284f34 <_end+0x280f2c>
    4f30:	0a000001 	beq	4f3c <_end+0xf34>
    4f34:	00000dba 			; <UNDEFINED> instruction: 0x00000dba
    4f38:	20bd0300 	adcscs	r0, sp, r0, lsl #6
    4f3c:	ba090000 	blt	244f44 <_end+0x240f3c>
    4f40:	0a00000d 	beq	4f7c <_end+0xf74>
    4f44:	0000011b 	andeq	r0, r0, fp, lsl r1
    4f48:	0020440a 	eoreq	r4, r0, sl, lsl #8
    4f4c:	20880a00 	addcs	r0, r8, r0, lsl #20
    4f50:	03000000 	movweq	r0, #0
    4f54:	000020d7 	ldrdeq	r2, [r0], -r7
    4f58:	011b0a11 	tsteq	fp, r1, lsl sl
    4f5c:	440a0000 	strmi	r0, [sl], #-0
    4f60:	0a000020 	beq	4fe8 <_end+0xfe0>
    4f64:	00000dba 			; <UNDEFINED> instruction: 0x00000dba
    4f68:	20ed0300 	rsccs	r0, sp, r0, lsl #6
    4f6c:	fd090000 	stc2	0, cr0, [r9, #-0]
    4f70:	0a00000d 	beq	4fac <_end+0xfa4>
    4f74:	0000011b 	andeq	r0, r0, fp, lsl r1
    4f78:	0020fd0a 	eoreq	pc, r0, sl, lsl #26
    4f7c:	af040000 	svcge	0x00040000
    4f80:	eb00000d 	bl	4fbc <_end+0xfb4>
    4f84:	01000011 	tsteq	r0, r1, lsl r0
    4f88:	210d0357 	tstcs	sp, r7, asr r3
    4f8c:	27090000 	strcs	r0, [r9, -r0]
    4f90:	0a000021 	beq	501c <_end+0x1014>
    4f94:	0000011b 	andeq	r0, r0, fp, lsl r1
    4f98:	000dfd0a 	andeq	pc, sp, sl, lsl #26
    4f9c:	0da40a00 			; <UNDEFINED> instruction: 0x0da40a00
    4fa0:	af0a0000 	svcge	0x000a0000
    4fa4:	0000000d 	andeq	r0, r0, sp
    4fa8:	0020fd04 	eoreq	pc, r0, r4, lsl #26
    4fac:	00120100 	andseq	r0, r2, r0, lsl #2
    4fb0:	03580100 	cmpeq	r8, #0, 2
    4fb4:	00002137 	andeq	r2, r0, r7, lsr r1
    4fb8:	000daf09 	andeq	sl, sp, r9, lsl #30
    4fbc:	011b0a00 	tsteq	fp, r0, lsl #20
    4fc0:	270a0000 	strcs	r0, [sl, -r0]
    4fc4:	0a000021 	beq	5050 <_end+0x1048>
    4fc8:	00000dfd 	strdeq	r0, [r0], -sp
    4fcc:	21510300 	cmpcs	r1, r0, lsl #6
    4fd0:	0a110000 	beq	444fd8 <_end+0x440fd0>
    4fd4:	0000011b 	andeq	r0, r0, fp, lsl r1
    4fd8:	0021270a 	eoreq	r2, r1, sl, lsl #14
    4fdc:	0dfd0a00 			; <UNDEFINED> instruction: 0x0dfd0a00
    4fe0:	af0a0000 	svcge	0x000a0000
    4fe4:	0000000d 	andeq	r0, r0, sp
    4fe8:	00216c03 	eoreq	r6, r1, r3, lsl #24
    4fec:	217c0900 	cmncs	ip, r0, lsl #18
    4ff0:	1b0a0000 	blne	284ff8 <_end+0x280ff0>
    4ff4:	0a000001 	beq	5000 <_end+0xff8>
    4ff8:	00000dfd 	strdeq	r0, [r0], -sp
    4ffc:	20fd0400 	rscscs	r0, sp, r0, lsl #8
    5000:	124a0000 	subne	r0, sl, #0
    5004:	59010000 	stmdbpl	r1, {}	; <UNPREDICTABLE>
    5008:	00218c03 	eoreq	r8, r1, r3, lsl #24
    500c:	219c0900 	orrscs	r0, ip, r0, lsl #18
    5010:	1b0a0000 	blne	285018 <_end+0x281010>
    5014:	0a000001 	beq	5020 <_end+0x1018>
    5018:	00000dfd 	strdeq	r0, [r0], -sp
    501c:	20fd0400 	rscscs	r0, sp, r0, lsl #8
    5020:	12650000 	rsbne	r0, r5, #0
    5024:	5a010000 	bpl	4502c <_end+0x41024>
    5028:	0021ac03 	eoreq	sl, r1, r3, lsl #24
    502c:	21bc0900 			; <UNDEFINED> instruction: 0x21bc0900
    5030:	1b0a0000 	blne	285038 <_end+0x281030>
    5034:	0a000001 	beq	5040 <_end+0x1038>
    5038:	00000dfd 	strdeq	r0, [r0], -sp
    503c:	20fd0400 	rscscs	r0, sp, r0, lsl #8
    5040:	127d0000 	rsbsne	r0, sp, #0
    5044:	5b010000 	blpl	4504c <_end+0x41044>
    5048:	0021cc03 	eoreq	ip, r1, r3, lsl #24
    504c:	21dc0900 	bicscs	r0, ip, r0, lsl #18
    5050:	1b0a0000 	blne	285058 <_end+0x281050>
    5054:	0a000001 	beq	5060 <_end+0x1058>
    5058:	00000dfd 	strdeq	r0, [r0], -sp
    505c:	20fd0400 	rscscs	r0, sp, r0, lsl #8
    5060:	12960000 	addsne	r0, r6, #0
    5064:	5c010000 	stcpl	0, cr0, [r1], {-0}
    5068:	0021ec03 	eoreq	lr, r1, r3, lsl #24
    506c:	21fc0900 	mvnscs	r0, r0, lsl #18
    5070:	1b0a0000 	blne	285078 <_end+0x281070>
    5074:	0a000001 	beq	5080 <_end+0x1078>
    5078:	00000dfd 	strdeq	r0, [r0], -sp
    507c:	20fd0400 	rscscs	r0, sp, r0, lsl #8
    5080:	12ae0000 	adcne	r0, lr, #0
    5084:	5d010000 	stcpl	0, cr0, [r1, #-0]
    5088:	00220c03 	eoreq	r0, r2, r3, lsl #24
    508c:	221c0900 	andscs	r0, ip, #0, 18
    5090:	1b0a0000 	blne	285098 <_end+0x281090>
    5094:	0a000001 	beq	50a0 <_end+0x1098>
    5098:	00000dfd 	strdeq	r0, [r0], -sp
    509c:	20fd0400 	rscscs	r0, sp, r0, lsl #8
    50a0:	12c50000 	sbcne	r0, r5, #0
    50a4:	5e010000 	cdppl	0, 0, cr0, cr1, cr0, {0}
    50a8:	00222c03 	eoreq	r2, r2, r3, lsl #24
    50ac:	223c0900 	eorscs	r0, ip, #0, 18
    50b0:	1b0a0000 	blne	2850b8 <_end+0x2810b0>
    50b4:	0a000001 	beq	50c0 <_end+0x10b8>
    50b8:	00000dfd 	strdeq	r0, [r0], -sp
    50bc:	20fd0400 	rscscs	r0, sp, r0, lsl #8
    50c0:	12de0000 	sbcsne	r0, lr, #0
    50c4:	5f010000 	svcpl	0x00010000
    50c8:	00224c03 	eoreq	r4, r2, r3, lsl #24
    50cc:	225c0900 	subscs	r0, ip, #0, 18
    50d0:	1b0a0000 	blne	2850d8 <_end+0x2810d0>
    50d4:	0a000001 	beq	50e0 <_end+0x10d8>
    50d8:	00000dfd 	strdeq	r0, [r0], -sp
    50dc:	20fd0400 	rscscs	r0, sp, r0, lsl #8
    50e0:	12f90000 	rscsne	r0, r9, #0
    50e4:	60010000 	andvs	r0, r1, r0
    50e8:	00226c03 	eoreq	r6, r2, r3, lsl #24
    50ec:	20880900 	addcs	r0, r8, r0, lsl #18
    50f0:	1b0a0000 	blne	2850f8 <_end+0x2810f0>
    50f4:	0a000001 	beq	5100 <_end+0x10f8>
    50f8:	0000217c 	andeq	r2, r0, ip, ror r1
    50fc:	0020880a 	eoreq	r8, r0, sl, lsl #16
    5100:	86030000 	strhi	r0, [r3], -r0
    5104:	09000022 	stmdbeq	r0, {r1, r5}
    5108:	0000229b 	muleq	r0, fp, r2
    510c:	00011b0a 	andeq	r1, r1, sl, lsl #22
    5110:	219c0a00 	orrscs	r0, ip, r0, lsl #20
    5114:	880a0000 	stmdahi	sl, {}	; <UNPREDICTABLE>
    5118:	00000020 	andeq	r0, r0, r0, lsr #32
    511c:	000dd503 	andeq	sp, sp, r3, lsl #10
    5120:	22a50300 	adccs	r0, r5, #0, 6
    5124:	ba090000 	blt	24512c <_end+0x241124>
    5128:	0a000022 	beq	51b8 <_end+0x11b0>
    512c:	0000011b 	andeq	r0, r0, fp, lsl r1
    5130:	0021bc0a 	eoreq	fp, r1, sl, lsl #24
    5134:	20880a00 	addcs	r0, r8, r0, lsl #20
    5138:	03000000 	movweq	r0, #0
    513c:	000010e0 	andeq	r1, r0, r0, ror #1
    5140:	0022c403 	eoreq	ip, r2, r3, lsl #8
    5144:	22d90900 	sbcscs	r0, r9, #0, 18
    5148:	1b0a0000 	blne	285150 <_end+0x281148>
    514c:	0a000001 	beq	5158 <_end+0x1150>
    5150:	000021dc 	ldrdeq	r2, [r0], -ip
    5154:	0020880a 	eoreq	r8, r0, sl, lsl #16
    5158:	08030000 	stmdaeq	r3, {}	; <UNPREDICTABLE>
    515c:	03000011 	movweq	r0, #17
    5160:	000022e3 	andeq	r2, r0, r3, ror #5
    5164:	0022f809 	eoreq	pc, r2, r9, lsl #16
    5168:	011b0a00 	tsteq	fp, r0, lsl #20
    516c:	fc0a0000 	stc2	0, cr0, [sl], {-0}
    5170:	0a000021 	beq	51fc <_end+0x11f4>
    5174:	00002088 	andeq	r2, r0, r8, lsl #1
    5178:	00d40300 	sbcseq	r0, r4, r0, lsl #6
    517c:	02030000 	andeq	r0, r3, #0
    5180:	09000023 	stmdbeq	r0, {r0, r1, r5}
    5184:	00002317 	andeq	r2, r0, r7, lsl r3
    5188:	00011b0a 	andeq	r1, r1, sl, lsl #22
    518c:	221c0a00 	andscs	r0, ip, #0, 20
    5190:	880a0000 	stmdahi	sl, {}	; <UNPREDICTABLE>
    5194:	00000020 	andeq	r0, r0, r0, lsr #32
    5198:	00113003 	andseq	r3, r1, r3
    519c:	23210300 			; <UNDEFINED> instruction: 0x23210300
    51a0:	36090000 	strcc	r0, [r9], -r0
    51a4:	0a000023 	beq	5238 <_end+0x1230>
    51a8:	0000011b 	andeq	r0, r0, fp, lsl r1
    51ac:	00223c0a 	eoreq	r3, r2, sl, lsl #24
    51b0:	20880a00 	addcs	r0, r8, r0, lsl #20
    51b4:	03000000 	movweq	r0, #0
    51b8:	00001158 	andeq	r1, r0, r8, asr r1
    51bc:	00234003 	eoreq	r4, r3, r3
    51c0:	23550900 	cmpcs	r5, #0, 18
    51c4:	1b0a0000 	blne	2851cc <_end+0x2811c4>
    51c8:	0a000001 	beq	51d4 <_end+0x11cc>
    51cc:	0000225c 	andeq	r2, r0, ip, asr r2
    51d0:	0020880a 	eoreq	r8, r0, sl, lsl #16
    51d4:	6a030000 	bvs	c51dc <_end+0xc11d4>
    51d8:	03000011 	movweq	r0, #17
    51dc:	0000235f 	andeq	r2, r0, pc, asr r3
    51e0:	011b0a11 	tsteq	fp, r1, lsl sl
    51e4:	7c0a0000 	stcvc	0, cr0, [sl], {-0}
    51e8:	0a000021 	beq	5274 <_end+0x126c>
    51ec:	00002088 	andeq	r2, r0, r8, lsl #1
    51f0:	0000d40a 	andeq	sp, r0, sl, lsl #8
    51f4:	7a030000 	bvc	c51fc <_end+0xc11f4>
    51f8:	11000023 	tstne	r0, r3, lsr #32
    51fc:	00011b0a 	andeq	r1, r1, sl, lsl #22
    5200:	219c0a00 	orrscs	r0, ip, r0, lsl #20
    5204:	9b0a0000 	blls	28520c <_end+0x281204>
    5208:	0a000022 	beq	5298 <_end+0x1290>
    520c:	000000d4 	ldrdeq	r0, [r0], -r4
    5210:	23950300 	orrscs	r0, r5, #0, 6
    5214:	0a110000 	beq	44521c <_end+0x441214>
    5218:	0000011b 	andeq	r0, r0, fp, lsl r1
    521c:	0021bc0a 	eoreq	fp, r1, sl, lsl #24
    5220:	22ba0a00 	adcscs	r0, sl, #0, 20
    5224:	d40a0000 	strle	r0, [sl], #-0
    5228:	00000000 	andeq	r0, r0, r0
    522c:	0023b003 	eoreq	fp, r3, r3
    5230:	1b0a1100 	blne	289638 <_end+0x285630>
    5234:	0a000001 	beq	5240 <_end+0x1238>
    5238:	000021dc 	ldrdeq	r2, [r0], -ip
    523c:	0022d90a 	eoreq	sp, r2, sl, lsl #18
    5240:	00d40a00 	sbcseq	r0, r4, r0, lsl #20
    5244:	03000000 	movweq	r0, #0
    5248:	000023cb 	andeq	r2, r0, fp, asr #7
    524c:	011b0a11 	tsteq	fp, r1, lsl sl
    5250:	fc0a0000 	stc2	0, cr0, [sl], {-0}
    5254:	0a000021 	beq	52e0 <_end+0x12d8>
    5258:	000022f8 	strdeq	r2, [r0], -r8
    525c:	0000d40a 	andeq	sp, r0, sl, lsl #8
    5260:	e6030000 	str	r0, [r3], -r0
    5264:	11000023 	tstne	r0, r3, lsr #32
    5268:	00011b0a 	andeq	r1, r1, sl, lsl #22
    526c:	221c0a00 	andscs	r0, ip, #0, 20
    5270:	170a0000 	strne	r0, [sl, -r0]
    5274:	0a000023 	beq	5308 <_end+0x1300>
    5278:	000000d4 	ldrdeq	r0, [r0], -r4
    527c:	24010300 	strcs	r0, [r1], #-768	; 0xfffffd00
    5280:	0a110000 	beq	445288 <_end+0x441280>
    5284:	0000011b 	andeq	r0, r0, fp, lsl r1
    5288:	00223c0a 	eoreq	r3, r2, sl, lsl #24
    528c:	23360a00 	teqcs	r6, #0, 20
    5290:	d40a0000 	strle	r0, [sl], #-0
    5294:	00000000 	andeq	r0, r0, r0
    5298:	00241c03 	eoreq	r1, r4, r3, lsl #24
    529c:	1b0a1100 	blne	2896a4 <_end+0x28569c>
    52a0:	0a000001 	beq	52ac <_end+0x12a4>
    52a4:	0000225c 	andeq	r2, r0, ip, asr r2
    52a8:	0023550a 	eoreq	r5, r3, sl, lsl #10
    52ac:	00d40a00 	sbcseq	r0, r4, r0, lsl #20
    52b0:	03000000 	movweq	r0, #0
    52b4:	00002437 	andeq	r2, r0, r7, lsr r4
    52b8:	011b0a11 	tsteq	fp, r1, lsl sl
    52bc:	7c0a0000 	stcvc	0, cr0, [sl], {-0}
    52c0:	0a000021 	beq	534c <_end+0x1344>
    52c4:	00000dfd 	strdeq	r0, [r0], -sp
    52c8:	000dfd0a 	andeq	pc, sp, sl, lsl #26
    52cc:	20880a00 	addcs	r0, r8, r0, lsl #20
    52d0:	03000000 	movweq	r0, #0
    52d4:	00002457 	andeq	r2, r0, r7, asr r4
    52d8:	011b0a11 	tsteq	fp, r1, lsl sl
    52dc:	9c0a0000 	stcls	0, cr0, [sl], {-0}
    52e0:	0a000021 	beq	536c <_end+0x1364>
    52e4:	00000dfd 	strdeq	r0, [r0], -sp
    52e8:	000dfd0a 	andeq	pc, sp, sl, lsl #26
    52ec:	229b0a00 	addscs	r0, fp, #0, 20
    52f0:	03000000 	movweq	r0, #0
    52f4:	00002477 	andeq	r2, r0, r7, ror r4
    52f8:	011b0a11 	tsteq	fp, r1, lsl sl
    52fc:	bc0a0000 	stclt	0, cr0, [sl], {-0}
    5300:	0a000021 	beq	538c <_end+0x1384>
    5304:	00000dfd 	strdeq	r0, [r0], -sp
    5308:	000dfd0a 	andeq	pc, sp, sl, lsl #26
    530c:	22ba0a00 	adcscs	r0, sl, #0, 20
    5310:	03000000 	movweq	r0, #0
    5314:	00002497 	muleq	r0, r7, r4
    5318:	011b0a11 	tsteq	fp, r1, lsl sl
    531c:	dc0a0000 	stcle	0, cr0, [sl], {-0}
    5320:	0a000021 	beq	53ac <_end+0x13a4>
    5324:	00000dfd 	strdeq	r0, [r0], -sp
    5328:	000dfd0a 	andeq	pc, sp, sl, lsl #26
    532c:	22d90a00 	sbcscs	r0, r9, #0, 20
    5330:	03000000 	movweq	r0, #0
    5334:	000024b7 			; <UNDEFINED> instruction: 0x000024b7
    5338:	011b0a11 	tsteq	fp, r1, lsl sl
    533c:	fc0a0000 	stc2	0, cr0, [sl], {-0}
    5340:	0a000021 	beq	53cc <_end+0x13c4>
    5344:	00000dfd 	strdeq	r0, [r0], -sp
    5348:	000dfd0a 	andeq	pc, sp, sl, lsl #26
    534c:	22f80a00 	rscscs	r0, r8, #0, 20
    5350:	03000000 	movweq	r0, #0
    5354:	000024d7 	ldrdeq	r2, [r0], -r7
    5358:	011b0a11 	tsteq	fp, r1, lsl sl
    535c:	1c0a0000 	stcne	0, cr0, [sl], {-0}
    5360:	0a000022 	beq	53f0 <_end+0x13e8>
    5364:	00000dfd 	strdeq	r0, [r0], -sp
    5368:	000dfd0a 	andeq	pc, sp, sl, lsl #26
    536c:	23170a00 	tstcs	r7, #0, 20
    5370:	03000000 	movweq	r0, #0
    5374:	000024f7 	strdeq	r2, [r0], -r7
    5378:	011b0a11 	tsteq	fp, r1, lsl sl
    537c:	3c0a0000 	stccc	0, cr0, [sl], {-0}
    5380:	0a000022 	beq	5410 <_end+0x1408>
    5384:	00000dfd 	strdeq	r0, [r0], -sp
    5388:	000dfd0a 	andeq	pc, sp, sl, lsl #26
    538c:	23360a00 	teqcs	r6, #0, 20
    5390:	03000000 	movweq	r0, #0
    5394:	00002517 	andeq	r2, r0, r7, lsl r5
    5398:	011b0a11 	tsteq	fp, r1, lsl sl
    539c:	5c0a0000 	stcpl	0, cr0, [sl], {-0}
    53a0:	0a000022 	beq	5430 <_end+0x1428>
    53a4:	00000dfd 	strdeq	r0, [r0], -sp
    53a8:	000dfd0a 	andeq	pc, sp, sl, lsl #26
    53ac:	23550a00 	cmpcs	r5, #0, 20
    53b0:	03000000 	movweq	r0, #0
    53b4:	00002537 	andeq	r2, r0, r7, lsr r5
    53b8:	011b0a11 	tsteq	fp, r1, lsl sl
    53bc:	7c0a0000 	stcvc	0, cr0, [sl], {-0}
    53c0:	0a000021 	beq	544c <_end+0x1444>
    53c4:	00000dfd 	strdeq	r0, [r0], -sp
    53c8:	000dfd0a 	andeq	pc, sp, sl, lsl #26
    53cc:	25520a00 	ldrbcs	r0, [r2, #-2560]	; 0xfffff600
    53d0:	03000000 	movweq	r0, #0
    53d4:	00002557 	andeq	r2, r0, r7, asr r5
    53d8:	000e9005 	andeq	r9, lr, r5
    53dc:	25610300 	strbcs	r0, [r1, #-768]!	; 0xfffffd00
    53e0:	0a110000 	beq	4453e8 <_end+0x4413e0>
    53e4:	0000011b 	andeq	r0, r0, fp, lsl r1
    53e8:	00219c0a 	eoreq	r9, r1, sl, lsl #24
    53ec:	0dfd0a00 			; <UNDEFINED> instruction: 0x0dfd0a00
    53f0:	fd0a0000 	stc2	0, cr0, [sl, #-0]
    53f4:	0a00000d 	beq	5430 <_end+0x1428>
    53f8:	00000dcb 	andeq	r0, r0, fp, asr #27
    53fc:	25810300 	strcs	r0, [r1, #768]	; 0x300
    5400:	0a110000 	beq	445408 <_end+0x441400>
    5404:	0000011b 	andeq	r0, r0, fp, lsl r1
    5408:	0021bc0a 	eoreq	fp, r1, sl, lsl #24
    540c:	0dfd0a00 			; <UNDEFINED> instruction: 0x0dfd0a00
    5410:	fd0a0000 	stc2	0, cr0, [sl, #-0]
    5414:	0a00000d 	beq	5450 <_end+0x1448>
    5418:	0000204f 	andeq	r2, r0, pc, asr #32
    541c:	25a10300 	strcs	r0, [r1, #768]!	; 0x300
    5420:	0a110000 	beq	445428 <_end+0x441420>
    5424:	0000011b 	andeq	r0, r0, fp, lsl r1
    5428:	0021dc0a 	eoreq	sp, r1, sl, lsl #24
    542c:	0dfd0a00 			; <UNDEFINED> instruction: 0x0dfd0a00
    5430:	fd0a0000 	stc2	0, cr0, [sl, #-0]
    5434:	0a00000d 	beq	5470 <_end+0x1468>
    5438:	000025bc 			; <UNDEFINED> instruction: 0x000025bc
    543c:	25c10300 	strbcs	r0, [r1, #768]	; 0x300
    5440:	08050000 	stmdaeq	r5, {}	; <UNPREDICTABLE>
    5444:	03000011 	movweq	r0, #17
    5448:	000025cb 	andeq	r2, r0, fp, asr #11
    544c:	011b0a11 	tsteq	fp, r1, lsl sl
    5450:	fc0a0000 	stc2	0, cr0, [sl], {-0}
    5454:	0a000021 	beq	54e0 <_end+0x14d8>
    5458:	00000dfd 	strdeq	r0, [r0], -sp
    545c:	000dfd0a 	andeq	pc, sp, sl, lsl #26
    5460:	25e60a00 	strbcs	r0, [r6, #2560]!	; 0xa00
    5464:	03000000 	movweq	r0, #0
    5468:	000025eb 	andeq	r2, r0, fp, ror #11
    546c:	0000d405 	andeq	sp, r0, r5, lsl #8
    5470:	25f50300 	ldrbcs	r0, [r5, #768]!	; 0x300
    5474:	0a110000 	beq	44547c <_end+0x441474>
    5478:	0000011b 	andeq	r0, r0, fp, lsl r1
    547c:	00221c0a 	eoreq	r1, r2, sl, lsl #24
    5480:	0dfd0a00 			; <UNDEFINED> instruction: 0x0dfd0a00
    5484:	fd0a0000 	stc2	0, cr0, [sl, #-0]
    5488:	0a00000d 	beq	54c4 <_end+0x14bc>
    548c:	00002610 	andeq	r2, r0, r0, lsl r6
    5490:	26150300 	ldrcs	r0, [r5], -r0, lsl #6
    5494:	30050000 	andcc	r0, r5, r0
    5498:	03000011 	movweq	r0, #17
    549c:	0000261f 	andeq	r2, r0, pc, lsl r6
    54a0:	011b0a11 	tsteq	fp, r1, lsl sl
    54a4:	3c0a0000 	stccc	0, cr0, [sl], {-0}
    54a8:	0a000022 	beq	5538 <_end+0x1530>
    54ac:	00000dfd 	strdeq	r0, [r0], -sp
    54b0:	000dfd0a 	andeq	pc, sp, sl, lsl #26
    54b4:	263a0a00 	ldrtcs	r0, [sl], -r0, lsl #20
    54b8:	03000000 	movweq	r0, #0
    54bc:	0000263f 	andeq	r2, r0, pc, lsr r6
    54c0:	00115805 	andseq	r5, r1, r5, lsl #16
    54c4:	26490300 	strbcs	r0, [r9], -r0, lsl #6
    54c8:	0a110000 	beq	4454d0 <_end+0x4414c8>
    54cc:	0000011b 	andeq	r0, r0, fp, lsl r1
    54d0:	00225c0a 	eoreq	r5, r2, sl, lsl #24
    54d4:	0dfd0a00 			; <UNDEFINED> instruction: 0x0dfd0a00
    54d8:	fd0a0000 	stc2	0, cr0, [sl, #-0]
    54dc:	0a00000d 	beq	5518 <_end+0x1510>
    54e0:	00002664 	andeq	r2, r0, r4, ror #12
    54e4:	26690300 	strbtcs	r0, [r9], -r0, lsl #6
    54e8:	6a050000 	bvs	1454f0 <_end+0x1414e8>
    54ec:	03000011 	movweq	r0, #17
    54f0:	00002673 	andeq	r2, r0, r3, ror r6
    54f4:	0000d409 	andeq	sp, r0, r9, lsl #8
    54f8:	011b0a00 	tsteq	fp, r0, lsl #20
    54fc:	a40a0000 	strge	r0, [sl], #-0
    5500:	0a00000d 	beq	553c <_end+0x1534>
    5504:	0000268d 	andeq	r2, r0, sp, lsl #13
    5508:	0000d40a 	andeq	sp, r0, sl, lsl #8
    550c:	92030000 	andls	r0, r3, #0
    5510:	05000026 	streq	r0, [r0, #-38]	; 0xffffffda
    5514:	00002697 	muleq	r0, r7, r6
    5518:	0026a204 	eoreq	sl, r6, r4, lsl #4
    551c:	0015de00 	andseq	sp, r5, r0, lsl #28
    5520:	15850100 	strne	r0, [r5, #256]	; 0x100
    5524:	0d81010c 	stfeqs	f0, [r1, #48]	; 0x30
    5528:	00000319 	andeq	r0, r0, r9, lsl r3
    552c:	00000dba 			; <UNDEFINED> instruction: 0x00000dba
    5530:	0d008201 	sfmeq	f0, 1, [r0, #-4]
    5534:	000015ce 	andeq	r1, r0, lr, asr #11
    5538:	00000dba 			; <UNDEFINED> instruction: 0x00000dba
    553c:	0d048301 	stceq	3, cr8, [r4, #-4]
    5540:	000015d8 	ldrdeq	r1, [r0], -r8
    5544:	000000c3 	andeq	r0, r0, r3, asr #1
    5548:	00088401 	andeq	r8, r8, r1, lsl #8
    554c:	0026d003 	eoreq	sp, r6, r3
    5550:	00d40900 	sbcseq	r0, r4, r0, lsl #18
    5554:	1b0a0000 	blne	28555c <_end+0x281554>
    5558:	0a000001 	beq	5564 <_end+0x155c>
    555c:	00000da4 	andeq	r0, r0, r4, lsr #27
    5560:	26e50300 	strbtcs	r0, [r5], r0, lsl #6
    5564:	d4090000 	strle	r0, [r9], #-0
    5568:	0a000000 	beq	5570 <_end+0x1568>
    556c:	0000011b 	andeq	r0, r0, fp, lsl r1
    5570:	000daf0a 	andeq	sl, sp, sl, lsl #30
    5574:	fa030000 	blx	c557c <_end+0xc1574>
    5578:	09000026 	stmdbeq	r0, {r1, r2, r5}
    557c:	000000d4 	ldrdeq	r0, [r0], -r4
    5580:	00011b0a 	andeq	r1, r1, sl, lsl #22
    5584:	270a0a00 	strcs	r0, [sl, -r0, lsl #20]
    5588:	03000000 	movweq	r0, #0
    558c:	00000037 	andeq	r0, r0, r7, lsr r0
    5590:	00271403 	eoreq	r1, r7, r3, lsl #8
    5594:	1b0a1100 	blne	28999c <_end+0x285994>
    5598:	0a000001 	beq	55a4 <_end+0x159c>
    559c:	00002044 	andeq	r2, r0, r4, asr #32
    55a0:	000dfd0a 	andeq	pc, sp, sl, lsl #26
    55a4:	0dfd0a00 			; <UNDEFINED> instruction: 0x0dfd0a00
    55a8:	ba0a0000 	blt	2855b0 <_end+0x2815a8>
    55ac:	00000022 	andeq	r0, r0, r2, lsr #32
    55b0:	00273403 	eoreq	r3, r7, r3, lsl #8
    55b4:	1b0a1100 	blne	2899bc <_end+0x2859b4>
    55b8:	0a000001 	beq	55c4 <_end+0x15bc>
    55bc:	00002044 	andeq	r2, r0, r4, asr #32
    55c0:	000dfd0a 	andeq	pc, sp, sl, lsl #26
    55c4:	0dfd0a00 			; <UNDEFINED> instruction: 0x0dfd0a00
    55c8:	4f0a0000 	svcmi	0x000a0000
    55cc:	00000027 	andeq	r0, r0, r7, lsr #32
    55d0:	000dc403 	andeq	ip, sp, r3, lsl #8
    55d4:	27590300 	ldrbcs	r0, [r9, -r0, lsl #6]
    55d8:	c3090000 	movwgt	r0, #36864	; 0x9000
    55dc:	0a000000 	beq	55e4 <_end+0x15dc>
    55e0:	0000011b 	andeq	r0, r0, fp, lsl r1
    55e4:	0020fd0a 	eoreq	pc, r0, sl, lsl #26
    55e8:	20880a00 	addcs	r0, r8, r0, lsl #20
    55ec:	03000000 	movweq	r0, #0
    55f0:	00002773 	andeq	r2, r0, r3, ror r7
    55f4:	011b0a11 	tsteq	fp, r1, lsl sl
    55f8:	fd0a0000 	stc2	0, cr0, [sl, #-0]
    55fc:	0a000020 	beq	5684 <_end+0x167c>
    5600:	000000c3 	andeq	r0, r0, r3, asr #1
    5604:	0000d40a 	andeq	sp, r0, sl, lsl #8
    5608:	8e030000 	cdphi	0, 0, cr0, cr3, cr0, {0}
    560c:	09000027 	stmdbeq	r0, {r0, r1, r2, r5}
    5610:	0000279e 	muleq	r0, lr, r7
    5614:	00011b0a 	andeq	r1, r1, sl, lsl #22
    5618:	0daf0a00 			; <UNDEFINED> instruction: 0x0daf0a00
    561c:	04000000 	streq	r0, [r0], #-0
    5620:	00000daf 	andeq	r0, r0, pc, lsr #27
    5624:	0000172a 	andeq	r1, r0, sl, lsr #14
    5628:	ae036201 	cdpge	2, 0, cr6, cr3, cr1, {0}
    562c:	11000027 	tstne	r0, r7, lsr #32
    5630:	00011b0a 	andeq	r1, r1, sl, lsl #22
    5634:	279e0a00 	ldrcs	r0, [lr, r0, lsl #20]
    5638:	03000000 	movweq	r0, #0
    563c:	000027bf 			; <UNDEFINED> instruction: 0x000027bf
    5640:	000e9009 	andeq	r9, lr, r9
    5644:	011b0a00 	tsteq	fp, r0, lsl #20
    5648:	03000000 	movweq	r0, #0
    564c:	000027cf 	andeq	r2, r0, pc, asr #15
    5650:	000daf09 	andeq	sl, sp, r9, lsl #30
    5654:	011b0a00 	tsteq	fp, r0, lsl #20
    5658:	c30a0000 	movwgt	r0, #40960	; 0xa000
    565c:	0a000000 	beq	5664 <_end+0x165c>
    5660:	00001130 	andeq	r1, r0, r0, lsr r1
    5664:	27e90300 	strbcs	r0, [r9, r0, lsl #6]!
    5668:	c3090000 	movwgt	r0, #36864	; 0x9000
    566c:	0a000000 	beq	5674 <_end+0x166c>
    5670:	0000011b 	andeq	r0, r0, fp, lsl r1
    5674:	000daf0a 	andeq	sl, sp, sl, lsl #30
    5678:	fe030000 	cdp2	0, 0, cr0, cr3, cr0, {0}
    567c:	09000027 	stmdbeq	r0, {r0, r1, r2, r5}
    5680:	00001130 	andeq	r1, r0, r0, lsr r1
    5684:	00011b0a 	andeq	r1, r1, sl, lsl #22
    5688:	0daf0a00 			; <UNDEFINED> instruction: 0x0daf0a00
    568c:	03000000 	movweq	r0, #0
    5690:	00002813 	andeq	r2, r0, r3, lsl r8
    5694:	00282309 	eoreq	r2, r8, r9, lsl #6
    5698:	011b0a00 	tsteq	fp, r0, lsl #20
    569c:	af0a0000 	svcge	0x000a0000
    56a0:	0000000d 	andeq	r0, r0, sp
    56a4:	00282e04 	eoreq	r2, r8, r4, lsl #28
    56a8:	0001cd00 	andeq	ip, r1, r0, lsl #26
    56ac:	167f0100 	ldrbtne	r0, [pc], -r0, lsl #2
    56b0:	000001cd 	andeq	r0, r0, sp, asr #3
    56b4:	177a0104 	ldrbne	r0, [sl, -r4, lsl #2]!
    56b8:	00000185 	andeq	r0, r0, r5, lsl #3
    56bc:	01971700 	orrseq	r1, r7, r0, lsl #14
    56c0:	17010000 	strne	r0, [r1, -r0]
    56c4:	000001a7 	andeq	r0, r0, r7, lsr #3
    56c8:	01b81702 			; <UNDEFINED> instruction: 0x01b81702
    56cc:	00030000 	andeq	r0, r3, r0
    56d0:	00285403 	eoreq	r5, r8, r3, lsl #8
    56d4:	00d40900 	sbcseq	r0, r4, r0, lsl #18
    56d8:	370a0000 	strcc	r0, [sl, -r0]
    56dc:	0a000000 	beq	56e4 <_end+0x16dc>
    56e0:	00002869 	andeq	r2, r0, r9, ror #16
    56e4:	0000d40a 	andeq	sp, r0, sl, lsl #8
    56e8:	c3030000 	movwgt	r0, #12288	; 0x3000
    56ec:	18000000 	stmdane	r0, {}	; <UNPREDICTABLE>
    56f0:	000014b0 			; <UNDEFINED> instruction: 0x000014b0
    56f4:	0000002c 	andeq	r0, r0, ip, lsr #32
    56f8:	18665701 	stmdane	r6!, {r0, r8, r9, sl, ip, lr}^
    56fc:	09030000 	stmdbeq	r3, {}	; <UNPREDICTABLE>
    5700:	000000d4 	ldrdeq	r0, [r0], -r4
    5704:	107d0219 	rsbsne	r0, sp, r9, lsl r2
    5708:	00001871 	andeq	r1, r0, r1, ror r8
    570c:	00370903 	eorseq	r0, r7, r3, lsl #18
    5710:	02190000 	andseq	r0, r9, #0
    5714:	18740c7d 	ldmdane	r4!, {r0, r2, r3, r4, r5, r6, sl, fp}^
    5718:	09030000 	stmdbeq	r3, {}	; <UNPREDICTABLE>
    571c:	000000c3 	andeq	r0, r0, r3, asr #1
    5720:	087d021a 	ldmdaeq	sp!, {r1, r3, r4, r9}^
    5724:	000017c6 	andeq	r1, r0, r6, asr #15
    5728:	00d40c03 	sbcseq	r0, r4, r3, lsl #24
    572c:	00000000 	andeq	r0, r0, r0
    5730:	00001b53 	andeq	r1, r0, r3, asr fp
    5734:	02db0004 	sbcseq	r0, fp, #4
    5738:	01040000 	mrseq	r0, (UNDEF: 4)
    573c:	00001e70 	andeq	r1, r0, r0, ror lr
    5740:	00219f01 	eoreq	r9, r1, r1, lsl #30
    5744:	0022df00 	eoreq	sp, r2, r0, lsl #30
    5748:	0014dc00 	andseq	sp, r4, r0, lsl #24
    574c:	00092a00 	andeq	r2, r9, r0, lsl #20
    5750:	00055500 	andeq	r5, r5, r0, lsl #10
    5754:	220c0200 	andcs	r0, ip, #0, 4
    5758:	23040000 	movwcs	r0, #16384	; 0x4000
    575c:	00000030 	andeq	r0, r0, r0, lsr r0
    5760:	f2070403 	vshl.s8	d0, d3, d7
    5764:	04000017 	streq	r0, [r0], #-23	; 0xffffffe9
    5768:	6e690504 	cdpvs	5, 6, cr0, cr9, cr4, {0}
    576c:	83020074 	movwhi	r0, #8308	; 0x2074
    5770:	04000022 	streq	r0, [r0], #-34	; 0xffffffde
    5774:	00003025 	andeq	r3, r0, r5, lsr #32
    5778:	755f0500 	ldrbvc	r0, [pc, #-1280]	; 5280 <_end+0x1278>
    577c:	27040077 	smlsdxcs	r4, r7, r0, r0
    5780:	00000025 	andeq	r0, r0, r5, lsr #32
    5784:	001a2c02 	andseq	r2, sl, r2, lsl #24
    5788:	5f280400 	svcpl	0x00280400
    578c:	03000000 	movweq	r0, #0
    5790:	1ba70708 	blne	fe9c73b8 <_end+0xfe9c33b0>
    5794:	77020000 	strvc	r0, [r2, -r0]
    5798:	04000022 	streq	r0, [r0], #-34	; 0xffffffde
    579c:	00007129 	andeq	r7, r0, r9, lsr #2
    57a0:	07020300 	streq	r0, [r2, -r0, lsl #6]
    57a4:	00002394 	muleq	r0, r4, r3
    57a8:	00206802 	eoreq	r6, r0, r2, lsl #16
    57ac:	832a0400 			; <UNDEFINED> instruction: 0x832a0400
    57b0:	03000000 	movweq	r0, #0
    57b4:	04d90801 	ldrbeq	r0, [r9], #2049	; 0x801
    57b8:	04060000 	streq	r0, [r6], #-0
    57bc:	00bd2d04 	adcseq	r2, sp, r4, lsl #26
    57c0:	ad070000 	stcge	0, cr0, [r7, #-0]
    57c4:	00000024 	andeq	r0, r0, r4, lsr #32
    57c8:	00217b07 	eoreq	r7, r1, r7, lsl #22
    57cc:	e8070100 	stmda	r7, {r8}
    57d0:	05000020 	streq	r0, [r0, #-32]	; 0xffffffe0
    57d4:	001e4a07 	andseq	r4, lr, r7, lsl #20
    57d8:	12070600 	andne	r0, r7, #0, 12
    57dc:	0700001d 	smladeq	r0, sp, r0, r0
    57e0:	001c1b07 	andseq	r1, ip, r7, lsl #22
    57e4:	58070800 	stmdapl	r7, {fp}
    57e8:	09000024 	stmdbeq	r0, {r2, r5}
    57ec:	1e1c0200 	cdpne	2, 1, cr0, cr12, cr0, {0}
    57f0:	36040000 	strcc	r0, [r4], -r0
    57f4:	0000008a 	andeq	r0, r0, sl, lsl #1
    57f8:	39040406 	stmdbcc	r4, {r1, r2, sl}
    57fc:	000000f5 	strdeq	r0, [r0], -r5
    5800:	00246a07 	eoreq	r6, r4, r7, lsl #20
    5804:	25070000 	strcs	r0, [r7, #-0]
    5808:	0100001b 	tsteq	r0, fp, lsl r0
    580c:	001dbd07 	andseq	fp, sp, r7, lsl #26
    5810:	02070200 	andeq	r0, r7, #0, 4
    5814:	0300001d 	movweq	r0, #29
    5818:	001bcb07 	andseq	ip, fp, r7, lsl #22
    581c:	e2070800 	and	r0, r7, #0, 16
    5820:	1000001a 	andne	r0, r0, sl, lsl r0
    5824:	23670200 	cmncs	r7, #0, 4
    5828:	41040000 	mrsmi	r0, (UNDEF: 4)
    582c:	000000c8 	andeq	r0, r0, r8, asr #1
    5830:	001abd02 	andseq	fp, sl, r2, lsl #26
    5834:	37440400 	strbcc	r0, [r4, -r0, lsl #8]
    5838:	02000000 	andeq	r0, r0, #0
    583c:	00001f7e 	andeq	r1, r0, lr, ror pc
    5840:	01164c04 	tsteq	r6, r4, lsl #24
    5844:	7e080000 	cdpvc	0, 0, cr0, cr8, cr0, {0}
    5848:	5800001f 	stmdapl	r0, {r0, r1, r2, r3, r4}
    584c:	016b5304 	cmneq	fp, r4, lsl #6
    5850:	02090000 	andeq	r0, r9, #0
    5854:	04000020 	streq	r0, [r0], #-32	; 0xffffffe0
    5858:	00026655 	andeq	r6, r2, r5, asr r6
    585c:	b3090000 	movwlt	r0, #36864	; 0x9000
    5860:	04000018 	streq	r0, [r0], #-24	; 0xffffffe8
    5864:	00029356 	andeq	r9, r2, r6, asr r3
    5868:	f3090800 	vsub.i8	d0, d9, d0
    586c:	0400001c 	streq	r0, [r0], #-28	; 0xffffffe4
    5870:	00018660 	andeq	r8, r1, r0, ror #12
    5874:	1a090c00 	bne	24887c <_end+0x244874>
    5878:	04000020 	streq	r0, [r0], #-32	; 0xffffffe0
    587c:	0001cb67 	andeq	ip, r1, r7, ror #22
    5880:	46092000 	strmi	r2, [r9], -r0
    5884:	0400001c 	streq	r0, [r0], #-28	; 0xffffffe4
    5888:	0002026d 	andeq	r0, r2, sp, ror #4
    588c:	9d093800 	stcls	8, cr3, [r9, #-0]
    5890:	04000022 	streq	r0, [r0], #-34	; 0xffffffde
    5894:	00022776 	andeq	r2, r2, r6, ror r7
    5898:	02004800 	andeq	r4, r0, #0, 16
    589c:	00001a32 	andeq	r1, r0, r2, lsr sl
    58a0:	01764d04 	cmneq	r6, r4, lsl #26
    58a4:	320a0000 	andcc	r0, sl, #0
    58a8:	0200001a 	andeq	r0, r0, #26
    58ac:	00001af3 	strdeq	r1, [r0], -r3
    58b0:	00494e04 	subeq	r4, r9, r4, lsl #28
    58b4:	140b0000 	strne	r0, [fp], #-0
    58b8:	01cb5804 	biceq	r5, fp, r4, lsl #16
    58bc:	f3090000 	vhadd.u8	d0, d9, d0
    58c0:	04000003 	streq	r0, [r0], #-3
    58c4:	0000495a 	andeq	r4, r0, sl, asr r9
    58c8:	fd090000 	stc2	0, cr0, [r9, #-0]
    58cc:	04000003 	streq	r0, [r0], #-3
    58d0:	0000495b 	andeq	r4, r0, fp, asr r9
    58d4:	07090400 	streq	r0, [r9, -r0, lsl #8]
    58d8:	04000004 	streq	r0, [r0], #-4
    58dc:	0000495c 	andeq	r4, r0, ip, asr r9
    58e0:	67090800 	strvs	r0, [r9, -r0, lsl #16]
    58e4:	04000021 	streq	r0, [r0], #-33	; 0xffffffdf
    58e8:	0000495d 	andeq	r4, r0, sp, asr r9
    58ec:	71090c00 	tstvc	r9, r0, lsl #24
    58f0:	04000021 	streq	r0, [r0], #-33	; 0xffffffdf
    58f4:	0000495e 	andeq	r4, r0, lr, asr r9
    58f8:	0b001000 	bleq	9900 <_end+0x58f8>
    58fc:	eb620418 	bl	1886964 <_end+0x188295c>
    5900:	0c000001 	stceq	0, cr0, [r0], {1}
    5904:	04007073 	streq	r7, [r0], #-115	; 0xffffff8d
    5908:	00004964 	andeq	r4, r0, r4, ror #18
    590c:	2b090000 	blcs	245914 <_end+0x24190c>
    5910:	04000019 	streq	r0, [r0], #-25	; 0xffffffe7
    5914:	0001eb65 	andeq	lr, r1, r5, ror #22
    5918:	0d000400 	cfstrseq	mvf0, [r0, #-0]
    591c:	00000049 	andeq	r0, r0, r9, asr #32
    5920:	000001fb 	strdeq	r0, [r0], -fp
    5924:	0001fb0e 	andeq	pc, r1, lr, lsl #22
    5928:	03000400 	movweq	r0, #1024	; 0x400
    592c:	02d50704 	sbcseq	r0, r5, #4, 14	; 0x100000
    5930:	100b0000 	andne	r0, fp, r0
    5934:	02176904 	andseq	r6, r7, #4, 18	; 0x10000
    5938:	2b090000 	blcs	245940 <_end+0x241938>
    593c:	04000019 	streq	r0, [r0], #-25	; 0xffffffe7
    5940:	0002176b 	andeq	r1, r2, fp, ror #14
    5944:	0d000000 	stceq	0, cr0, [r0, #-0]
    5948:	00000049 	andeq	r0, r0, r9, asr #32
    594c:	00000227 	andeq	r0, r0, r7, lsr #4
    5950:	0001fb0e 	andeq	pc, r1, lr, lsl #22
    5954:	0b000300 	bleq	655c <_end+0x2554>
    5958:	606f0410 	rsbvs	r0, pc, r0, lsl r4	; <UNPREDICTABLE>
    595c:	09000002 	stmdbeq	r0, {r1}
    5960:	000022d7 	ldrdeq	r2, [r0], -r7
    5964:	00497104 	subeq	r7, r9, r4, lsl #2
    5968:	09000000 	stmdbeq	r0, {}	; <UNPREDICTABLE>
    596c:	00002272 	andeq	r2, r0, r2, ror r2
    5970:	02607204 	rsbeq	r7, r0, #4, 4	; 0x40000000
    5974:	09040000 	stmdbeq	r4, {}	; <UNPREDICTABLE>
    5978:	00001f94 	muleq	r0, r4, pc	; <UNPREDICTABLE>
    597c:	00497304 	subeq	r7, r9, r4, lsl #6
    5980:	09080000 	stmdbeq	r8, {}	; <UNPREDICTABLE>
    5984:	000003f3 	strdeq	r0, [r0], -r3
    5988:	00497404 	subeq	r7, r9, r4, lsl #8
    598c:	000c0000 	andeq	r0, ip, r0
    5990:	017b040f 	cmneq	fp, pc, lsl #8
    5994:	760d0000 	strvc	r0, [sp], -r0
    5998:	76000002 	strvc	r0, [r0], -r2
    599c:	0e000002 	cdpeq	0, 0, cr0, cr0, cr2, {0}
    59a0:	000001fb 	strdeq	r0, [r0], -fp
    59a4:	01030007 	tsteq	r3, r7
    59a8:	0002d008 	andeq	sp, r2, r8
    59ac:	028d1000 	addeq	r1, sp, #0
    59b0:	bd110000 	ldclt	0, cr0, [r1, #-0]
    59b4:	11000000 	mrsne	r0, (UNDEF: 0)
    59b8:	0000028d 	andeq	r0, r0, sp, lsl #5
    59bc:	0b040f00 	bleq	1095c4 <_end+0x1055bc>
    59c0:	0f000001 	svceq	0x00000001
    59c4:	00027d04 	andeq	r7, r2, r4, lsl #26
    59c8:	04040600 	streq	r0, [r4], #-1536	; 0xfffffa00
    59cc:	0002c07d 	andeq	ip, r2, sp, ror r0
    59d0:	1b830700 	blne	fe0c75d8 <_end+0xfe0c35d0>
    59d4:	07000000 	streq	r0, [r0, -r0]
    59d8:	000020b2 	strheq	r2, [r0], -r2	; <UNPREDICTABLE>
    59dc:	243f0701 	ldrtcs	r0, [pc], #-1793	; 59e4 <_end+0x19dc>
    59e0:	07020000 	streq	r0, [r2, -r0]
    59e4:	00001b8f 	andeq	r1, r0, pc, lsl #23
    59e8:	23750703 	cmncs	r5, #786432	; 0xc0000
    59ec:	00040000 	andeq	r0, r4, r0
    59f0:	0018fd02 	andseq	pc, r8, r2, lsl #26
    59f4:	99840400 	stmibls	r4, {sl}
    59f8:	06000002 	streq	r0, [r0], -r2
    59fc:	f8870404 			; <UNDEFINED> instruction: 0xf8870404
    5a00:	07000002 	streq	r0, [r0, -r2]
    5a04:	000023b9 			; <UNDEFINED> instruction: 0x000023b9
    5a08:	18e10700 	stmiane	r1!, {r8, r9, sl}^
    5a0c:	07010000 	streq	r0, [r1, -r0]
    5a10:	00002219 	andeq	r2, r0, r9, lsl r2
    5a14:	1a1e0702 	bne	787624 <_end+0x78361c>
    5a18:	07030000 	streq	r0, [r3, -r0]
    5a1c:	00001d80 	andeq	r1, r0, r0, lsl #27
    5a20:	1b170704 	blne	5c7638 <_end+0x5c3630>
    5a24:	00050000 	andeq	r0, r5, r0
    5a28:	00223f02 	eoreq	r3, r2, r2, lsl #30
    5a2c:	cb8f0400 	blgt	fe3c6a34 <_end+0xfe3c2a2c>
    5a30:	06000002 	streq	r0, [r0], -r2
    5a34:	1e920404 	cdpne	4, 9, cr0, cr2, cr4, {0}
    5a38:	07000003 	streq	r0, [r0, -r3]
    5a3c:	00001936 	andeq	r1, r0, r6, lsr r9
    5a40:	20330700 	eorscs	r0, r3, r0, lsl #14
    5a44:	07010000 	streq	r0, [r1, -r0]
    5a48:	00002340 	andeq	r2, r0, r0, asr #6
    5a4c:	27020002 	strcs	r0, [r2, -r2]
    5a50:	0400001d 	streq	r0, [r0], #-29	; 0xffffffe3
    5a54:	00030397 	muleq	r3, r7, r3
    5a58:	040c0b00 	streq	r0, [ip], #-2816	; 0xfffff500
    5a5c:	0003629a 	muleq	r3, sl, r2
    5a60:	1d9e0900 	vldrne.16	s0, [lr]	; <UNPREDICTABLE>
    5a64:	9d040000 	stcls	0, cr0, [r4, #-0]
    5a68:	00000049 	andeq	r0, r0, r9, asr #32
    5a6c:	19810900 	stmibne	r1, {r8, fp}
    5a70:	9f040000 	svcls	0x00040000
    5a74:	00000362 	andeq	r0, r0, r2, ror #6
    5a78:	1c300904 			; <UNDEFINED> instruction: 0x1c300904
    5a7c:	a1040000 	mrsge	r0, (UNDEF: 4)
    5a80:	00000078 	andeq	r0, r0, r8, ror r0
    5a84:	19fc0908 	ldmibne	ip!, {r3, r8, fp}^
    5a88:	a3040000 	movwge	r0, #16384	; 0x4000
    5a8c:	00000078 	andeq	r0, r0, r8, ror r0
    5a90:	040f0009 	streq	r0, [pc], #-9	; 5a98 <_end+0x1a90>
    5a94:	00000049 	andeq	r0, r0, r9, asr #32
    5a98:	001f9f02 	andseq	r9, pc, r2, lsl #30
    5a9c:	29a50400 	stmibcs	r5!, {sl}
    5aa0:	02000003 	andeq	r0, r0, #3
    5aa4:	000023c7 	andeq	r2, r0, r7, asr #7
    5aa8:	037ea704 	cmneq	lr, #4, 14	; 0x100000
    5aac:	040f0000 	streq	r0, [pc], #-0	; 5ab4 <_end+0x1aac>
    5ab0:	00000384 	andeq	r0, r0, r4, lsl #7
    5ab4:	0000bd12 	andeq	fp, r0, r2, lsl sp
    5ab8:	00039d00 	andeq	r9, r3, r0, lsl #26
    5abc:	00f51100 	rscseq	r1, r5, r0, lsl #2
    5ac0:	8d110000 	ldchi	0, cr0, [r1, #-0]
    5ac4:	11000002 	tstne	r0, r2
    5ac8:	0000039d 	muleq	r0, sp, r3
    5acc:	6b040f00 	blvs	1096d4 <_end+0x1056cc>
    5ad0:	02000001 	andeq	r0, r0, #1
    5ad4:	00001d58 	andeq	r1, r0, r8, asr sp
    5ad8:	03aec604 			; <UNDEFINED> instruction: 0x03aec604
    5adc:	040f0000 	streq	r0, [pc], #-0	; 5ae4 <_end+0x1adc>
    5ae0:	000003b4 			; <UNDEFINED> instruction: 0x000003b4
    5ae4:	0000bd12 	andeq	fp, r0, r2, lsl sp
    5ae8:	0003dc00 	andeq	sp, r3, r0, lsl #24
    5aec:	00371100 	eorseq	r1, r7, r0, lsl #2
    5af0:	00110000 	andseq	r0, r1, r0
    5af4:	11000001 	tstne	r0, r1
    5af8:	000003dc 	ldrdeq	r0, [r0], -ip
    5afc:	00028d11 	andeq	r8, r2, r1, lsl sp
    5b00:	03e21100 	mvneq	r1, #0, 2
    5b04:	e8110000 	ldmda	r1, {}	; <UNPREDICTABLE>
    5b08:	00000003 	andeq	r0, r0, r3
    5b0c:	0276040f 	rsbseq	r0, r6, #251658240	; 0xf000000
    5b10:	040f0000 	streq	r0, [pc], #-0	; 5b18 <_end+0x1b10>
    5b14:	00000176 	andeq	r0, r0, r6, ror r1
    5b18:	86020413 			; <UNDEFINED> instruction: 0x86020413
    5b1c:	04000019 	streq	r0, [r0], #-25	; 0xffffffe7
    5b20:	0003f5ce 	andeq	pc, r3, lr, asr #11
    5b24:	fb040f00 	blx	10972e <_end+0x105726>
    5b28:	12000003 	andne	r0, r0, #3
    5b2c:	000000bd 	strheq	r0, [r0], -sp
    5b30:	0000040f 	andeq	r0, r0, pc, lsl #8
    5b34:	00039d11 	andeq	r9, r3, r1, lsl sp
    5b38:	03e81100 	mvneq	r1, #0, 2
    5b3c:	03000000 	movweq	r0, #0
    5b40:	20fa0504 	rscscs	r0, sl, r4, lsl #10
    5b44:	04030000 	streq	r0, [r3], #-0
    5b48:	00222d07 	eoreq	r2, r2, r7, lsl #26
    5b4c:	19b50800 	ldmibne	r5!, {fp}
    5b50:	01400000 	mrseq	r0, (UNDEF: 64)
    5b54:	00043424 	andeq	r3, r4, r4, lsr #8
    5b58:	00720c00 	rsbseq	r0, r2, r0, lsl #24
    5b5c:	04342601 	ldrteq	r2, [r4], #-1537	; 0xfffff9ff
    5b60:	00000000 	andeq	r0, r0, r0
    5b64:	0000490d 	andeq	r4, r0, sp, lsl #18
    5b68:	00044400 	andeq	r4, r4, r0, lsl #8
    5b6c:	01fb0e00 	mvnseq	r0, r0, lsl #28
    5b70:	000f0000 	andeq	r0, pc, r0
    5b74:	001fda08 	andseq	sp, pc, r8, lsl #20
    5b78:	2b018800 	blcs	67b80 <_end+0x63b78>
    5b7c:	00000467 	andeq	r0, r0, r7, ror #8
    5b80:	0100640c 	tsteq	r0, ip, lsl #8
    5b84:	0004672d 	andeq	r6, r4, sp, lsr #14
    5b88:	700c0000 	andvc	r0, ip, r0
    5b8c:	01006461 	tsteq	r0, r1, ror #8
    5b90:	0000492e 	andeq	r4, r0, lr, lsr #18
    5b94:	0d008000 	stceq	0, cr8, [r0, #-0]
    5b98:	00000054 	andeq	r0, r0, r4, asr r0
    5b9c:	00000477 	andeq	r0, r0, r7, ror r4
    5ba0:	0001fb0e 	andeq	pc, r1, lr, lsl #22
    5ba4:	08000f00 	stmdaeq	r0, {r8, r9, sl, fp}
    5ba8:	00001cd9 	ldrdeq	r1, [r0], -r9
    5bac:	8e310180 	rsfhid	f0, f1, f0
    5bb0:	0c000004 	stceq	0, cr0, [r0], {4}
    5bb4:	35010064 	strcc	r0, [r1, #-100]	; 0xffffff9c
    5bb8:	00000467 	andeq	r0, r0, r7, ror #8
    5bbc:	3b080000 	blcc	205bc4 <_end+0x201bbc>
    5bc0:	8000001c 	andhi	r0, r0, ip, lsl r0
    5bc4:	04a63801 	strteq	r3, [r6], #2049	; 0x801
    5bc8:	770c0000 	strvc	r0, [ip, -r0]
    5bcc:	3a010064 	bcc	45d64 <_end+0x41d5c>
    5bd0:	00000467 	andeq	r0, r0, r7, ror #8
    5bd4:	5e080000 	cdppl	0, 0, cr0, cr8, cr0, {0}
    5bd8:	10000022 	andne	r0, r0, r2, lsr #32
    5bdc:	04be3d01 	ldrteq	r3, [lr], #3329	; 0xd01
    5be0:	770c0000 	strvc	r0, [ip, -r0]
    5be4:	3f010063 	svccc	0x00010063
    5be8:	00000217 	andeq	r0, r0, r7, lsl r2
    5bec:	e0140000 	ands	r0, r4, r0
    5bf0:	1e4b0101 	dvfnee	f0, f3, f1
    5bf4:	09000005 	stmdbeq	r0, {r0, r2}
    5bf8:	00001de1 	andeq	r1, r0, r1, ror #27
    5bfc:	00494e01 	subeq	r4, r9, r1, lsl #28
    5c00:	09000000 	stmdbeq	r0, {}	; <UNPREDICTABLE>
    5c04:	00001c10 	andeq	r1, r0, r0, lsl ip
    5c08:	041d4f01 	ldreq	r4, [sp], #-3841	; 0xfffff0ff
    5c0c:	09040000 	stmdbeq	r4, {}	; <UNPREDICTABLE>
    5c10:	00001a16 	andeq	r1, r0, r6, lsl sl
    5c14:	00495001 	subeq	r5, r9, r1
    5c18:	0c440000 	mareq	acc0, r0, r4
    5c1c:	00706676 	rsbseq	r6, r0, r6, ror r6
    5c20:	04445101 	strbeq	r5, [r4], #-257	; 0xfffffeff
    5c24:	09480000 	stmdbeq	r8, {}^	; <UNPREDICTABLE>
    5c28:	00002382 	andeq	r2, r0, r2, lsl #7
    5c2c:	04775201 	ldrbteq	r5, [r7], #-513	; 0xfffffdff
    5c30:	15d00000 	ldrbne	r0, [r0]
    5c34:	00001ddb 	ldrdeq	r1, [r0], -fp
    5c38:	048e5301 	streq	r5, [lr], #769	; 0x301
    5c3c:	01500000 	cmpeq	r0, r0
    5c40:	001dd515 	andseq	sp, sp, r5, lsl r5
    5c44:	a6540100 	ldrbge	r0, [r4], -r0, lsl #2
    5c48:	d0000004 	andle	r0, r0, r4
    5c4c:	dc020001 	stcle	0, cr0, [r2], {1}
    5c50:	0100001b 	tsteq	r0, fp, lsl r0
    5c54:	0004be55 	andeq	fp, r4, r5, asr lr
    5c58:	01440b00 	cmpeq	r4, r0, lsl #22
    5c5c:	00054a61 	andeq	r4, r5, r1, ror #20
    5c60:	1de10900 			; <UNDEFINED> instruction: 0x1de10900
    5c64:	63010000 	movwvs	r0, #4096	; 0x1000
    5c68:	00000049 	andeq	r0, r0, r9, asr #32
    5c6c:	1c100900 			; <UNDEFINED> instruction: 0x1c100900
    5c70:	64010000 	strvs	r0, [r1], #-0
    5c74:	0000041d 	andeq	r0, r0, sp, lsl r4
    5c78:	a7020004 	strge	r0, [r2, -r4]
    5c7c:	01000023 	tsteq	r0, r3, lsr #32
    5c80:	00052965 	andeq	r2, r5, r5, ror #18
    5c84:	06010300 	streq	r0, [r1], -r0, lsl #6
    5c88:	00000446 	andeq	r0, r0, r6, asr #8
    5c8c:	bd050203 	sfmlt	f0, 4, [r5, #-12]
    5c90:	03000020 	movweq	r0, #32
    5c94:	06a90508 	strteq	r0, [r9], r8, lsl #10
    5c98:	040f0000 	streq	r0, [pc], #-0	; 5ca0 <_end+0x1c98>
    5c9c:	00000570 	andeq	r0, r0, r0, ror r5
    5ca0:	e8040f16 	stmda	r4, {r1, r2, r4, r8, r9, sl, fp}
    5ca4:	02000003 	andeq	r0, r0, #3
    5ca8:	00001f63 	andeq	r1, r0, r3, ror #30
    5cac:	00832702 	addeq	r2, r3, r2, lsl #14
    5cb0:	0a020000 	beq	85cb8 <_end+0x81cb0>
    5cb4:	02000021 	andeq	r0, r0, #33	; 0x21
    5cb8:	00058d29 	andeq	r8, r5, r9, lsr #26
    5cbc:	1d680a00 	vstmdbne	r8!, {s1-s0}
    5cc0:	04170000 	ldreq	r0, [r7], #-0
    5cc4:	0400001e 	streq	r0, [r0], #-30	; 0xffffffe2
    5cc8:	05b12a02 	ldreq	r2, [r1, #2562]!	; 0xa02
    5ccc:	28070000 	stmdacs	r7, {}	; <UNPREDICTABLE>
    5cd0:	00000020 	andeq	r0, r0, r0, lsr #32
    5cd4:	00194f07 	andseq	r4, r9, r7, lsl #30
    5cd8:	93070100 	movwls	r0, #28928	; 0x7100
    5cdc:	02000020 	andeq	r0, r0, #32
    5ce0:	02040b00 	andeq	r0, r4, #0, 22
    5ce4:	0005d244 	andeq	sp, r5, r4, asr #4
    5ce8:	21030900 	tstcs	r3, r0, lsl #18
    5cec:	46020000 	strmi	r0, [r2], -r0
    5cf0:	00000066 	andeq	r0, r0, r6, rrx
    5cf4:	1bbe0900 	blne	fef880fc <_end+0xfef840f4>
    5cf8:	47020000 	strmi	r0, [r2, -r0]
    5cfc:	00000066 	andeq	r0, r0, r6, rrx
    5d00:	f7020002 			; <UNDEFINED> instruction: 0xf7020002
    5d04:	02000018 	andeq	r0, r0, #24
    5d08:	0005b148 	andeq	fp, r5, r8, asr #2
    5d0c:	02080b00 	andeq	r0, r8, #0, 22
    5d10:	0005fe4a 	andeq	pc, r5, sl, asr #28
    5d14:	21030900 	tstcs	r3, r0, lsl #18
    5d18:	4c020000 	stcmi	0, cr0, [r2], {-0}
    5d1c:	00000049 	andeq	r0, r0, r9, asr #32
    5d20:	1bbe0900 	blne	fef88128 <_end+0xfef84120>
    5d24:	4d020000 	stcmi	0, cr0, [r2, #-0]
    5d28:	00000049 	andeq	r0, r0, r9, asr #32
    5d2c:	ad020004 	stcge	0, cr0, [r2, #-16]
    5d30:	0200001a 	andeq	r0, r0, #26
    5d34:	0005dd4e 	andeq	sp, r5, lr, asr #26
    5d38:	1e300800 	cdpne	8, 3, cr0, cr0, cr0, {0}
    5d3c:	02080000 	andeq	r0, r8, #0
    5d40:	00062e52 	andeq	r2, r6, r2, asr lr
    5d44:	21520900 	cmpcs	r2, r0, lsl #18
    5d48:	54020000 	strpl	r0, [r2], #-0
    5d4c:	00000049 	andeq	r0, r0, r9, asr #32
    5d50:	234e0900 	movtcs	r0, #59648	; 0xe900
    5d54:	55020000 	strpl	r0, [r2, #-0]
    5d58:	00000049 	andeq	r0, r0, r9, asr #32
    5d5c:	30020004 	andcc	r0, r2, r4
    5d60:	0200001e 	andeq	r0, r0, #30
    5d64:	00060956 	andeq	r0, r6, r6, asr r9
    5d68:	18c51800 	stmiane	r5, {fp, ip}^
    5d6c:	29030000 	stmdbcs	r3, {}	; <UNPREDICTABLE>
    5d70:	00000025 	andeq	r0, r0, r5, lsr #32
    5d74:	00066b02 	andeq	r6, r6, r2, lsl #22
    5d78:	1b9c1900 	blne	fe70c180 <_end+0xfe708178>
    5d7c:	29030000 	stmdbcs	r3, {}	; <UNPREDICTABLE>
    5d80:	00000025 	andeq	r0, r0, r5, lsr #32
    5d84:	7274701a 	rsbsvc	r7, r4, #26
    5d88:	252a0300 	strcs	r0, [sl, #-768]!	; 0xfffffd00
    5d8c:	1b000000 	blne	5d94 <_end+0x1d8c>
    5d90:	00706d74 	rsbseq	r6, r0, r4, ror sp
    5d94:	00252c03 	eoreq	r2, r5, r3, lsl #24
    5d98:	18000000 	stmdane	r0, {}	; <UNPREDICTABLE>
    5d9c:	000024b5 			; <UNDEFINED> instruction: 0x000024b5
    5da0:	00bd4403 	adcseq	r4, sp, r3, lsl #8
    5da4:	9d020000 	stcls	0, cr0, [r2, #-0]
    5da8:	19000006 	stmdbne	r0, {r1, r2}
    5dac:	00001e68 	andeq	r1, r0, r8, ror #28
    5db0:	039d4403 	orrseq	r4, sp, #50331648	; 0x3000000
    5db4:	9e190000 	cdpls	0, 1, cr0, cr9, cr0, {0}
    5db8:	0300001d 	movweq	r0, #29
    5dbc:	00004945 	andeq	r4, r0, r5, asr #18
    5dc0:	20121900 	andscs	r1, r2, r0, lsl #18
    5dc4:	46030000 	strmi	r0, [r3], -r0
    5dc8:	00000037 	andeq	r0, r0, r7, lsr r0
    5dcc:	249c1c00 	ldrcs	r1, [ip], #3072	; 0xc00
    5dd0:	c6010000 	strgt	r0, [r1], -r0
    5dd4:	00004901 	andeq	r4, r0, r1, lsl #18
    5dd8:	0014dc00 	andseq	sp, r4, r0, lsl #24
    5ddc:	00001200 	andeq	r1, r0, r0, lsl #4
    5de0:	d49c0100 	ldrle	r0, [ip], #256	; 0x100
    5de4:	1d000006 	stcne	0, cr0, [r0, #-24]	; 0xffffffe8
    5de8:	c6010070 			; <UNDEFINED> instruction: 0xc6010070
    5dec:	0006d401 	andeq	sp, r6, r1, lsl #8
    5df0:	00000000 	andeq	r0, r0, r0
    5df4:	1bbe1e00 	blne	fef8d5fc <_end+0xfef895f4>
    5df8:	c8010000 	stmdagt	r1, {}	; <UNPREDICTABLE>
    5dfc:	00004901 	andeq	r4, r0, r1, lsl #18
    5e00:	00530100 	subseq	r0, r3, r0, lsl #2
    5e04:	06da040f 	ldrbeq	r0, [sl], pc, lsl #8
    5e08:	491f0000 	ldmdbmi	pc, {}	; <UNPREDICTABLE>
    5e0c:	20000000 	andcs	r0, r0, r0
    5e10:	00001b06 	andeq	r1, r0, r6, lsl #22
    5e14:	07989d02 	ldreq	r9, [r8, r2, lsl #26]
    5e18:	14ee0000 	strbtne	r0, [lr], #0
    5e1c:	00680000 	rsbeq	r0, r8, r0
    5e20:	9c010000 	stcls	0, cr0, [r1], {-0}
    5e24:	00000798 	muleq	r0, r8, r7
    5e28:	001d8d21 	andseq	r8, sp, r1, lsr #26
    5e2c:	989d0200 	ldmls	sp, {r9}
    5e30:	21000007 	tstcs	r0, r7
    5e34:	21000000 	mrscs	r0, (UNDEF: 0)
    5e38:	00002465 	andeq	r2, r0, r5, ror #8
    5e3c:	00379d02 	eorseq	r9, r7, r2, lsl #26
    5e40:	00550000 	subseq	r0, r5, r0
    5e44:	40210000 	eormi	r0, r1, r0
    5e48:	02000019 	andeq	r0, r0, #25
    5e4c:	0000499d 	muleq	r0, sp, r9
    5e50:	00009b00 	andeq	r9, r0, r0, lsl #22
    5e54:	1e422200 	cdpne	2, 4, cr2, cr2, cr0, {0}
    5e58:	9f020000 	svcls	0x00020000
    5e5c:	00000049 	andeq	r0, r0, r9, asr #32
    5e60:	000000cf 	andeq	r0, r0, pc, asr #1
    5e64:	001c6222 	andseq	r6, ip, r2, lsr #4
    5e68:	49a00200 	stmibmi	r0!, {r9}
    5e6c:	09000000 	stmdbeq	r0, {}	; <UNPREDICTABLE>
    5e70:	23000001 	movwcs	r0, #1
    5e74:	a102006e 	tstge	r2, lr, rrx
    5e78:	00000037 	andeq	r0, r0, r7, lsr r0
    5e7c:	0000013e 	andeq	r0, r0, lr, lsr r1
    5e80:	00216222 	eoreq	r6, r1, r2, lsr #4
    5e84:	37a10200 	strcc	r0, [r1, r0, lsl #4]!
    5e88:	5c000000 	stcpl	0, cr0, [r0], {-0}
    5e8c:	22000001 	andcs	r0, r0, #1
    5e90:	00001e3c 	andeq	r1, r0, ip, lsr lr
    5e94:	0037a102 	eorseq	sl, r7, r2, lsl #2
    5e98:	01860000 	orreq	r0, r6, r0
    5e9c:	16240000 	strtne	r0, [r4], -r0
    5ea0:	9d000015 	stcls	0, cr0, [r0, #-84]	; 0xffffffac
    5ea4:	82000006 	andhi	r0, r0, #6
    5ea8:	25000007 	strcs	r0, [r0, #-7]
    5eac:	75025001 	strvc	r5, [r2, #-1]
    5eb0:	26260000 	strtcs	r0, [r6], -r0
    5eb4:	9d000015 	stcls	0, cr0, [r0, #-84]	; 0xffffffac
    5eb8:	25000006 	strcs	r0, [r0, #-6]
    5ebc:	78075001 	stmdavc	r7, {r0, ip, lr}
    5ec0:	22007600 	andcs	r7, r0, #0, 12
    5ec4:	00000823 	andeq	r0, r0, r3, lsr #16
    5ec8:	079e040f 	ldreq	r0, [lr, pc, lsl #8]
    5ecc:	2e1f0000 	cdpcs	0, 1, cr0, cr15, cr0, {0}
    5ed0:	1c000006 	stcne	0, cr0, [r0], {6}
    5ed4:	000019d7 	ldrdeq	r1, [r0], -r7
    5ed8:	4901d501 	stmdbmi	r1, {r0, r8, sl, ip, lr, pc}
    5edc:	56000000 	strpl	r0, [r0], -r0
    5ee0:	32000015 	andcc	r0, r0, #21
    5ee4:	01000000 	mrseq	r0, (UNDEF: 0)
    5ee8:	0007ce9c 	muleq	r7, ip, lr
    5eec:	64691d00 	strbtvs	r1, [r9], #-3328	; 0xfffff300
    5ef0:	d5010078 	strle	r0, [r1, #-120]	; 0xffffff88
    5ef4:	00003701 	andeq	r3, r0, r1, lsl #14
    5ef8:	0001af00 	andeq	sl, r1, r0, lsl #30
    5efc:	6a200000 	bvs	805f04 <_end+0x801efc>
    5f00:	0200001c 	andeq	r0, r0, #28
    5f04:	0000bdc4 	andeq	fp, r0, r4, asr #27
    5f08:	00158800 	andseq	r8, r5, r0, lsl #16
    5f0c:	0000a000 	andeq	sl, r0, r0
    5f10:	9a9c0100 	bls	fe706318 <_end+0xfe702310>
    5f14:	21000008 	tstcs	r0, r8
    5f18:	00002207 	andeq	r2, r0, r7, lsl #4
    5f1c:	028dc402 	addeq	ip, sp, #33554432	; 0x2000000
    5f20:	021b0000 	andseq	r0, fp, #0
    5f24:	40210000 	eormi	r0, r1, r0
    5f28:	02000019 	andeq	r0, r0, #25
    5f2c:	000049c4 	andeq	r4, r0, r4, asr #19
    5f30:	00025d00 	andeq	r5, r2, r0, lsl #26
    5f34:	1b7e2200 	blne	1f8e73c <_end+0x1f8a734>
    5f38:	c6020000 	strgt	r0, [r2], -r0
    5f3c:	00000798 	muleq	r0, r8, r7
    5f40:	000002a6 	andeq	r0, r0, r6, lsr #5
    5f44:	00246527 	eoreq	r6, r4, r7, lsr #10
    5f48:	37c70200 	strbcc	r0, [r7, r0, lsl #4]
    5f4c:	02000000 	andeq	r0, r0, #0
    5f50:	58286c91 	stmdapl	r8!, {r0, r4, r7, sl, fp, sp, lr}
    5f54:	45000000 	strmi	r0, [r0, #-0]
    5f58:	29000008 	stmdbcs	r0, {r3}
    5f5c:	00786469 	rsbseq	r6, r8, r9, ror #8
    5f60:	49010502 	stmdbmi	r1, {r1, r8, sl}
    5f64:	da000000 	ble	5f6c <_end+0x1f64>
    5f68:	2a000002 	bcs	5f78 <_end+0x1f70>
    5f6c:	00001604 	andeq	r1, r0, r4, lsl #12
    5f70:	000007a3 	andeq	r0, r0, r3, lsr #15
    5f74:	159e2400 	ldrne	r2, [lr, #1024]	; 0x400
    5f78:	19d90000 	ldmibne	r9, {}^	; <UNPREDICTABLE>
    5f7c:	085f0000 	ldmdaeq	pc, {}^	; <UNPREDICTABLE>
    5f80:	01250000 			; <UNDEFINED> instruction: 0x01250000
    5f84:	6c910251 	lfmvs	f0, 4, [r1], {81}	; 0x51
    5f88:	02500125 	subseq	r0, r0, #1073741833	; 0x40000009
    5f8c:	24000075 	strcs	r0, [r0], #-117	; 0xffffff8b
    5f90:	000015c2 	andeq	r1, r0, r2, asr #11
    5f94:	000006df 	ldrdeq	r0, [r0], -pc	; <UNPREDICTABLE>
    5f98:	00000873 	andeq	r0, r0, r3, ror r8
    5f9c:	02520125 	subseq	r0, r2, #1073741833	; 0x40000009
    5fa0:	24000075 	strcs	r0, [r0], #-117	; 0xffffff8b
    5fa4:	000015cc 	andeq	r1, r0, ip, asr #11
    5fa8:	0000069d 	muleq	r0, sp, r6
    5fac:	00000887 	andeq	r0, r0, r7, lsl #17
    5fb0:	02500125 	subseq	r0, r0, #1073741833	; 0x40000009
    5fb4:	2a000075 	bcs	6190 <_end+0x2188>
    5fb8:	000015ee 	andeq	r1, r0, lr, ror #11
    5fbc:	0000069d 	muleq	r0, sp, r6
    5fc0:	0016142a 	andseq	r1, r6, sl, lsr #8
    5fc4:	00069d00 	andeq	r9, r6, r0, lsl #26
    5fc8:	682b0000 	stmdavs	fp!, {}	; <UNPREDICTABLE>
    5fcc:	0100001f 	tsteq	r0, pc, lsl r0
    5fd0:	0016287c 	andseq	r2, r6, ip, ror r8
    5fd4:	00004e00 	andeq	r4, r0, r0, lsl #28
    5fd8:	1b9c0100 	blne	fe7063e0 <_end+0xfe7023d8>
    5fdc:	2c000009 	stccs	0, cr0, [r0], {9}
    5fe0:	00737276 	rsbseq	r7, r3, r6, ror r2
    5fe4:	091b7c01 	ldmdbeq	fp, {r0, sl, fp, ip, sp, lr}
    5fe8:	02f30000 	rscseq	r0, r3, #0
    5fec:	40240000 	eormi	r0, r4, r0
    5ff0:	f9000016 			; <UNDEFINED> instruction: 0xf9000016
    5ff4:	d3000019 	movwle	r0, #25
    5ff8:	25000008 	strcs	r0, [r0, #-8]
    5ffc:	74035001 	strvc	r5, [r3], #-1
    6000:	2a0000c8 	bcs	6328 <_end+0x2320>
    6004:	00001646 	andeq	r1, r0, r6, asr #12
    6008:	00001a10 	andeq	r1, r0, r0, lsl sl
    600c:	00165424 	andseq	r5, r6, r4, lsr #8
    6010:	001a2100 	andseq	r2, sl, r0, lsl #2
    6014:	0008f100 	andeq	pc, r8, r0, lsl #2
    6018:	50012500 	andpl	r2, r1, r0, lsl #10
    601c:	01d07403 	bicseq	r7, r0, r3, lsl #8
    6020:	16622400 	strbtne	r2, [r2], -r0, lsl #8
    6024:	1a380000 	bne	e0602c <_end+0xe02024>
    6028:	09060000 	stmdbeq	r6, {}	; <UNPREDICTABLE>
    602c:	01250000 			; <UNDEFINED> instruction: 0x01250000
    6030:	d0740350 	rsbsle	r0, r4, r0, asr r3
    6034:	742d0002 	strtvc	r0, [sp], #-2
    6038:	4f000016 	svcmi	0x00000016
    603c:	2500001a 	strcs	r0, [r0, #-26]	; 0xffffffe6
    6040:	f3065001 	vhadd.u8	d5, d6, d1
    6044:	d0235001 	eorle	r5, r3, r1
    6048:	0f000003 	svceq	0x00000003
    604c:	00051e04 	andeq	r1, r5, r4, lsl #28
    6050:	06392e00 	ldrteq	r2, [r9], -r0, lsl #28
    6054:	16760000 	ldrbtne	r0, [r6], -r0
    6058:	000c0000 	andeq	r0, ip, r0
    605c:	9c010000 	stcls	0, cr0, [r1], {-0}
    6060:	00000953 	andeq	r0, r0, r3, asr r9
    6064:	0006542f 	andeq	r5, r6, pc, lsr #8
    6068:	00033800 	andeq	r3, r3, r0, lsl #16
    606c:	06493000 	strbeq	r3, [r9], -r0
    6070:	fa060000 	blx	186078 <_end+0x182070>
    6074:	00000649 	andeq	r0, r0, r9, asr #12
    6078:	065f319f 			; <UNDEFINED> instruction: 0x065f319f
    607c:	03720000 	cmneq	r2, #0
    6080:	2e000000 	cdpcs	0, 0, cr0, cr0, cr0, {0}
    6084:	0000066b 	andeq	r0, r0, fp, ror #12
    6088:	00001682 	andeq	r1, r0, r2, lsl #13
    608c:	00000004 	andeq	r0, r0, r4
    6090:	098b9c01 	stmibeq	fp, {r0, sl, fp, ip, pc}
    6094:	91300000 	teqls	r0, r0
    6098:	06000006 	streq	r0, [r0], -r6
    609c:	000691fa 	strdeq	r9, [r6], -sl
    60a0:	86309f00 	ldrthi	r9, [r0], -r0, lsl #30
    60a4:	06000006 	streq	r0, [r0], -r6
    60a8:	000686fa 	strdeq	r8, [r6], -sl
    60ac:	7b309f00 	blvc	c2dcb4 <_end+0xc29cac>
    60b0:	06000006 	streq	r0, [r0], -r6
    60b4:	00067bfa 	strdeq	r7, [r6], -sl
    60b8:	2b009f00 	blcs	2dcc0 <_end+0x29cb8>
    60bc:	00001fc8 	andeq	r1, r0, r8, asr #31
    60c0:	16867c02 	strne	r7, [r6], r2, lsl #24
    60c4:	00020000 	andeq	r0, r2, r0
    60c8:	9c010000 	stcls	0, cr0, [r1], {-0}
    60cc:	000009bb 			; <UNDEFINED> instruction: 0x000009bb
    60d0:	61666332 	cmnvs	r6, r2, lsr r3
    60d4:	e87c0200 	ldmda	ip!, {r9}^
    60d8:	01000003 	tsteq	r0, r3
    60dc:	19cf3350 	stmibne	pc, {r4, r6, r8, r9, ip, sp}^	; <UNPREDICTABLE>
    60e0:	7d020000 	stcvc	0, cr0, [r2, #-0]
    60e4:	000003e8 	andeq	r0, r0, r8, ror #7
    60e8:	34005101 	strcc	r5, [r0], #-257	; 0xfffffeff
    60ec:	00002144 	andeq	r2, r0, r4, asr #2
    60f0:	88011902 	stmdahi	r1, {r1, r8, fp, ip}
    60f4:	3a000016 	bcc	6154 <_end+0x214c>
    60f8:	01000000 	mrseq	r0, (UNDEF: 0)
    60fc:	000a789c 	muleq	sl, ip, r8
    6100:	22073500 	andcs	r3, r7, #0, 10
    6104:	19020000 	stmdbne	r2, {}	; <UNPREDICTABLE>
    6108:	00028d01 	andeq	r8, r2, r1, lsl #26
    610c:	0003a000 	andeq	sl, r3, r0
    6110:	72761d00 	rsbsvc	r1, r6, #0, 26
    6114:	19020073 	stmdbne	r2, {r0, r1, r4, r5, r6}
    6118:	000a7801 	andeq	r7, sl, r1, lsl #16
    611c:	0003be00 	andeq	fp, r3, r0, lsl #28
    6120:	1be73600 	blne	ff9d3928 <_end+0xff9cf920>
    6124:	1b020000 	blne	8612c <_end+0x82124>
    6128:	0000bd01 	andeq	fp, r0, r1, lsl #26
    612c:	0003dc00 	andeq	sp, r3, r0, lsl #24
    6130:	16b43700 	ldrtne	r3, [r4], r0, lsl #14
    6134:	000e0000 	andeq	r0, lr, r0
    6138:	0a430000 	beq	10c6140 <_end+0x10c2138>
    613c:	cf360000 	svcgt	0x00360000
    6140:	02000019 	andeq	r0, r0, #25
    6144:	03e8012e 	mvneq	r0, #-2147483637	; 0x8000000b
    6148:	03ef0000 	mvneq	r0, #0
    614c:	bc240000 	stclt	0, cr0, [r4], #-0
    6150:	8b000016 	blhi	61b0 <_end+0x21a8>
    6154:	32000009 	andcc	r0, r0, #9
    6158:	2500000a 	strcs	r0, [r0, #-10]
    615c:	76025001 	strvc	r5, [r2], -r1
    6160:	c2260000 	eorgt	r0, r6, #0
    6164:	66000016 			; <UNDEFINED> instruction: 0x66000016
    6168:	2500001a 	strcs	r0, [r0, #-26]	; 0xffffffe6
    616c:	74025001 	strvc	r5, [r2], #-1
    6170:	24000004 	strcs	r0, [r0], #-4
    6174:	00001696 	muleq	r0, r6, r6
    6178:	000007ce 	andeq	r0, r0, lr, asr #15
    617c:	00000a57 	andeq	r0, r0, r7, asr sl
    6180:	02500125 	subseq	r0, r0, #1073741833	; 0x40000009
    6184:	2a000075 	bcs	6360 <_end+0x2358>
    6188:	0000169e 	muleq	r0, lr, r6
    618c:	00001a7d 	andeq	r1, r0, sp, ror sl
    6190:	0016ac38 	andseq	sl, r6, r8, lsr ip
    6194:	52012500 	andpl	r2, r1, #0, 10
    6198:	25007402 	strcs	r7, [r0, #-1026]	; 0xfffffbfe
    619c:	75025101 	strvc	r5, [r2, #-257]	; 0xfffffeff
    61a0:	50012500 	andpl	r2, r1, r0, lsl #10
    61a4:	00003101 	andeq	r3, r0, r1, lsl #2
    61a8:	054a040f 	strbeq	r0, [sl, #-1039]	; 0xfffffbf1
    61ac:	e31c0000 	tst	ip, #0
    61b0:	0200001f 	andeq	r0, r0, #31
    61b4:	00bd0134 	adcseq	r0, sp, r4, lsr r1
    61b8:	16c20000 	strbne	r0, [r2], r0
    61bc:	00be0000 	adcseq	r0, lr, r0
    61c0:	9c010000 	stcls	0, cr0, [r1], {-0}
    61c4:	00000c2b 	andeq	r0, r0, fp, lsr #24
    61c8:	00220735 	eoreq	r0, r2, r5, lsr r7
    61cc:	01340200 	teqeq	r4, r0, lsl #4
    61d0:	0000028d 	andeq	r0, r0, sp, lsl #5
    61d4:	00000404 	andeq	r0, r0, r4, lsl #8
    61d8:	00205e35 	eoreq	r5, r0, r5, lsr lr
    61dc:	01340200 	teqeq	r4, r0, lsl #4
    61e0:	00000a78 	andeq	r0, r0, r8, ror sl
    61e4:	00000422 	andeq	r0, r0, r2, lsr #8
    61e8:	00226935 	eoreq	r6, r2, r5, lsr r9
    61ec:	01350200 	teqeq	r5, r0, lsl #4
    61f0:	00000037 	andeq	r0, r0, r7, lsr r0
    61f4:	0000046a 	andeq	r0, r0, sl, ror #8
    61f8:	001b5b1e 	andseq	r5, fp, lr, lsl fp
    61fc:	01370200 	teqeq	r7, r0, lsl #4
    6200:	000003a3 	andeq	r0, r0, r3, lsr #7
    6204:	f01e5801 			; <UNDEFINED> instruction: 0xf01e5801
    6208:	02000023 	andeq	r0, r0, #35	; 0x23
    620c:	03e80138 	mvneq	r0, #56, 2
    6210:	59010000 	stmdbpl	r1, {}	; <UNPREDICTABLE>
    6214:	001be736 	andseq	lr, fp, r6, lsr r7
    6218:	01390200 	teqeq	r9, r0, lsl #4
    621c:	000000bd 	strheq	r0, [r0], -sp
    6220:	00000494 	muleq	r0, r4, r4
    6224:	0018ed1e 	andseq	lr, r8, lr, lsl sp
    6228:	013c0200 	teqeq	ip, r0, lsl #4
    622c:	0000051e 	andeq	r0, r0, lr, lsl r5
    6230:	78989103 	ldmvc	r8, {r0, r1, r8, ip, pc}
    6234:	00199c1e 	andseq	r9, r9, lr, lsl ip
    6238:	013c0200 	teqeq	ip, r0, lsl #4
    623c:	0000051e 	andeq	r0, r0, lr, lsl r5
    6240:	7bf89103 	blvc	ffe2a654 <_end+0xffe2664c>
    6244:	00007828 	andeq	r7, r0, r8, lsr #16
    6248:	000beb00 	andeq	lr, fp, r0, lsl #22
    624c:	215b3600 	cmpcs	fp, r0, lsl #12
    6250:	47020000 	strmi	r0, [r2, -r0]
    6254:	0000f501 	andeq	pc, r0, r1, lsl #10
    6258:	0004c900 	andeq	ip, r4, r0, lsl #18
    625c:	1d933600 	ldcne	6, cr3, [r3]
    6260:	48020000 	stmdami	r2, {}	; <UNPREDICTABLE>
    6264:	0000bd01 	andeq	fp, r0, r1, lsl #26
    6268:	0004e700 	andeq	lr, r4, r0, lsl #14
    626c:	1ff83600 	svcne	0x00f83600
    6270:	49020000 	stmdbmi	r2, {}	; <UNPREDICTABLE>
    6274:	0000bd01 	andeq	fp, r0, r1, lsl #26
    6278:	00051b00 	andeq	r1, r5, r0, lsl #22
    627c:	17002400 	strne	r2, [r0, -r0, lsl #8]
    6280:	07ce0000 	strbeq	r0, [lr, r0]
    6284:	0b610000 	bleq	184628c <_end+0x1842284>
    6288:	01250000 			; <UNDEFINED> instruction: 0x01250000
    628c:	00770250 	rsbseq	r0, r7, r0, asr r2
    6290:	17222400 	strne	r2, [r2, -r0, lsl #8]!
    6294:	1a840000 	bne	fe10629c <_end+0xfe102294>
    6298:	0b820000 	bleq	fe0862a0 <_end+0xfe082298>
    629c:	01250000 			; <UNDEFINED> instruction: 0x01250000
    62a0:	e00a0352 	and	r0, sl, r2, asr r3
    62a4:	51012501 	tstpl	r1, r1, lsl #10
    62a8:	25007602 	strcs	r7, [r0, #-1538]	; 0xfffff9fe
    62ac:	7b025001 	blvc	9a2b8 <_end+0x962b0>
    62b0:	2c390000 	ldccs	0, cr0, [r9], #-0
    62b4:	9e000017 	mcrls	0, 0, r0, cr0, cr7, {0}
    62b8:	2500000b 	strcs	r0, [r0, #-11]
    62bc:	7b025201 	blvc	9aac8 <_end+0x96ac0>
    62c0:	51012500 	tstpl	r1, r0, lsl #10
    62c4:	25007702 	strcs	r7, [r0, #-1794]	; 0xfffff8fe
    62c8:	7a025001 	bvc	9a2d4 <_end+0x962cc>
    62cc:	4a390000 	bmi	e462d4 <_end+0xe422cc>
    62d0:	cd000017 	stcgt	0, cr0, [r0, #-92]	; 0xffffffa4
    62d4:	2500000b 	strcs	r0, [r0, #-11]
    62d8:	77025301 	strvc	r5, [r2, -r1, lsl #6]
    62dc:	52012500 	andpl	r2, r1, #0, 10
    62e0:	25007702 	strcs	r7, [r0, #-1794]	; 0xfffff8fe
    62e4:	7a025101 	bvc	9a6f0 <_end+0x966e8>
    62e8:	50012500 	andpl	r2, r1, r0, lsl #10
    62ec:	02253101 	eoreq	r3, r5, #1073741824	; 0x40000000
    62f0:	7902047d 	stmdbvc	r2, {r0, r2, r3, r4, r5, r6, sl}
    62f4:	7d022500 	cfstr32vc	mvfx2, [r2, #-0]
    62f8:	00760200 	rsbseq	r0, r6, r0, lsl #4
    62fc:	175c2600 	ldrbne	r2, [ip, -r0, lsl #12]
    6300:	1a840000 	bne	fe106308 <_end+0xfe102300>
    6304:	01250000 			; <UNDEFINED> instruction: 0x01250000
    6308:	e00a0352 	and	r0, sl, r2, asr r3
    630c:	51012501 	tstpl	r1, r1, lsl #10
    6310:	25007b02 	strcs	r7, [r0, #-2818]	; 0xfffff4fe
    6314:	76025001 	strvc	r5, [r2], -r1
    6318:	3a000000 	bcc	6320 <_end+0x2318>
    631c:	00001764 	andeq	r1, r0, r4, ror #14
    6320:	0000000e 	andeq	r0, r0, lr
    6324:	0019cf36 	andseq	ip, r9, r6, lsr pc
    6328:	01830200 	orreq	r0, r3, r0, lsl #4
    632c:	000003e8 	andeq	r0, r0, r8, ror #7
    6330:	00000539 	andeq	r0, r0, r9, lsr r5
    6334:	00176c24 	andseq	r6, r7, r4, lsr #24
    6338:	00098b00 	andeq	r8, r9, r0, lsl #22
    633c:	000c1800 	andeq	r1, ip, r0, lsl #16
    6340:	50012500 	andpl	r2, r1, r0, lsl #10
    6344:	00007402 	andeq	r7, r0, r2, lsl #8
    6348:	00177226 	andseq	r7, r7, r6, lsr #4
    634c:	001a6600 	andseq	r6, sl, r0, lsl #12
    6350:	50012500 	andpl	r2, r1, r0, lsl #10
    6354:	789c9103 	ldmvc	ip, {r0, r1, r8, ip, pc}
    6358:	3b000000 	blcc	6360 <_end+0x2358>
    635c:	00001cb3 			; <UNDEFINED> instruction: 0x00001cb3
    6360:	0025d204 	eoreq	sp, r5, r4, lsl #4
    6364:	17800000 	strne	r0, [r0, r0]
    6368:	00040000 	andeq	r0, r4, r0
    636c:	9c010000 	stcls	0, cr0, [r1], {-0}
    6370:	00000c55 	andeq	r0, r0, r5, asr ip
    6374:	001e6835 	andseq	r6, lr, r5, lsr r8
    6378:	018e0200 	orreq	r0, lr, r0, lsl #4
    637c:	0000039d 	muleq	r0, sp, r3
    6380:	0000054e 	andeq	r0, r0, lr, asr #10
    6384:	1b3f3c00 	blne	fd538c <_end+0xfd1384>
    6388:	9a020000 	bls	86390 <_end+0x82388>
    638c:	0000bd01 	andeq	fp, r0, r1, lsl #26
    6390:	00178400 	andseq	r8, r7, r0, lsl #8
    6394:	00006200 	andeq	r6, r0, r0, lsl #4
    6398:	049c0100 	ldreq	r0, [ip], #256	; 0x100
    639c:	3500000d 	strcc	r0, [r0, #-13]
    63a0:	00002207 	andeq	r2, r0, r7, lsl #4
    63a4:	8d019a02 	vstrhi	s18, [r1, #-8]
    63a8:	6f000002 	svcvs	0x00000002
    63ac:	35000005 	strcc	r0, [r0, #-5]
    63b0:	0000205e 	andeq	r2, r0, lr, asr r0
    63b4:	78019b02 	stmdavc	r1, {r1, r8, r9, fp, ip, pc}
    63b8:	8d00000a 	stchi	0, cr0, [r0, #-40]	; 0xffffffd8
    63bc:	1e000005 	cdpne	0, 0, cr0, cr0, cr5, {0}
    63c0:	000018ed 	andeq	r1, r0, sp, ror #17
    63c4:	1e019d02 	cdpne	13, 0, cr9, cr1, cr2, {0}
    63c8:	03000005 	movweq	r0, #5
    63cc:	367c8891 			; <UNDEFINED> instruction: 0x367c8891
    63d0:	00001be7 	andeq	r1, r0, r7, ror #23
    63d4:	bd019e02 	stclt	14, cr9, [r1, #-8]
    63d8:	ab000000 	blge	63e0 <_end+0x23d8>
    63dc:	24000005 	strcs	r0, [r0], #-5
    63e0:	000017bc 			; <UNDEFINED> instruction: 0x000017bc
    63e4:	000007ce 	andeq	r0, r0, lr, asr #15
    63e8:	00000cc3 	andeq	r0, r0, r3, asr #25
    63ec:	02500125 	subseq	r0, r0, #1073741833	; 0x40000009
    63f0:	39000077 	stmdbcc	r0, {r0, r1, r2, r4, r5, r6}
    63f4:	000017c6 	andeq	r1, r0, r6, asr #15
    63f8:	00000cd9 	ldrdeq	r0, [r0], -r9
    63fc:	02520125 	subseq	r0, r2, #1073741833	; 0x40000009
    6400:	01250078 			; <UNDEFINED> instruction: 0x01250078
    6404:	00770251 	rsbseq	r0, r7, r1, asr r2
    6408:	17d22400 	ldrbne	r2, [r2, r0, lsl #8]
    640c:	089a0000 	ldmeq	sl, {}	; <UNPREDICTABLE>
    6410:	0ced0000 	stcleq	0, cr0, [sp]
    6414:	01250000 			; <UNDEFINED> instruction: 0x01250000
    6418:	00780250 	rsbseq	r0, r8, r0, asr r2
    641c:	17de2600 	ldrbne	r2, [lr, r0, lsl #12]
    6420:	09bb0000 	ldmibeq	fp!, {}	; <UNPREDICTABLE>
    6424:	01250000 			; <UNDEFINED> instruction: 0x01250000
    6428:	00760251 	rsbseq	r0, r6, r1, asr r2
    642c:	02500125 	subseq	r0, r0, #1073741833	; 0x40000009
    6430:	00000077 	andeq	r0, r0, r7, ror r0
    6434:	001da33c 	andseq	sl, sp, ip, lsr r3
    6438:	01ca0200 	biceq	r0, sl, r0, lsl #4
    643c:	000000bd 	strheq	r0, [r0], -sp
    6440:	000017e6 	andeq	r1, r0, r6, ror #15
    6444:	00000014 	andeq	r0, r0, r4, lsl r0
    6448:	0d7c9c01 	ldcleq	12, cr9, [ip, #-4]!
    644c:	07350000 	ldreq	r0, [r5, -r0]!
    6450:	02000022 	andeq	r0, r0, #34	; 0x22
    6454:	028d01ca 	addeq	r0, sp, #-2147483598	; 0x80000032
    6458:	05c90000 	strbeq	r0, [r9]
    645c:	5b350000 	blpl	d46464 <_end+0xd4245c>
    6460:	0200001b 	andeq	r0, r0, #27
    6464:	03a301cb 			; <UNDEFINED> instruction: 0x03a301cb
    6468:	05ea0000 	strbeq	r0, [sl, #0]!
    646c:	f0350000 			; <UNDEFINED> instruction: 0xf0350000
    6470:	02000023 	andeq	r0, r0, #35	; 0x23
    6474:	03e801cb 	mvneq	r0, #-1073741774	; 0xc0000032
    6478:	06170000 	ldreq	r0, [r7], -r0
    647c:	5e350000 	cdppl	0, 3, cr0, cr5, cr0, {0}
    6480:	02000020 	andeq	r0, r0, #32
    6484:	0a7801cc 	beq	1e06bbc <_end+0x1e02bb4>
    6488:	06440000 	strbeq	r0, [r4], -r0
    648c:	fa2d0000 	blx	b46494 <_end+0xb4248c>
    6490:	7e000017 	mcrvc	0, 0, r0, cr0, cr7, {0}
    6494:	2500000a 	strcs	r0, [r0, #-10]
    6498:	30015201 	andcc	r5, r1, r1, lsl #4
    649c:	03510125 	cmpeq	r1, #1073741833	; 0x40000009
    64a0:	255301f3 	ldrbcs	r0, [r3, #-499]	; 0xfffffe0d
    64a4:	f3035001 	vhadd.u8	d5, d3, d1
    64a8:	00005001 	andeq	r5, r0, r1
    64ac:	0024883c 	eoreq	r8, r4, ip, lsr r8
    64b0:	01db0200 	bicseq	r0, fp, r0, lsl #4
    64b4:	000000bd 	strheq	r0, [r0], -sp
    64b8:	000017fa 	strdeq	r1, [r0], -sl
    64bc:	00000042 	andeq	r0, r0, r2, asr #32
    64c0:	0e669c01 	cdpeq	12, 6, cr9, cr6, cr1, {0}
    64c4:	07350000 	ldreq	r0, [r5, -r0]!
    64c8:	02000022 	andeq	r0, r0, #34	; 0x22
    64cc:	028d01db 	addeq	r0, sp, #-1073741770	; 0xc0000036
    64d0:	06650000 	strbteq	r0, [r5], -r0
    64d4:	5e350000 	cdppl	0, 3, cr0, cr5, cr0, {0}
    64d8:	02000020 	andeq	r0, r0, #32
    64dc:	0a7801db 	beq	1e06c50 <_end+0x1e02c48>
    64e0:	06990000 	ldreq	r0, [r9], r0
    64e4:	e7360000 	ldr	r0, [r6, -r0]!
    64e8:	0200001b 	andeq	r0, r0, #27
    64ec:	00bd01dd 	ldrsbteq	r0, [sp], sp
    64f0:	06cd0000 	strbeq	r0, [sp], r0
    64f4:	2a370000 	bcs	dc64fc <_end+0xdc24f4>
    64f8:	0e000018 	mcreq	0, 0, r0, cr0, cr8, {0}
    64fc:	08000000 	stmdaeq	r0, {}	; <UNPREDICTABLE>
    6500:	3600000e 	strcc	r0, [r0], -lr
    6504:	000019cf 	andeq	r1, r0, pc, asr #19
    6508:	e801f202 	stmda	r1, {r1, r9, ip, sp, lr, pc}
    650c:	eb000003 	bl	6520 <_end+0x2518>
    6510:	24000006 	strcs	r0, [r0], #-6
    6514:	00001832 	andeq	r1, r0, r2, lsr r8
    6518:	0000098b 	andeq	r0, r0, fp, lsl #19
    651c:	00000df7 	strdeq	r0, [r0], -r7
    6520:	02500125 	subseq	r0, r0, #1073741833	; 0x40000009
    6524:	26000076 			; <UNDEFINED> instruction: 0x26000076
    6528:	00001838 	andeq	r1, r0, r8, lsr r8
    652c:	00001a66 	andeq	r1, r0, r6, ror #20
    6530:	02500125 	subseq	r0, r0, #1073741833	; 0x40000009
    6534:	00000474 	andeq	r0, r0, r4, ror r4
    6538:	00180e24 	andseq	r0, r8, r4, lsr #28
    653c:	000a7e00 	andeq	r7, sl, r0, lsl #28
    6540:	000e2700 	andeq	r2, lr, r0, lsl #14
    6544:	52012500 	andpl	r2, r1, #0, 10
    6548:	01253101 			; <UNDEFINED> instruction: 0x01253101
    654c:	00740251 	rsbseq	r0, r4, r1, asr r2
    6550:	02500125 	subseq	r0, r0, #1073741833	; 0x40000009
    6554:	39000075 	stmdbcc	r0, {r0, r2, r4, r5, r6}
    6558:	0000181a 	andeq	r1, r0, sl, lsl r8
    655c:	00000e42 	andeq	r0, r0, r2, asr #28
    6560:	02520125 	subseq	r0, r2, #1073741833	; 0x40000009
    6564:	01250074 			; <UNDEFINED> instruction: 0x01250074
    6568:	00750251 	rsbseq	r0, r5, r1, asr r2
    656c:	01500125 	cmpeq	r0, r5, lsr #2
    6570:	2a240032 	bcs	906640 <_end+0x902638>
    6574:	bb000018 	bllt	65dc <_end+0x25d4>
    6578:	5c000009 	stcpl	0, cr0, [r0], {9}
    657c:	2500000e 	strcs	r0, [r0, #-14]
    6580:	74025101 	strvc	r5, [r2], #-257	; 0xfffffeff
    6584:	50012500 	andpl	r2, r1, r0, lsl #10
    6588:	00007502 	andeq	r7, r0, r2, lsl #10
    658c:	00183c2a 	andseq	r3, r8, sl, lsr #24
    6590:	001a7d00 	andseq	r7, sl, r0, lsl #26
    6594:	f13c0000 			; <UNDEFINED> instruction: 0xf13c0000
    6598:	0200001b 	andeq	r0, r0, #27
    659c:	00bd0201 	adcseq	r0, sp, r1, lsl #4
    65a0:	183c0000 	ldmdane	ip!, {}	; <UNPREDICTABLE>
    65a4:	00100000 	andseq	r0, r0, r0
    65a8:	9c010000 	stcls	0, cr0, [r1], {-0}
    65ac:	00000ed3 	ldrdeq	r0, [r0], -r3
    65b0:	00220735 	eoreq	r0, r2, r5, lsr r7
    65b4:	02010200 	andeq	r0, r1, #0, 4
    65b8:	0000028d 	andeq	r0, r0, sp, lsl #5
    65bc:	00000700 	andeq	r0, r0, r0, lsl #14
    65c0:	00205e35 	eoreq	r5, r0, r5, lsr lr
    65c4:	02020200 	andeq	r0, r2, #0, 4
    65c8:	00000a78 	andeq	r0, r0, r8, ror sl
    65cc:	0000073a 	andeq	r0, r0, sl, lsr r7
    65d0:	0018443d 	andseq	r4, r8, sp, lsr r4
    65d4:	000c5500 	andeq	r5, ip, r0, lsl #10
    65d8:	000ebc00 	andeq	fp, lr, r0, lsl #24
    65dc:	51012500 	tstpl	r1, r0, lsl #10
    65e0:	5101f303 	tstpl	r1, r3, lsl #6	; <UNPREDICTABLE>
    65e4:	03500125 	cmpeq	r0, #1073741833	; 0x40000009
    65e8:	005001f3 	ldrsheq	r0, [r0], #-19	; 0xffffffed
    65ec:	00184c2d 	andseq	r4, r8, sp, lsr #24
    65f0:	000a7e00 	andeq	r7, sl, r0, lsl #28
    65f4:	52012500 	andpl	r2, r1, #0, 10
    65f8:	01253001 			; <UNDEFINED> instruction: 0x01253001
    65fc:	01f30351 	mvnseq	r0, r1, asr r3
    6600:	3e000051 	mcrcc	0, 0, r0, cr0, cr1, {2}
    6604:	00001df3 	strdeq	r1, [r0], -r3
    6608:	184cd304 	stmdane	ip, {r2, r8, r9, ip, lr, pc}^
    660c:	00020000 	andeq	r0, r2, r0
    6610:	9c010000 	stcls	0, cr0, [r1], {-0}
    6614:	00000ef7 	strdeq	r0, [r0], -r7
    6618:	0022073f 	eoreq	r0, r2, pc, lsr r7
    661c:	020f0200 	andeq	r0, pc, #0, 4
    6620:	0000028d 	andeq	r0, r0, sp, lsl #5
    6624:	3e005001 	cdpcc	0, 0, cr5, cr0, cr1, {0}
    6628:	00002427 	andeq	r2, r0, r7, lsr #8
    662c:	184ed404 	stmdane	lr, {r2, sl, ip, lr, pc}^
    6630:	000c0000 	andeq	r0, ip, r0
    6634:	9c010000 	stcls	0, cr0, [r1], {-0}
    6638:	00000f2f 	andeq	r0, r0, pc, lsr #30
    663c:	6378651d 	cmnvs	r8, #121634816	; 0x7400000
    6640:	02170200 	andseq	r0, r7, #0, 4
    6644:	0000028d 	andeq	r0, r0, sp, lsl #5
    6648:	00000774 	andeq	r0, r0, r4, ror r7
    664c:	00185840 	andseq	r5, r8, r0, asr #16
    6650:	51012500 	tstpl	r1, r0, lsl #10
    6654:	5001f303 	andpl	pc, r1, r3, lsl #6
    6658:	01500125 	cmpeq	r0, r5, lsr #2
    665c:	3b000031 	blcc	6728 <_end+0x2720>
    6660:	00002407 	andeq	r2, r0, r7, lsl #8
    6664:	031eae04 	tsteq	lr, #4, 28	; 0x40
    6668:	185a0000 	ldmdane	sl, {}^	; <UNPREDICTABLE>
    666c:	002e0000 	eoreq	r0, lr, r0
    6670:	9c010000 	stcls	0, cr0, [r1], {-0}
    6674:	00000fa0 	andeq	r0, r0, r0, lsr #31
    6678:	001e6821 	andseq	r6, lr, r1, lsr #16
    667c:	9d9b0100 	ldflss	f0, [fp]
    6680:	ab000003 	blge	6694 <_end+0x268c>
    6684:	21000007 	tstcs	r0, r7
    6688:	00001d77 	andeq	r1, r0, r7, ror sp
    668c:	02c09c01 	sbceq	r9, r0, #256	; 0x100
    6690:	07fe0000 	ldrbeq	r0, [lr, r0]!
    6694:	c2210000 	eorgt	r0, r1, #0
    6698:	0100001f 	tsteq	r0, pc, lsl r0
    669c:	0000499d 	muleq	r0, sp, r9
    66a0:	00081f00 	andeq	r1, r8, r0, lsl #30
    66a4:	1a073300 	bne	1d32ac <_end+0x1cf2a4>
    66a8:	9e010000 	cdpls	0, 0, cr0, cr1, cr0, {0}
    66ac:	000002f8 	strdeq	r0, [r0], -r8
    66b0:	bf335301 	svclt	0x00335301
    66b4:	01000019 	tsteq	r0, r9, lsl r0
    66b8:	0003e89f 	muleq	r3, pc, r8	; <UNPREDICTABLE>
    66bc:	00910200 	addseq	r0, r1, r0, lsl #4
    66c0:	73727623 	cmnvc	r2, #36700160	; 0x2300000
    66c4:	1ba10100 	blne	fe846acc <_end+0xfe842ac4>
    66c8:	ab000009 	blge	66f4 <_end+0x26ec>
    66cc:	00000007 	andeq	r0, r0, r7
    66d0:	00244a20 	eoreq	r4, r4, r0, lsr #20
    66d4:	25dc0400 	ldrbcs	r0, [ip, #1024]	; 0x400
    66d8:	88000000 	stmdahi	r0, {}	; <UNPREDICTABLE>
    66dc:	18000018 	stmdane	r0, {r3, r4}
    66e0:	01000000 	mrseq	r0, (UNDEF: 0)
    66e4:	00100f9c 	mulseq	r0, ip, pc	; <UNPREDICTABLE>
    66e8:	1e682100 	pownee	f2, f0, f0
    66ec:	dc040000 	stcle	0, cr0, [r4], {-0}
    66f0:	0000039d 	muleq	r0, sp, r3
    66f4:	00000859 	andeq	r0, r0, r9, asr r8
    66f8:	001fc221 	andseq	ip, pc, r1, lsr #4
    66fc:	37dc0400 	ldrbcc	r0, [ip, r0, lsl #8]
    6700:	7a000000 	bvc	6708 <_end+0x2700>
    6704:	41000008 	tstmi	r0, r8
    6708:	006c6176 	rsbeq	r6, ip, r6, ror r1
    670c:	0049de04 	subeq	sp, r9, r4, lsl #28
    6710:	91020000 	mrsls	r0, (UNDEF: 2)
    6714:	18982674 	ldmne	r8, {r2, r4, r5, r6, r9, sl, sp}
    6718:	0f2f0000 	svceq	0x002f0000
    671c:	01250000 			; <UNDEFINED> instruction: 0x01250000
    6720:	25300153 	ldrcs	r0, [r0, #-339]!	; 0xfffffead
    6724:	f3035201 	vhsub.u8	d5, d3, d1
    6728:	01255101 			; <UNDEFINED> instruction: 0x01255101
    672c:	25300151 	ldrcs	r0, [r0, #-337]!	; 0xfffffeaf
    6730:	f3035001 	vhadd.u8	d5, d3, d1
    6734:	02255001 	eoreq	r5, r5, #1
    6738:	9102007d 	tstls	r2, sp, ror r0
    673c:	3b000074 	blcc	6914 <_end+0x290c>
    6740:	000019a5 	andeq	r1, r0, r5, lsr #19
    6744:	031eaa04 	tsteq	lr, #4, 20	; 0x4000
    6748:	18a00000 	stmiane	r0!, {}	; <UNPREDICTABLE>
    674c:	002e0000 	eoreq	r0, lr, r0
    6750:	9c010000 	stcls	0, cr0, [r1], {-0}
    6754:	0000107e 	andeq	r1, r0, lr, ror r0
    6758:	001e6821 	andseq	r6, lr, r1, lsr #16
    675c:	9db90100 	ldflss	f0, [r9]
    6760:	a6000003 	strge	r0, [r0], -r3
    6764:	21000008 	tstcs	r0, r8
    6768:	00001d77 	andeq	r1, r0, r7, ror sp
    676c:	02c0ba01 	sbceq	fp, r0, #4096	; 0x1000
    6770:	08f90000 	ldmeq	r9!, {}^	; <UNPREDICTABLE>
    6774:	c2330000 	eorsgt	r0, r3, #0
    6778:	0100001f 	tsteq	r0, pc, lsl r0
    677c:	000049bb 			; <UNDEFINED> instruction: 0x000049bb
    6780:	33520100 	cmpcc	r2, #0, 2
    6784:	00001a07 	andeq	r1, r0, r7, lsl #20
    6788:	02f8bc01 	rscseq	fp, r8, #256	; 0x100
    678c:	53010000 	movwpl	r0, #4096	; 0x1000
    6790:	0019bf33 	andseq	fp, r9, r3, lsr pc
    6794:	e8bd0100 	ldmfd	sp!, {r8}
    6798:	02000003 	andeq	r0, r0, #3
    679c:	76230091 			; <UNDEFINED> instruction: 0x76230091
    67a0:	01007372 	tsteq	r0, r2, ror r3
    67a4:	00091bbf 			; <UNDEFINED> instruction: 0x00091bbf
    67a8:	0008a600 	andeq	sl, r8, r0, lsl #12
    67ac:	f92b0000 			; <UNDEFINED> instruction: 0xf92b0000
    67b0:	04000023 	streq	r0, [r0], #-35	; 0xffffffdd
    67b4:	0018cee7 	andseq	ip, r8, r7, ror #29
    67b8:	00001a00 	andeq	r1, r0, r0, lsl #20
    67bc:	e99c0100 	ldmib	ip, {r8}
    67c0:	21000010 	tstcs	r0, r0, lsl r0
    67c4:	00001e68 	andeq	r1, r0, r8, ror #28
    67c8:	039de704 	orrseq	lr, sp, #4, 14	; 0x100000
    67cc:	091a0000 	ldmdbeq	sl, {}	; <UNPREDICTABLE>
    67d0:	c2210000 	eorgt	r0, r1, #0
    67d4:	0400001f 	streq	r0, [r0], #-31	; 0xffffffe1
    67d8:	000037e7 	andeq	r3, r0, r7, ror #15
    67dc:	00093b00 	andeq	r3, r9, r0, lsl #22
    67e0:	61762c00 	cmnvs	r6, r0, lsl #24
    67e4:	e704006c 	str	r0, [r4, -ip, rrx]
    67e8:	00000025 	andeq	r0, r0, r5, lsr #32
    67ec:	00000959 	andeq	r0, r0, r9, asr r9
    67f0:	0018e426 	andseq	lr, r8, r6, lsr #8
    67f4:	00100f00 	andseq	r0, r0, r0, lsl #30
    67f8:	53012500 	movwpl	r2, #5376	; 0x1500
    67fc:	01253001 			; <UNDEFINED> instruction: 0x01253001
    6800:	00740252 	rsbseq	r0, r4, r2, asr r2
    6804:	01510125 	cmpeq	r1, r5, lsr #2
    6808:	50012530 	andpl	r2, r1, r0, lsr r5
    680c:	5001f303 	andpl	pc, r1, r3, lsl #6
    6810:	007d0225 	rsbseq	r0, sp, r5, lsr #4
    6814:	00749102 	rsbseq	r9, r4, r2, lsl #2
    6818:	1cc23c00 	stclne	12, cr3, [r2], {0}
    681c:	23020000 	movwcs	r0, #8192	; 0x2000
    6820:	0000bd02 	andeq	fp, r0, r2, lsl #26
    6824:	0018e800 	andseq	lr, r8, r0, lsl #16
    6828:	00007a00 	andeq	r7, r0, r0, lsl #20
    682c:	e89c0100 	ldm	ip, {r8}
    6830:	35000011 	strcc	r0, [r0, #-17]	; 0xffffffef
    6834:	00001bc5 	andeq	r1, r0, r5, asr #23
    6838:	ea022302 	b	8f448 <_end+0x8b440>
    683c:	9d000003 	stcls	0, cr0, [r0, #-12]
    6840:	35000009 	strcc	r0, [r0, #-9]
    6844:	00001ce4 	andeq	r1, r0, r4, ror #25
    6848:	e8022302 	stmda	r2, {r1, r8, r9, sp}
    684c:	bb000003 	bllt	6860 <_end+0x2858>
    6850:	35000009 	strcc	r0, [r0, #-9]
    6854:	0000205e 	andeq	r2, r0, lr, asr r0
    6858:	78022402 	stmdavc	r2, {r1, sl, sp}
    685c:	d900000a 	stmdble	r0, {r1, r3}
    6860:	1e000009 	cdpne	0, 0, cr0, cr0, cr9, {0}
    6864:	000018ed 	andeq	r1, r0, sp, ror #17
    6868:	1e022602 	cfmadd32ne	mvax0, mvfx2, mvfx2, mvfx2
    686c:	03000005 	movweq	r0, #5
    6870:	367c8891 			; <UNDEFINED> instruction: 0x367c8891
    6874:	00001c9d 	muleq	r0, sp, ip
    6878:	bd022702 	stclt	7, cr2, [r2, #-8]
    687c:	21000000 	mrscs	r0, (UNDEF: 0)
    6880:	4200000a 	andmi	r0, r0, #10
    6884:	00626375 	rsbeq	r6, r2, r5, ror r3
    6888:	0b022902 	bleq	90c98 <_end+0x8cc90>
    688c:	03000001 	movweq	r0, #1
    6890:	367bb091 			; <UNDEFINED> instruction: 0x367bb091
    6894:	00002207 	andeq	r2, r0, r7, lsl #4
    6898:	8d022a02 	vstrhi	s4, [r2, #-8]
    689c:	3f000002 	svccc	0x00000002
    68a0:	2400000a 	strcs	r0, [r0], #-10
    68a4:	00001922 	andeq	r1, r0, r2, lsr #18
    68a8:	000007ce 	andeq	r0, r0, lr, asr #15
    68ac:	00001187 	andeq	r1, r0, r7, lsl #3
    68b0:	02500125 	subseq	r0, r0, #1073741833	; 0x40000009
    68b4:	2400007d 	strcs	r0, [r0], #-125	; 0xffffff83
    68b8:	00001932 	andeq	r1, r0, r2, lsr r9
    68bc:	0000107e 	andeq	r1, r0, lr, ror r0
    68c0:	000011a6 	andeq	r1, r0, r6, lsr #3
    68c4:	02520125 	subseq	r0, r2, #1073741833	; 0x40000009
    68c8:	0125007d 			; <UNDEFINED> instruction: 0x0125007d
    68cc:	253c0151 	ldrcs	r0, [ip, #-337]!	; 0xfffffeaf
    68d0:	76025001 	strvc	r5, [r2], -r1
    68d4:	38390000 	ldmdacc	r9!, {}	; <UNPREDICTABLE>
    68d8:	bc000019 	stclt	0, cr0, [r0], {25}
    68dc:	25000011 	strcs	r0, [r0, #-17]	; 0xffffffef
    68e0:	78025101 	stmdavc	r2, {r0, r8, ip, lr}
    68e4:	50012500 	andpl	r2, r1, r0, lsl #10
    68e8:	00007602 	andeq	r7, r0, r2, lsl #12
    68ec:	00194639 	andseq	r4, r9, r9, lsr r6
    68f0:	0011d700 	andseq	sp, r1, r0, lsl #14
    68f4:	52012500 	andpl	r2, r1, #0, 10
    68f8:	25007602 	strcs	r7, [r0, #-1538]	; 0xfffff9fe
    68fc:	7d025101 	stfvcs	f5, [r2, #-4]
    6900:	50012500 	andpl	r2, r1, r0, lsl #10
    6904:	26003801 	strcs	r3, [r0], -r1, lsl #16
    6908:	00001958 	andeq	r1, r0, r8, asr r9
    690c:	0000089a 	muleq	r0, sl, r8
    6910:	02500125 	subseq	r0, r0, #1073741833	; 0x40000009
    6914:	00000076 	andeq	r0, r0, r6, ror r0
    6918:	001a421c 	andseq	r4, sl, ip, lsl r2
    691c:	025e0200 	subseq	r0, lr, #0, 4
    6920:	000000bd 	strheq	r0, [r0], -sp
    6924:	00001962 	andeq	r1, r0, r2, ror #18
    6928:	0000026a 	andeq	r0, r0, sl, ror #4
    692c:	15699c01 	strbne	r9, [r9, #-3073]!	; 0xfffff3ff
    6930:	7d350000 	ldcvc	0, cr0, [r5, #-0]
    6934:	02000022 	andeq	r0, r0, #34	; 0x22
    6938:	00f5025e 	rscseq	r0, r5, lr, asr r2
    693c:	0a5d0000 	beq	1746944 <_end+0x174293c>
    6940:	07350000 	ldreq	r0, [r5, -r0]!
    6944:	02000022 	andeq	r0, r0, #34	; 0x22
    6948:	028d025f 	addeq	r0, sp, #-268435451	; 0xf0000005
    694c:	0a8b0000 	beq	fe2c6954 <_end+0xfe2c294c>
    6950:	68350000 	ldmdavs	r5!, {}	; <UNPREDICTABLE>
    6954:	0200001e 	andeq	r0, r0, #30
    6958:	039d0260 	orrseq	r0, sp, #96, 4
    695c:	0acd0000 	beq	ff346964 <_end+0xff34295c>
    6960:	691d0000 	ldmdbvs	sp, {}	; <UNPREDICTABLE>
    6964:	61020064 	tstvs	r2, r4, rrx
    6968:	00003702 	andeq	r3, r0, r2, lsl #14
    696c:	000b0f00 	andeq	r0, fp, r0, lsl #30
    6970:	77754200 	ldrbvc	r4, [r5, -r0, lsl #4]!
    6974:	63020073 	movwvs	r0, #8307	; 0x2073
    6978:	00036802 	andeq	r6, r3, r2, lsl #16
    697c:	4c910200 	lfmmi	f0, 4, [r1], {0}
    6980:	001d9e36 	andseq	r9, sp, r6, lsr lr
    6984:	02640200 	rsbeq	r0, r4, #0, 4
    6988:	00000362 	andeq	r0, r0, r2, ror #6
    698c:	00000b51 	andeq	r0, r0, r1, asr fp
    6990:	001bbe36 	andseq	fp, fp, r6, lsr lr
    6994:	02650200 	rsbeq	r0, r5, #0, 4
    6998:	00000049 	andeq	r0, r0, r9, asr #32
    699c:	00000bac 	andeq	r0, r0, ip, lsr #23
    69a0:	6e656c29 	cdpvs	12, 6, cr6, cr5, cr9, {1}
    69a4:	02660200 	rsbeq	r0, r6, #0, 4
    69a8:	00000049 	andeq	r0, r0, r9, asr #32
    69ac:	00000bca 	andeq	r0, r0, sl, asr #23
    69b0:	00241c36 	eoreq	r1, r4, r6, lsr ip
    69b4:	02670200 	rsbeq	r0, r7, #0, 4
    69b8:	00000049 	andeq	r0, r0, r9, asr #32
    69bc:	00000bfe 	strdeq	r0, [r0], -lr
    69c0:	0022b336 	eoreq	fp, r2, r6, lsr r3
    69c4:	02680200 	rsbeq	r0, r8, #0, 4
    69c8:	00000037 	andeq	r0, r0, r7, lsr r0
    69cc:	00000c34 	andeq	r0, r0, r4, lsr ip
    69d0:	0019c636 	andseq	ip, r9, r6, lsr r6
    69d4:	02690200 	rsbeq	r0, r9, #0, 4
    69d8:	00000037 	andeq	r0, r0, r7, lsr r0
    69dc:	00000c61 	andeq	r0, r0, r1, ror #24
    69e0:	00228f36 	eoreq	r8, r2, r6, lsr pc
    69e4:	026a0200 	rsbeq	r0, sl, #0, 4
    69e8:	00000037 	andeq	r0, r0, r7, lsr r0
    69ec:	00000cb8 			; <UNDEFINED> instruction: 0x00000cb8
    69f0:	00009828 	andeq	r9, r0, r8, lsr #16
    69f4:	0014f000 	andseq	pc, r4, r0
    69f8:	23563600 	cmpcs	r6, #0, 12
    69fc:	88020000 	stmdahi	r2, {}	; <UNPREDICTABLE>
    6a00:	00004902 	andeq	r4, r0, r2, lsl #18
    6a04:	000cd000 	andeq	sp, ip, r0
    6a08:	22d73600 	sbcscs	r3, r7, #0, 12
    6a0c:	89020000 	stmdbhi	r2, {}	; <UNPREDICTABLE>
    6a10:	00004902 	andeq	r4, r0, r2, lsl #18
    6a14:	000cee00 	andeq	lr, ip, r0, lsl #28
    6a18:	1a303700 	bne	c14620 <_end+0xc10618>
    6a1c:	001e0000 	andseq	r0, lr, r0
    6a20:	132a0000 			; <UNDEFINED> instruction: 0x132a0000
    6a24:	6c290000 	stcvs	0, cr0, [r9], #-0
    6a28:	a4020070 	strge	r0, [r2], #-112	; 0xffffff90
    6a2c:	00004902 	andeq	r4, r0, r2, lsl #18
    6a30:	000d0100 	andeq	r0, sp, r0, lsl #2
    6a34:	1a362400 	bne	d8fa3c <_end+0xd8ba34>
    6a38:	069d0000 	ldreq	r0, [sp], r0
    6a3c:	13190000 	tstne	r9, #0
    6a40:	01250000 			; <UNDEFINED> instruction: 0x01250000
    6a44:	00760250 	rsbseq	r0, r6, r0, asr r2
    6a48:	1a402600 	bne	1010250 <_end+0x100c248>
    6a4c:	1aa10000 	bne	fe846a54 <_end+0xfe842a4c>
    6a50:	01250000 			; <UNDEFINED> instruction: 0x01250000
    6a54:	00750250 	rsbseq	r0, r5, r0, asr r2
    6a58:	56370000 	ldrtpl	r0, [r7], -r0
    6a5c:	4a00001a 	bmi	6acc <_end+0x2ac4>
    6a60:	c7000000 	strgt	r0, [r0, -r0]
    6a64:	36000013 			; <UNDEFINED> instruction: 0x36000013
    6a68:	00002417 	andeq	r2, r0, r7, lsl r4
    6a6c:	4902bc02 	stmdbmi	r2, {r1, sl, fp, ip, sp, pc}
    6a70:	1f000000 	svcne	0x00000000
    6a74:	3600000d 	strcc	r0, [r0], -sp
    6a78:	000022a6 	andeq	r2, r0, r6, lsr #5
    6a7c:	7702bd02 	strvc	fp, [r2, -r2, lsl #26]
    6a80:	3d000005 	stccc	0, cr0, [r0, #-20]	; 0xffffffec
    6a84:	1e00000d 	cdpne	0, 0, cr0, cr0, cr13, {0}
    6a88:	00002225 	andeq	r2, r0, r5, lsr #4
    6a8c:	e802be02 	stmda	r2, {r1, r9, sl, fp, ip, sp, pc}
    6a90:	02000003 	andeq	r0, r0, #3
    6a94:	5d364891 	ldcpl	8, cr4, [r6, #-580]!	; 0xfffffdbc
    6a98:	0200001e 	andeq	r0, r0, #30
    6a9c:	059202bf 	ldreq	r0, [r2, #703]	; 0x2bf
    6aa0:	0d500000 	ldcleq	0, cr0, [r0, #-0]
    6aa4:	74240000 	strtvc	r0, [r4], #-0
    6aa8:	2100001a 	tstcs	r0, sl, lsl r0
    6aac:	91000009 	tstls	r0, r9
    6ab0:	25000013 	strcs	r0, [r0, #-19]	; 0xffffffed
    6ab4:	76025001 	strvc	r5, [r2], -r1
    6ab8:	06494304 	strbeq	r4, [r9], -r4, lsl #6
    6abc:	30010000 	andcc	r0, r1, r0
    6ac0:	1a802400 	bne	fe00fac8 <_end+0xfe00bac0>
    6ac4:	1ab60000 	bne	fed86acc <_end+0xfed82ac4>
    6ac8:	13b10000 			; <UNDEFINED> instruction: 0x13b10000
    6acc:	01250000 			; <UNDEFINED> instruction: 0x01250000
    6ad0:	48910253 	ldmmi	r1, {r0, r1, r4, r6, r9}
    6ad4:	02520125 	subseq	r0, r2, #1073741833	; 0x40000009
    6ad8:	0125007a 			; <UNDEFINED> instruction: 0x0125007a
    6adc:	00750250 	rsbseq	r0, r5, r0, asr r2
    6ae0:	1a8c2600 	bne	fe3102e8 <_end+0xfe30c2e0>
    6ae4:	0fa00000 	svceq	0x00a00000
    6ae8:	01250000 			; <UNDEFINED> instruction: 0x01250000
    6aec:	253d0151 	ldrcs	r0, [sp, #-337]!	; 0xfffffeaf
    6af0:	77025001 	strvc	r5, [r2, -r1]
    6af4:	37000000 	strcc	r0, [r0, -r0]
    6af8:	00001ab4 			; <UNDEFINED> instruction: 0x00001ab4
    6afc:	00000004 	andeq	r0, r0, r4
    6b00:	000013e2 	andeq	r1, r0, r2, ror #7
    6b04:	00706c42 	rsbseq	r6, r0, r2, asr #24
    6b08:	4902ef02 	stmdbmi	r2, {r1, r8, r9, sl, fp, sp, lr, pc}
    6b0c:	01000000 	mrseq	r0, (UNDEF: 0)
    6b10:	b0280052 	eorlt	r0, r8, r2, asr r0
    6b14:	6d000000 	stcvs	0, cr0, [r0, #-0]
    6b18:	29000014 	stmdbcs	r0, {r2, r4}
    6b1c:	03020069 	movweq	r0, #8297	; 0x2069
    6b20:	00004903 	andeq	r4, r0, r3, lsl #18
    6b24:	000d6300 	andeq	r6, sp, r0, lsl #6
    6b28:	24173600 	ldrcs	r3, [r7], #-1536	; 0xfffffa00
    6b2c:	04020000 	streq	r0, [r2], #-0
    6b30:	00004903 	andeq	r4, r0, r3, lsl #18
    6b34:	000d8e00 	andeq	r8, sp, r0, lsl #28
    6b38:	22251e00 	eorcs	r1, r5, #0, 28
    6b3c:	05020000 	streq	r0, [r2, #-0]
    6b40:	0003e803 	andeq	lr, r3, r3, lsl #16
    6b44:	48910200 	ldmmi	r1, {r9}
    6b48:	001af824 	andseq	pc, sl, r4, lsr #16
    6b4c:	00092100 	andeq	r2, r9, r0, lsl #2
    6b50:	00143800 	andseq	r3, r4, r0, lsl #16
    6b54:	50012500 	andpl	r2, r1, r0, lsl #10
    6b58:	32007a07 	andcc	r7, r0, #28672	; 0x7000
    6b5c:	22007624 	andcs	r7, r0, #36, 12	; 0x2400000
    6b60:	00064943 	andeq	r4, r6, r3, asr #18
    6b64:	00300100 	eorseq	r0, r0, r0, lsl #2
    6b68:	001b0424 	andseq	r0, fp, r4, lsr #8
    6b6c:	001ab600 	andseq	fp, sl, r0, lsl #12
    6b70:	00145700 	andseq	r5, r4, r0, lsl #14
    6b74:	53012500 	movwpl	r2, #5376	; 0x1500
    6b78:	25007b02 	strcs	r7, [r0, #-2818]	; 0xfffff4fe
    6b7c:	30015201 	andcc	r5, r1, r1, lsl #4
    6b80:	02500125 	subseq	r0, r0, #1073741833	; 0x40000009
    6b84:	26000075 			; <UNDEFINED> instruction: 0x26000075
    6b88:	00001bb6 			; <UNDEFINED> instruction: 0x00001bb6
    6b8c:	00000fa0 	andeq	r0, r0, r0, lsr #31
    6b90:	01510125 	cmpeq	r1, r5, lsr #2
    6b94:	5001253d 	andpl	r2, r1, sp, lsr r5
    6b98:	00007702 	andeq	r7, r0, r2, lsl #14
    6b9c:	1b203700 	blne	8147a4 <_end+0x81079c>
    6ba0:	00340000 	eorseq	r0, r4, r0
    6ba4:	14a80000 	strtne	r0, [r8], #0
    6ba8:	6c290000 	stcvs	0, cr0, [r9], #-0
    6bac:	21020070 	tstcs	r2, r0, ror r0
    6bb0:	00004903 	andeq	r4, r0, r3, lsl #18
    6bb4:	000dac00 	andeq	sl, sp, r0, lsl #24
    6bb8:	1b3e2a00 	blne	f913c0 <_end+0xf8d3b8>
    6bbc:	069d0000 	ldreq	r0, [sp], r0
    6bc0:	48260000 	stmdami	r6!, {}	; <UNPREDICTABLE>
    6bc4:	7e00001b 	mcrvc	0, 0, r0, cr0, cr11, {0}
    6bc8:	25000010 	strcs	r0, [r0, #-16]
    6bcc:	3f015101 	svccc	0x00015101
    6bd0:	02500125 	subseq	r0, r0, #1073741833	; 0x40000009
    6bd4:	00000077 	andeq	r0, r0, r7, ror r0
    6bd8:	0019f624 	andseq	pc, r9, r4, lsr #12
    6bdc:	000fa000 	andeq	sl, pc, r0
    6be0:	0014c100 	andseq	ip, r4, r0, lsl #2
    6be4:	51012500 	tstpl	r1, r0, lsl #10
    6be8:	01253f01 			; <UNDEFINED> instruction: 0x01253f01
    6bec:	00770250 	rsbseq	r0, r7, r0, asr r2
    6bf0:	1aaa2400 	bne	fea8fbf8 <_end+0xfea8bbf0>
    6bf4:	0fa00000 	svceq	0x00a00000
    6bf8:	14da0000 	ldrbne	r0, [sl], #0
    6bfc:	01250000 			; <UNDEFINED> instruction: 0x01250000
    6c00:	253d0151 	ldrcs	r0, [sp, #-337]!	; 0xfffffeaf
    6c04:	77025001 	strvc	r5, [r2, -r1]
    6c08:	16260000 	strtne	r0, [r6], -r0
    6c0c:	a000001b 	andge	r0, r0, fp, lsl r0
    6c10:	2500000f 	strcs	r0, [r0, #-15]
    6c14:	3d015101 	stfccs	f5, [r1, #-4]
    6c18:	02500125 	subseq	r0, r0, #1073741833	; 0x40000009
    6c1c:	00000077 	andeq	r0, r0, r7, ror r0
    6c20:	001b7224 	andseq	r7, fp, r4, lsr #4
    6c24:	00095300 	andeq	r5, r9, r0, lsl #6
    6c28:	00151300 	andseq	r1, r5, r0, lsl #6
    6c2c:	067b4300 	ldrbteq	r4, [fp], -r0, lsl #6
    6c30:	77020000 	strvc	r0, [r2, -r0]
    6c34:	06914300 	ldreq	r4, [r1], r0, lsl #6
    6c38:	79070000 	stmdbvc	r7, {}	; <UNPREDICTABLE>
    6c3c:	08293400 	stmdaeq	r9!, {sl, ip, sp}
    6c40:	24001aff 	strcs	r1, [r0], #-2815	; 0xfffff501
    6c44:	00001b7c 	andeq	r1, r0, ip, ror fp
    6c48:	00001ae5 	andeq	r1, r0, r5, ror #21
    6c4c:	0000152d 	andeq	r1, r0, sp, lsr #10
    6c50:	02510125 	subseq	r0, r1, #1073741833	; 0x40000009
    6c54:	01254c91 			; <UNDEFINED> instruction: 0x01254c91
    6c58:	00770250 	rsbseq	r0, r7, r0, asr r2
    6c5c:	1b8e2400 	blne	fe38fc64 <_end+0xfe38bc5c>
    6c60:	0fa00000 	svceq	0x00a00000
    6c64:	15460000 	strbne	r0, [r6, #-0]
    6c68:	01250000 			; <UNDEFINED> instruction: 0x01250000
    6c6c:	253f0151 	ldrcs	r0, [pc, #-337]!	; 6b23 <_end+0x2b1b>
    6c70:	77025001 	strvc	r5, [r2, -r1]
    6c74:	98240000 	stmdals	r4!, {}	; <UNPREDICTABLE>
    6c78:	7e00001b 	mcrvc	0, 0, r0, cr0, cr11, {0}
    6c7c:	5f000010 	svcpl	0x00000010
    6c80:	25000015 	strcs	r0, [r0, #-21]	; 0xffffffeb
    6c84:	3e015101 	adfccs	f5, f1, f1
    6c88:	02500125 	subseq	r0, r0, #1073741833	; 0x40000009
    6c8c:	2a000077 	bcs	6e70 <_end+0x2e68>
    6c90:	00001ba6 	andeq	r1, r0, r6, lsr #23
    6c94:	0000107e 	andeq	r1, r0, lr, ror r0
    6c98:	1a683c00 	bne	1a15ca0 <_end+0x1a11c98>
    6c9c:	ea010000 	b	46ca4 <_end+0x42c9c>
    6ca0:	0000bd01 	andeq	fp, r0, r1, lsl #26
    6ca4:	001bcc00 	andseq	ip, fp, r0, lsl #24
    6ca8:	00000400 	andeq	r0, r0, r0, lsl #8
    6cac:	d89c0100 	ldmle	ip, {r8}
    6cb0:	35000015 	strcc	r0, [r0, #-21]	; 0xffffffeb
    6cb4:	0000227d 	andeq	r2, r0, sp, ror r2
    6cb8:	f501ea01 			; <UNDEFINED> instruction: 0xf501ea01
    6cbc:	ca000000 	bgt	6cc4 <_end+0x2cbc>
    6cc0:	3500000d 	strcc	r0, [r0, #-13]
    6cc4:	00002207 	andeq	r2, r0, r7, lsl #4
    6cc8:	8d01eb01 	vstrhi	d14, [r1, #-4]
    6ccc:	eb000002 	bl	6cdc <_end+0x2cd4>
    6cd0:	3500000d 	strcc	r0, [r0, #-13]
    6cd4:	00001e68 	andeq	r1, r0, r8, ror #28
    6cd8:	9d01ec01 	stcls	12, cr14, [r1, #-4]
    6cdc:	0c000003 	stceq	0, cr0, [r0], {3}
    6ce0:	2d00000e 	stccs	0, cr0, [r0, #-56]	; 0xffffffc8
    6ce4:	00001bd0 	ldrdeq	r1, [r0], -r0
    6ce8:	000011e8 	andeq	r1, r0, r8, ror #3
    6cec:	01530125 	cmpeq	r3, r5, lsr #2
    6cf0:	52012530 	andpl	r2, r1, #48, 10	; 0xc000000
    6cf4:	5201f303 	andpl	pc, r1, #201326592	; 0xc000000
    6cf8:	03510125 	cmpeq	r1, #1073741833	; 0x40000009
    6cfc:	255101f3 	ldrbcs	r0, [r1, #-499]	; 0xfffffe0d
    6d00:	f3035001 	vhadd.u8	d5, d3, d1
    6d04:	00005001 	andeq	r5, r0, r1
    6d08:	001a7f3c 	andseq	r7, sl, ip, lsr pc
    6d0c:	01f20100 	mvnseq	r0, r0, lsl #2
    6d10:	000000bd 	strheq	r0, [r0], -sp
    6d14:	00001bd0 	ldrdeq	r1, [r0], -r0
    6d18:	00000004 	andeq	r0, r0, r4
    6d1c:	16479c01 	strbne	r9, [r7], -r1, lsl #24
    6d20:	7d350000 	ldcvc	0, cr0, [r5, #-0]
    6d24:	01000022 	tsteq	r0, r2, lsr #32
    6d28:	00f501f2 	ldrshteq	r0, [r5], #18
    6d2c:	0e2d0000 	cdpeq	0, 2, cr0, cr13, cr0, {0}
    6d30:	07350000 	ldreq	r0, [r5, -r0]!
    6d34:	01000022 	tsteq	r0, r2, lsr #32
    6d38:	028d01f3 	addeq	r0, sp, #-1073741764	; 0xc000003c
    6d3c:	0e4e0000 	cdpeq	0, 4, cr0, cr14, cr0, {0}
    6d40:	68350000 	ldmdavs	r5!, {}	; <UNPREDICTABLE>
    6d44:	0100001e 	tsteq	r0, lr, lsl r0
    6d48:	039d01f4 	orrseq	r0, sp, #244, 2	; 0x3d
    6d4c:	0e6f0000 	cdpeq	0, 6, cr0, cr15, cr0, {0}
    6d50:	d42d0000 	strtle	r0, [sp], #-0
    6d54:	e800001b 	stmda	r0, {r0, r1, r3, r4}
    6d58:	25000011 	strcs	r0, [r0, #-17]	; 0xffffffef
    6d5c:	31015301 	tstcc	r1, r1, lsl #6
    6d60:	03520125 	cmpeq	r2, #1073741833	; 0x40000009
    6d64:	255201f3 	ldrbcs	r0, [r2, #-499]	; 0xfffffe0d
    6d68:	f3035101 	vrhadd.u8	d5, d3, d1
    6d6c:	01255101 			; <UNDEFINED> instruction: 0x01255101
    6d70:	01f30350 	mvnseq	r0, r0, asr r3
    6d74:	3c000050 	stccc	0, cr0, [r0], {80}	; 0x50
    6d78:	00001a96 	muleq	r0, r6, sl
    6d7c:	bd01fa01 	vstrlt	s30, [r1, #-4]
    6d80:	d4000000 	strle	r0, [r0], #-0
    6d84:	0400001b 	streq	r0, [r0], #-27	; 0xffffffe5
    6d88:	01000000 	mrseq	r0, (UNDEF: 0)
    6d8c:	0016b69c 	mulseq	r6, ip, r6
    6d90:	227d3500 	rsbscs	r3, sp, #0, 10
    6d94:	fa010000 	blx	46d9c <_end+0x42d94>
    6d98:	0000f501 	andeq	pc, r0, r1, lsl #10
    6d9c:	000e9000 	andeq	r9, lr, r0
    6da0:	22073500 	andcs	r3, r7, #0, 10
    6da4:	fb010000 	blx	46dae <_end+0x42da6>
    6da8:	00028d01 	andeq	r8, r2, r1, lsl #26
    6dac:	000eb100 	andeq	fp, lr, r0, lsl #2
    6db0:	1e683500 	cdpne	5, 6, cr3, cr8, cr0, {0}
    6db4:	fc010000 	stc2	0, cr0, [r1], {-0}
    6db8:	00039d01 	andeq	r9, r3, r1, lsl #26
    6dbc:	000ed200 	andeq	sp, lr, r0, lsl #4
    6dc0:	1bd82d00 	blne	ff6121c8 <_end+0xff60e1c0>
    6dc4:	11e80000 	mvnne	r0, r0
    6dc8:	01250000 			; <UNDEFINED> instruction: 0x01250000
    6dcc:	25320153 	ldrcs	r0, [r2, #-339]!	; 0xfffffead
    6dd0:	f3035201 	vhsub.u8	d5, d3, d1
    6dd4:	01255201 			; <UNDEFINED> instruction: 0x01255201
    6dd8:	01f30351 	mvnseq	r0, r1, asr r3
    6ddc:	50012551 	andpl	r2, r1, r1, asr r5
    6de0:	5001f303 	andpl	pc, r1, r3, lsl #6
    6de4:	b23b0000 	eorslt	r0, fp, #0
    6de8:	0400001f 	streq	r0, [r0], #-31	; 0xffffffe1
    6dec:	00031eb2 			; <UNDEFINED> instruction: 0x00031eb2
    6df0:	001bd800 	andseq	sp, fp, r0, lsl #16
    6df4:	00022e00 	andeq	r2, r2, r0, lsl #28
    6df8:	c39c0100 	orrsgt	r0, ip, #0, 2
    6dfc:	21000019 	tstcs	r0, r9, lsl r0
    6e00:	00001e68 	andeq	r1, r0, r8, ror #28
    6e04:	039dd801 	orrseq	sp, sp, #65536	; 0x10000
    6e08:	0ef30000 	cdpeq	0, 15, cr0, cr3, cr0, {0}
    6e0c:	77210000 	strvc	r0, [r1, -r0]!
    6e10:	0100001d 	tsteq	r0, sp, lsl r0
    6e14:	0002c0d9 	ldrdeq	ip, [r2], -r9
    6e18:	000f7f00 	andeq	r7, pc, r0, lsl #30
    6e1c:	20852100 	addcs	r2, r5, r0, lsl #2
    6e20:	da010000 	ble	46e28 <_end+0x42e20>
    6e24:	00000049 	andeq	r0, r0, r9, asr #32
    6e28:	00001036 	andeq	r1, r0, r6, lsr r0
    6e2c:	001a0721 	andseq	r0, sl, r1, lsr #14
    6e30:	f8db0100 			; <UNDEFINED> instruction: 0xf8db0100
    6e34:	94000002 	strls	r0, [r0], #-2
    6e38:	23000010 	movwcs	r0, #16
    6e3c:	00737276 	rsbseq	r7, r3, r6, ror r2
    6e40:	091bdd01 	ldmdbeq	fp, {r0, r8, sl, fp, ip, lr, pc}
    6e44:	0ef30000 	cdpeq	0, 15, cr0, cr3, cr0, {0}
    6e48:	d0280000 	eorle	r0, r8, r0
    6e4c:	4f000000 	svcmi	0x00000000
    6e50:	23000017 	movwcs	r0, #23
    6e54:	00727470 	rsbseq	r7, r2, r0, ror r4
    6e58:	0362e301 	cmneq	r2, #67108864	; 0x4000000
    6e5c:	10f20000 	rscsne	r0, r2, r0
    6e60:	97220000 	strls	r0, [r2, -r0]!
    6e64:	01000019 	tsteq	r0, r9, lsl r0
    6e68:	000049e4 	andeq	r4, r0, r4, ror #19
    6e6c:	00111d00 	andseq	r1, r1, r0, lsl #26
    6e70:	00692300 	rsbeq	r2, r9, r0, lsl #6
    6e74:	0037e501 	eorseq	lr, r7, r1, lsl #10
    6e78:	11300000 	teqne	r0, r0
    6e7c:	28000000 	stmdacs	r0, {}	; <UNPREDICTABLE>
    6e80:	000000e8 	andeq	r0, r0, r8, ror #1
    6e84:	000018c0 	andeq	r1, r0, r0, asr #17
    6e88:	00219922 	eoreq	r9, r1, r2, lsr #18
    6e8c:	49fa0100 	ldmibmi	sl!, {r8}^
    6e90:	81000000 	mrshi	r0, (UNDEF: 0)
    6e94:	22000011 	andcs	r0, r0, #17
    6e98:	00001ba1 	andeq	r1, r0, r1, lsr #23
    6e9c:	0049fb01 	subeq	pc, r9, r1, lsl #22
    6ea0:	11c40000 	bicne	r0, r4, r0
    6ea4:	74410000 	strbvc	r0, [r1], #-0
    6ea8:	0100706d 	tsteq	r0, sp, rrx
    6eac:	000444fc 	strdeq	r4, [r4], -ip
    6eb0:	e0910300 	adds	r0, r1, r0, lsl #6
    6eb4:	1c78277e 	ldclne	7, cr2, [r8], #-504	; 0xfffffe08
    6eb8:	fd010000 	stc2	0, cr0, [r1, #-0]
    6ebc:	00000477 	andeq	r0, r0, r7, ror r4
    6ec0:	7de09103 	stfvcp	f1, [r0, #12]!
    6ec4:	001ab322 	andseq	fp, sl, r2, lsr #6
    6ec8:	37fe0100 	ldrbcc	r0, [lr, r0, lsl #2]!
    6ecc:	25000000 	strcs	r0, [r0, #-0]
    6ed0:	23000012 	movwcs	r0, #18
    6ed4:	01007073 	tsteq	r0, r3, ror r0
    6ed8:	000362ff 	strdeq	r6, [r3], -pc	; <UNPREDICTABLE>
    6edc:	00125200 	andseq	r5, r2, r0, lsl #4
    6ee0:	24833600 	strcs	r3, [r3], #1536	; 0x600
    6ee4:	00010000 	andeq	r0, r1, r0
    6ee8:	00036201 	andeq	r6, r3, r1, lsl #4
    6eec:	0012b200 	andseq	fp, r2, r0, lsl #4
    6ef0:	1a593600 	bne	16546f8 <_end+0x16506f0>
    6ef4:	01010000 	mrseq	r0, (UNDEF: 1)
    6ef8:	00003701 	andeq	r3, r0, r1, lsl #14
    6efc:	00133d00 	andseq	r3, r3, r0, lsl #26
    6f00:	1d643700 	stclne	7, cr3, [r4, #-0]
    6f04:	00240000 	eoreq	r0, r4, r0
    6f08:	17ff0000 	ldrbne	r0, [pc, r0]!
    6f0c:	f0360000 			; <UNDEFINED> instruction: 0xf0360000
    6f10:	01000019 	tsteq	r0, r9, lsl r0
    6f14:	00370153 	eorseq	r0, r7, r3, asr r1
    6f18:	13b20000 			; <UNDEFINED> instruction: 0x13b20000
    6f1c:	4c360000 	ldcmi	0, cr0, [r6], #-0
    6f20:	0100001d 	tsteq	r0, sp, lsl r0
    6f24:	00370154 	eorseq	r0, r7, r4, asr r1
    6f28:	13c90000 	bicne	r0, r9, #0
    6f2c:	24000000 	strcs	r0, [r0], #-0
    6f30:	00001cee 	andeq	r1, r0, lr, ror #25
    6f34:	00001a10 	andeq	r1, r0, r0, lsl sl
    6f38:	00001814 	andeq	r1, r0, r4, lsl r8
    6f3c:	03500125 	cmpeq	r0, #1073741833	; 0x40000009
    6f40:	007ee091 			; <UNDEFINED> instruction: 0x007ee091
    6f44:	001d2a24 	andseq	r2, sp, r4, lsr #20
    6f48:	001b0500 	andseq	r0, fp, r0, lsl #10
    6f4c:	00182900 	andseq	r2, r8, r0, lsl #18
    6f50:	50012500 	andpl	r2, r1, r0, lsl #10
    6f54:	00c87503 	sbceq	r7, r8, r3, lsl #10
    6f58:	1d342400 	cfldrsne	mvf2, [r4, #-0]
    6f5c:	1b050000 	blne	146f64 <_end+0x142f5c>
    6f60:	183e0000 	ldmdane	lr!, {}	; <UNPREDICTABLE>
    6f64:	01250000 			; <UNDEFINED> instruction: 0x01250000
    6f68:	e0910350 	adds	r0, r1, r0, asr r3
    6f6c:	9424007e 	strtls	r0, [r4], #-126	; 0xffffff82
    6f70:	f900001d 			; <UNDEFINED> instruction: 0xf900001d
    6f74:	53000019 	movwpl	r0, #25
    6f78:	25000018 	strcs	r0, [r0, #-24]	; 0xffffffe8
    6f7c:	91035001 	tstls	r3, r1
    6f80:	24007ee0 	strcs	r7, [r0], #-3808	; 0xfffff120
    6f84:	00001d9e 	muleq	r0, lr, sp
    6f88:	00001a21 	andeq	r1, r0, r1, lsr #20
    6f8c:	00001867 	andeq	r1, r0, r7, ror #16
    6f90:	02500125 	subseq	r0, r0, #1073741833	; 0x40000009
    6f94:	2a00007d 	bcs	7190 <_end+0x3188>
    6f98:	00001daa 	andeq	r1, r0, sl, lsr #27
    6f9c:	00001b16 	andeq	r1, r0, r6, lsl fp
    6fa0:	001dc024 	andseq	ip, sp, r4, lsr #32
    6fa4:	001b2700 	andseq	r2, fp, r0, lsl #14
    6fa8:	00188500 	andseq	r8, r8, r0, lsl #10
    6fac:	50012500 	andpl	r2, r1, r0, lsl #10
    6fb0:	01d07503 	bicseq	r7, r0, r3, lsl #10
    6fb4:	1dd02400 	cfldrdne	mvd2, [r0]
    6fb8:	1b270000 	blne	9c6fc0 <_end+0x9c2fb8>
    6fbc:	18990000 	ldmne	r9, {}	; <UNPREDICTABLE>
    6fc0:	01250000 			; <UNDEFINED> instruction: 0x01250000
    6fc4:	007d0250 	rsbseq	r0, sp, r0, asr r2
    6fc8:	1dea2400 	cfstrdne	mvd2, [sl]
    6fcc:	1b160000 	blne	586fd4 <_end+0x582fcc>
    6fd0:	18ae0000 	stmiane	lr!, {}	; <UNPREDICTABLE>
    6fd4:	01250000 			; <UNDEFINED> instruction: 0x01250000
    6fd8:	e0910350 	adds	r0, r1, r0, asr r3
    6fdc:	f626007e 			; <UNDEFINED> instruction: 0xf626007e
    6fe0:	1600001d 			; <UNDEFINED> instruction: 0x1600001d
    6fe4:	2500001b 	strcs	r0, [r0, #-27]	; 0xffffffe5
    6fe8:	91035001 	tstls	r3, r1
    6fec:	00007ee0 	andeq	r7, r0, r0, ror #29
    6ff0:	001c3837 	andseq	r3, ip, r7, lsr r8
    6ff4:	00004e00 	andeq	r4, r0, r0, lsl #28
    6ff8:	00195200 	andseq	r5, r9, r0, lsl #4
    6ffc:	21993600 	orrscs	r3, r9, r0, lsl #12
    7000:	74010000 	strvc	r0, [r1], #-0
    7004:	00004901 	andeq	r4, r0, r1, lsl #18
    7008:	0013f000 	andseq	pc, r3, r0
    700c:	1ba13600 	blne	fe854814 <_end+0xfe85080c>
    7010:	75010000 	strvc	r0, [r1, #-0]
    7014:	00004901 	andeq	r4, r0, r1, lsl #18
    7018:	00142200 	andseq	r2, r4, r0, lsl #4
    701c:	6d744200 	lfmvs	f4, 2, [r4, #-0]
    7020:	76010070 			; <UNDEFINED> instruction: 0x76010070
    7024:	00048e01 	andeq	r8, r4, r1, lsl #28
    7028:	e0910300 	adds	r0, r1, r0, lsl #6
    702c:	7073297e 	rsbsvc	r2, r3, lr, ror r9
    7030:	01770100 	cmneq	r7, r0, lsl #2
    7034:	00000362 	andeq	r0, r0, r2, ror #6
    7038:	0000145c 	andeq	r1, r0, ip, asr r4
    703c:	00248344 	eoreq	r8, r4, r4, asr #6
    7040:	01780100 	cmneq	r8, r0, lsl #2
    7044:	00000362 	andeq	r0, r0, r2, ror #6
    7048:	001c5a24 	andseq	r5, ip, r4, lsr #20
    704c:	001b3800 	andseq	r3, fp, r0, lsl #16
    7050:	00192d00 	andseq	r2, r9, r0, lsl #26
    7054:	50012500 	andpl	r2, r1, r0, lsl #10
    7058:	02d07503 	sbcseq	r7, r0, #12582912	; 0xc00000
    705c:	1c682400 	cfstrdne	mvd2, [r8], #-0
    7060:	1b380000 	blne	e07068 <_end+0xe03060>
    7064:	19410000 	stmdbne	r1, {}^	; <UNPREDICTABLE>
    7068:	01250000 			; <UNDEFINED> instruction: 0x01250000
    706c:	00770250 	rsbseq	r0, r7, r0, asr r2
    7070:	1c842600 	stcne	6, cr2, [r4], {0}
    7074:	1a380000 	bne	e0707c <_end+0xe03074>
    7078:	01250000 			; <UNDEFINED> instruction: 0x01250000
    707c:	00770250 	rsbseq	r0, r7, r0, asr r2
    7080:	863a0000 	ldrthi	r0, [sl], -r0
    7084:	4800001c 	stmdami	r0, {r2, r3, r4}
    7088:	29000000 	stmdbcs	r0, {}	; <UNPREDICTABLE>
    708c:	9b010069 	blls	47238 <_end+0x43230>
    7090:	00003701 	andeq	r3, r0, r1, lsl #14
    7094:	00148700 	andseq	r8, r4, r0, lsl #14
    7098:	6d744200 	lfmvs	f4, 2, [r4, #-0]
    709c:	9c010070 	stcls	0, cr0, [r1], {112}	; 0x70
    70a0:	0004a601 	andeq	sl, r4, r1, lsl #12
    70a4:	e0910300 	adds	r0, r1, r0, lsl #6
    70a8:	7073297e 	rsbsvc	r2, r3, lr, ror r9
    70ac:	019d0100 	orrseq	r0, sp, r0, lsl #2
    70b0:	00000362 	andeq	r0, r0, r2, ror #6
    70b4:	000014a6 	andeq	r1, r0, r6, lsr #9
    70b8:	001ca024 	andseq	sl, ip, r4, lsr #32
    70bc:	001b4900 	andseq	r4, fp, r0, lsl #18
    70c0:	00199d00 	andseq	r9, r9, r0, lsl #26
    70c4:	50012500 	andpl	r2, r1, r0, lsl #10
    70c8:	03d07503 	bicseq	r7, r0, #12582912	; 0xc00000
    70cc:	1ca82400 	cfstrsne	mvf2, [r8]
    70d0:	1b490000 	blne	12470d8 <_end+0x12430d0>
    70d4:	19b10000 	ldmibne	r1!, {}	; <UNPREDICTABLE>
    70d8:	01250000 			; <UNDEFINED> instruction: 0x01250000
    70dc:	00760250 	rsbseq	r0, r6, r0, asr r2
    70e0:	1ccc2600 	stclne	6, cr2, [ip], {0}
    70e4:	1a4f0000 	bne	13c70ec <_end+0x13c30e4>
    70e8:	01250000 			; <UNDEFINED> instruction: 0x01250000
    70ec:	00760250 	rsbseq	r0, r6, r0, asr r2
    70f0:	45000000 	strmi	r0, [r0, #-0]
    70f4:	00001c54 	andeq	r1, r0, r4, asr ip
    70f8:	062e6802 	strteq	r6, [lr], -r2, lsl #16
    70fc:	5b450000 	blpl	1147104 <_end+0x11430fc>
    7100:	02000023 	andeq	r0, r0, #35	; 0x23
    7104:	00062e69 	andeq	r2, r6, r9, ror #28
    7108:	1c854600 	stcne	6, cr4, [r5], {0}
    710c:	38020000 	stmdacc	r2, {}	; <UNPREDICTABLE>
    7110:	0000003e 	andeq	r0, r0, lr, lsr r0
    7114:	000019f3 	strdeq	r1, [r0], -r3
    7118:	00003e11 	andeq	r3, r0, r1, lsl lr
    711c:	19f31100 	ldmibne	r3!, {r8, ip}^
    7120:	0f000000 	svceq	0x00000000
    7124:	00003704 	andeq	r3, r0, r4, lsl #14
    7128:	1b634700 	blne	18d8d30 <_end+0x18d4d28>
    712c:	73010000 	movwvc	r0, #4096	; 0x1000
    7130:	00001a0a 	andeq	r1, r0, sl, lsl #20
    7134:	001a0a11 	andseq	r0, sl, r1, lsl sl
    7138:	040f0000 	streq	r0, [pc], #-0	; 7140 <_end+0x3138>
    713c:	00000444 	andeq	r0, r0, r4, asr #8
    7140:	00191247 	andseq	r1, r9, r7, asr #4
    7144:	216b0100 	cmncs	fp, r0, lsl #2
    7148:	1100001a 	tstne	r0, sl, lsl r0
    714c:	00001a0a 	andeq	r1, r0, sl, lsl #20
    7150:	195d4700 	ldmdbne	sp, {r8, r9, sl, lr}^
    7154:	78010000 	stmdavc	r1, {}	; <UNPREDICTABLE>
    7158:	00001a32 	andeq	r1, r0, r2, lsr sl
    715c:	001a3211 	andseq	r3, sl, r1, lsl r2
    7160:	040f0000 	streq	r0, [pc], #-0	; 7168 <_end+0x3160>
    7164:	00000477 	andeq	r0, r0, r7, ror r4
    7168:	00189847 	andseq	r9, r8, r7, asr #16
    716c:	496d0100 	stmdbmi	sp!, {r8}^
    7170:	1100001a 	tstne	r0, sl, lsl r0
    7174:	00001a49 	andeq	r1, r0, r9, asr #20
    7178:	8e040f00 	cdphi	15, 0, cr0, cr4, cr0, {0}
    717c:	47000004 	strmi	r0, [r0, -r4]
    7180:	0000187d 	andeq	r1, r0, sp, ror r8
    7184:	1a606f01 	bne	1822d90 <_end+0x181ed88>
    7188:	60110000 	andsvs	r0, r1, r0
    718c:	0000001a 	andeq	r0, r0, sl, lsl r0
    7190:	04a6040f 	strteq	r0, [r6], #1039	; 0x40f
    7194:	3a470000 	bcc	11c719c <_end+0x11c3194>
    7198:	0200001d 	andeq	r0, r0, #29
    719c:	001a775b 	andseq	r7, sl, fp, asr r7
    71a0:	1a771100 	bne	1dcb5a8 <_end+0x1dc75a0>
    71a4:	0f000000 	svceq	0x00000000
    71a8:	00041d04 	andeq	r1, r4, r4, lsl #26
    71ac:	1c154800 	ldcne	8, cr4, [r5], {-0}
    71b0:	33050000 	movwcc	r0, #20480	; 0x5000
    71b4:	0023b249 	eoreq	fp, r3, r9, asr #4
    71b8:	0003e800 	andeq	lr, r3, r0, lsl #16
    71bc:	001aa100 	andseq	sl, sl, r0, lsl #2
    71c0:	03e81100 	mvneq	r1, #0, 2
    71c4:	6a110000 	bvs	4471cc <_end+0x4431c4>
    71c8:	11000005 	tstne	r0, r5
    71cc:	000001fb 	strdeq	r0, [r0], -fp
    71d0:	204a4600 	subcs	r4, sl, r0, lsl #12
    71d4:	32020000 	andcc	r0, r2, #0
    71d8:	00000577 	andeq	r0, r0, r7, ror r5
    71dc:	00001ab6 			; <UNDEFINED> instruction: 0x00001ab6
    71e0:	00028d11 	andeq	r8, r2, r1, lsl sp
    71e4:	a2460000 	subge	r0, r6, #0
    71e8:	0200001c 	andeq	r0, r0, #28
    71ec:	00059233 	andeq	r9, r5, r3, lsr r2
    71f0:	001ada00 	andseq	sp, sl, r0, lsl #20
    71f4:	028d1100 	addeq	r1, sp, #0, 2
    71f8:	da110000 	ble	447200 <_end+0x4431f8>
    71fc:	1100001a 	tstne	r0, sl, lsl r0
    7200:	00000577 	andeq	r0, r0, r7, ror r5
    7204:	00057111 	andeq	r7, r5, r1, lsl r1
    7208:	040f0000 	streq	r0, [pc], #-0	; 7210 <_end+0x3208>
    720c:	00001ae0 	andeq	r1, r0, r0, ror #21
    7210:	0005821f 	andeq	r8, r5, pc, lsl r2
    7214:	23db4600 	bicscs	r4, fp, #0, 12
    7218:	d8040000 	stmdale	r4, {}	; <UNPREDICTABLE>
    721c:	000000bd 	strheq	r0, [r0], -sp
    7220:	00001aff 	strdeq	r1, [r0], -pc	; <UNPREDICTABLE>
    7224:	00039d11 	andeq	r9, r3, r1, lsl sp
    7228:	1aff1100 	bne	fffcb630 <_end+0xfffc7628>
    722c:	0f000000 	svceq	0x00000000
    7230:	00036804 	andeq	r6, r3, r4, lsl #16
    7234:	206d4700 	rsbcs	r4, sp, r0, lsl #14
    7238:	72010000 	andvc	r0, r1, #0
    723c:	00001b16 	andeq	r1, r0, r6, lsl fp
    7240:	001a0a11 	andseq	r0, sl, r1, lsl sl
    7244:	cc470000 	margt	acc0, r0, r7
    7248:	0100001a 	tsteq	r0, sl, lsl r0
    724c:	001b276a 	andseq	r2, fp, sl, ror #14
    7250:	1a0a1100 	bne	28b658 <_end+0x287650>
    7254:	47000000 	strmi	r0, [r0, -r0]
    7258:	000020c7 	andeq	r2, r0, r7, asr #1
    725c:	1b387701 	blne	e24e68 <_end+0xe20e60>
    7260:	32110000 	andscc	r0, r1, #0
    7264:	0000001a 	andeq	r0, r0, sl, lsl r0
    7268:	00212c47 	eoreq	r2, r1, r7, asr #24
    726c:	496c0100 	stmdbmi	ip!, {r8}^
    7270:	1100001b 	tstne	r0, fp, lsl r0
    7274:	00001a49 	andeq	r1, r0, r9, asr #20
    7278:	21144a00 	tstcs	r4, r0, lsl #20
    727c:	6e010000 	cdpvs	0, 0, cr0, cr1, cr0, {0}
    7280:	001a6011 	andseq	r6, sl, r1, lsl r0
    7284:	ec000000 	stc	0, cr0, [r0], {-0}
    7288:	02000000 	andeq	r0, r0, #0
    728c:	0006fb00 	andeq	pc, r6, r0, lsl #22
    7290:	97010400 	strls	r0, [r1, -r0, lsl #8]
    7294:	0800000a 	stmdaeq	r0, {r1, r3}
    7298:	b200001e 	andlt	r0, r0, #30
    729c:	2f00001f 	svccs	0x0000001f
    72a0:	756c6f56 	strbvc	r6, [ip, #-3926]!	; 0xfffff0aa
    72a4:	2f73656d 	svccs	0x0073656d
    72a8:	72646e41 	rsbvc	r6, r4, #1040	; 0x410
    72ac:	2f64696f 	svccs	0x0064696f
    72b0:	6c697562 	cfstr64vs	mvdx7, [r9], #-392	; 0xfffffe78
    72b4:	746f6264 	strbtvc	r6, [pc], #-612	; 72bc <_end+0x32b4>
    72b8:	6372732f 	cmnvs	r2, #-1140850688	; 0xbc000000
    72bc:	646e612f 	strbtvs	r6, [lr], #-303	; 0xfffffed1
    72c0:	64696f72 	strbtvs	r6, [r9], #-3954	; 0xfffff08e
    72c4:	6363672f 	cmnvs	r3, #12320768	; 0xbc0000
    72c8:	6f6f742f 	svcvs	0x006f742f
    72cc:	6168636c 	cmnvs	r8, ip, ror #6
    72d0:	622f6e69 	eorvs	r6, pc, #1680	; 0x690
    72d4:	646c6975 	strbtvs	r6, [ip], #-2421	; 0xfffff68b
    72d8:	2f2e2e2f 	svccs	0x002e2e2f
    72dc:	2f636367 	svccs	0x00636367
    72e0:	2d636367 	stclcs	3, cr6, [r3, #-412]!	; 0xfffffe64
    72e4:	2f392e34 	svccs	0x00392e34
    72e8:	6762696c 	strbvs	r6, [r2, -ip, ror #18]!
    72ec:	632f6363 			; <UNDEFINED> instruction: 0x632f6363
    72f0:	69666e6f 	stmdbvs	r6!, {r0, r1, r2, r3, r5, r6, r9, sl, fp, sp, lr}^
    72f4:	72612f67 	rsbvc	r2, r1, #412	; 0x19c
    72f8:	696c2f6d 	stmdbvs	ip!, {r0, r2, r3, r5, r6, r8, r9, sl, fp, sp}^
    72fc:	776e7562 	strbvc	r7, [lr, -r2, ror #10]!
    7300:	2e646e69 	cdpcs	14, 6, cr6, cr4, cr9, {3}
    7304:	562f0053 			; <UNDEFINED> instruction: 0x562f0053
    7308:	6d756c6f 	ldclvs	12, cr6, [r5, #-444]!	; 0xfffffe44
    730c:	412f7365 			; <UNDEFINED> instruction: 0x412f7365
    7310:	6f72646e 	svcvs	0x0072646e
    7314:	622f6469 	eorvs	r6, pc, #1761607680	; 0x69000000
    7318:	646c6975 	strbtvs	r6, [ip], #-2421	; 0xfffff68b
    731c:	2f746f62 	svccs	0x00746f62
    7320:	2f706d74 	svccs	0x00706d74
    7324:	6c697562 	cfstr64vs	mvdx7, [r9], #-392	; 0xfffffe78
    7328:	6f742f64 	svcvs	0x00742f64
    732c:	68636c6f 	stmdavs	r3!, {r0, r1, r2, r3, r5, r6, sl, fp, sp, lr}^
    7330:	2f6e6961 	svccs	0x006e6961
    7334:	2d636367 	stclcs	3, cr6, [r3, #-412]!	; 0xfffffe64
    7338:	2f392e34 	svccs	0x00392e34
    733c:	2d6d7261 	sfmcs	f7, 2, [sp, #-388]!	; 0xfffffe7c
    7340:	756e696c 	strbvc	r6, [lr, #-2412]!	; 0xfffff694
    7344:	6e612d78 	mcrvs	13, 3, r2, cr1, cr8, {3}
    7348:	696f7264 	stmdbvs	pc!, {r2, r5, r6, r9, ip, sp, lr}^	; <UNPREDICTABLE>
    734c:	62616564 	rsbvs	r6, r1, #100, 10	; 0x19000000
    7350:	72612f69 	rsbvc	r2, r1, #420	; 0x1a4
    7354:	2d37766d 	ldccs	6, cr7, [r7, #-436]!	; 0xfffffe4c
    7358:	68742f61 	ldmdavs	r4!, {r0, r5, r6, r8, r9, sl, fp, sp}^
    735c:	2f626d75 	svccs	0x00626d75
    7360:	6762696c 	strbvs	r6, [r2, -ip, ror #18]!
    7364:	47006363 	strmi	r6, [r0, -r3, ror #6]
    7368:	4120554e 			; <UNDEFINED> instruction: 0x4120554e
    736c:	2e322053 	mrccs	0, 1, r2, cr2, cr3, {2}
    7370:	302e3732 	eorcc	r3, lr, r2, lsr r7
    7374:	bd800100 	stflts	f0, [r0]
    7378:	04000008 	streq	r0, [r0], #-8
    737c:	00070f00 	andeq	r0, r7, r0, lsl #30
    7380:	70010400 	andvc	r0, r1, r0, lsl #8
    7384:	0100001e 	tsteq	r0, lr, lsl r0
    7388:	00002523 	andeq	r2, r0, r3, lsr #10
    738c:	00001fb4 			; <UNDEFINED> instruction: 0x00001fb4
    7390:	0000030e 	andeq	r0, r0, lr, lsl #6
    7394:	00000b7b 	andeq	r0, r0, fp, ror fp
    7398:	00220c02 	eoreq	r0, r2, r2, lsl #24
    739c:	2c230200 	sfmcs	f0, 4, [r3], #-0
    73a0:	03000000 	movweq	r0, #0
    73a4:	17f20704 	ldrbne	r0, [r2, r4, lsl #14]!
    73a8:	04040000 	streq	r0, [r4], #-0
    73ac:	746e6905 	strbtvc	r6, [lr], #-2309	; 0xfffff6fb
    73b0:	22830200 	addcs	r0, r3, #0, 4
    73b4:	25020000 	strcs	r0, [r2, #-0]
    73b8:	0000002c 	andeq	r0, r0, ip, lsr #32
    73bc:	77755f05 	ldrbvc	r5, [r5, -r5, lsl #30]!
    73c0:	21270200 			; <UNDEFINED> instruction: 0x21270200
    73c4:	03000000 	movweq	r0, #0
    73c8:	1ba70708 	blne	fe9c8ff0 <_end+0xfe9c4fe8>
    73cc:	02030000 	andeq	r0, r3, #0
    73d0:	00239407 	eoreq	r9, r3, r7, lsl #8
    73d4:	20680200 	rsbcs	r0, r8, r0, lsl #4
    73d8:	2a020000 	bcs	873e0 <_end+0x833d8>
    73dc:	00000069 	andeq	r0, r0, r9, rrx
    73e0:	d9080103 	stmdble	r8, {r0, r1, r8}
    73e4:	06000004 	streq	r0, [r0], -r4
    73e8:	a32d0204 			; <UNDEFINED> instruction: 0xa32d0204
    73ec:	07000000 	streq	r0, [r0, -r0]
    73f0:	000024ad 	andeq	r2, r0, sp, lsr #9
    73f4:	217b0700 	cmncs	fp, r0, lsl #14
    73f8:	07010000 	streq	r0, [r1, -r0]
    73fc:	000020e8 	andeq	r2, r0, r8, ror #1
    7400:	1e4a0705 	cdpne	7, 4, cr0, cr10, cr5, {0}
    7404:	07060000 	streq	r0, [r6, -r0]
    7408:	00001d12 	andeq	r1, r0, r2, lsl sp
    740c:	1c1b0707 	ldcne	7, cr0, [fp], {7}
    7410:	07080000 	streq	r0, [r8, -r0]
    7414:	00002458 	andeq	r2, r0, r8, asr r4
    7418:	1c020009 	stcne	0, cr0, [r2], {9}
    741c:	0200001e 	andeq	r0, r0, #30
    7420:	00007036 	andeq	r7, r0, r6, lsr r0
    7424:	1f7e0200 	svcne	0x007e0200
    7428:	4c020000 	stcmi	0, cr0, [r2], {-0}
    742c:	000000b9 	strheq	r0, [r0], -r9
    7430:	001f7e08 	andseq	r7, pc, r8, lsl #28
    7434:	53025800 	movwpl	r5, #10240	; 0x2800
    7438:	0000010e 	andeq	r0, r0, lr, lsl #2
    743c:	00200209 	eoreq	r0, r0, r9, lsl #4
    7440:	09550200 	ldmdbeq	r5, {r9}^
    7444:	00000002 	andeq	r0, r0, r2
    7448:	0018b309 	andseq	fp, r8, r9, lsl #6
    744c:	36560200 	ldrbcc	r0, [r6], -r0, lsl #4
    7450:	08000002 	stmdaeq	r0, {r1}
    7454:	001cf309 	andseq	pc, ip, r9, lsl #6
    7458:	29600200 	stmdbcs	r0!, {r9}^
    745c:	0c000001 	stceq	0, cr0, [r0], {1}
    7460:	00201a09 	eoreq	r1, r0, r9, lsl #20
    7464:	6e670200 	cdpvs	2, 6, cr0, cr7, cr0, {0}
    7468:	20000001 	andcs	r0, r0, r1
    746c:	001c4609 	andseq	r4, ip, r9, lsl #12
    7470:	a56d0200 	strbge	r0, [sp, #-512]!	; 0xfffffe00
    7474:	38000001 	stmdacc	r0, {r0}
    7478:	00229d09 	eoreq	r9, r2, r9, lsl #26
    747c:	ca760200 	bgt	1d87c84 <_end+0x1d83c7c>
    7480:	48000001 	stmdami	r0, {r0}
    7484:	1a320200 	bne	c87c8c <_end+0xc83c84>
    7488:	4d020000 	stcmi	0, cr0, [r2, #-0]
    748c:	00000119 	andeq	r0, r0, r9, lsl r1
    7490:	001a320a 	andseq	r3, sl, sl, lsl #4
    7494:	1af30200 	bne	ffcc7c9c <_end+0xffcc3c94>
    7498:	4e020000 	cdpmi	0, 0, cr0, cr2, cr0, {0}
    749c:	00000045 	andeq	r0, r0, r5, asr #32
    74a0:	5802140b 	stmdapl	r2, {r0, r1, r3, sl, ip}
    74a4:	0000016e 	andeq	r0, r0, lr, ror #2
    74a8:	0003f309 	andeq	pc, r3, r9, lsl #6
    74ac:	455a0200 	ldrbmi	r0, [sl, #-512]	; 0xfffffe00
    74b0:	00000000 	andeq	r0, r0, r0
    74b4:	0003fd09 	andeq	pc, r3, r9, lsl #26
    74b8:	455b0200 	ldrbmi	r0, [fp, #-512]	; 0xfffffe00
    74bc:	04000000 	streq	r0, [r0], #-0
    74c0:	00040709 	andeq	r0, r4, r9, lsl #14
    74c4:	455c0200 	ldrbmi	r0, [ip, #-512]	; 0xfffffe00
    74c8:	08000000 	stmdaeq	r0, {}	; <UNPREDICTABLE>
    74cc:	00216709 	eoreq	r6, r1, r9, lsl #14
    74d0:	455d0200 	ldrbmi	r0, [sp, #-512]	; 0xfffffe00
    74d4:	0c000000 	stceq	0, cr0, [r0], {-0}
    74d8:	00217109 	eoreq	r7, r1, r9, lsl #2
    74dc:	455e0200 	ldrbmi	r0, [lr, #-512]	; 0xfffffe00
    74e0:	10000000 	andne	r0, r0, r0
    74e4:	02180b00 	andseq	r0, r8, #0, 22
    74e8:	00018e62 	andeq	r8, r1, r2, ror #28
    74ec:	70730c00 	rsbsvc	r0, r3, r0, lsl #24
    74f0:	45640200 	strbmi	r0, [r4, #-512]!	; 0xfffffe00
    74f4:	00000000 	andeq	r0, r0, r0
    74f8:	00192b09 	andseq	r2, r9, r9, lsl #22
    74fc:	8e650200 	cdphi	2, 6, cr0, cr5, cr0, {0}
    7500:	04000001 	streq	r0, [r0], #-1
    7504:	00450d00 	subeq	r0, r5, r0, lsl #26
    7508:	019e0000 	orrseq	r0, lr, r0
    750c:	9e0e0000 	cdpls	0, 0, cr0, cr14, cr0, {0}
    7510:	04000001 	streq	r0, [r0], #-1
    7514:	07040300 	streq	r0, [r4, -r0, lsl #6]
    7518:	000002d5 	ldrdeq	r0, [r0], -r5
    751c:	6902100b 	stmdbvs	r2, {r0, r1, r3, ip}
    7520:	000001ba 			; <UNDEFINED> instruction: 0x000001ba
    7524:	00192b09 	andseq	r2, r9, r9, lsl #22
    7528:	ba6b0200 	blt	1ac7d30 <_end+0x1ac3d28>
    752c:	00000001 	andeq	r0, r0, r1
    7530:	00450d00 	subeq	r0, r5, r0, lsl #26
    7534:	01ca0000 	biceq	r0, sl, r0
    7538:	9e0e0000 	cdpls	0, 0, cr0, cr14, cr0, {0}
    753c:	03000001 	movweq	r0, #1
    7540:	02100b00 	andseq	r0, r0, #0, 22
    7544:	0002036f 	andeq	r0, r2, pc, ror #6
    7548:	22d70900 	sbcscs	r0, r7, #0, 18
    754c:	71020000 	mrsvc	r0, (UNDEF: 2)
    7550:	00000045 	andeq	r0, r0, r5, asr #32
    7554:	22720900 	rsbscs	r0, r2, #0, 18
    7558:	72020000 	andvc	r0, r2, #0
    755c:	00000203 	andeq	r0, r0, r3, lsl #4
    7560:	1f940904 	svcne	0x00940904
    7564:	73020000 	movwvc	r0, #8192	; 0x2000
    7568:	00000045 	andeq	r0, r0, r5, asr #32
    756c:	03f30908 	mvnseq	r0, #8, 18	; 0x20000
    7570:	74020000 	strvc	r0, [r2], #-0
    7574:	00000045 	andeq	r0, r0, r5, asr #32
    7578:	040f000c 	streq	r0, [pc], #-12	; 7580 <_end+0x3578>
    757c:	0000011e 	andeq	r0, r0, lr, lsl r1
    7580:	0002190d 	andeq	r1, r2, sp, lsl #18
    7584:	00021900 	andeq	r1, r2, r0, lsl #18
    7588:	019e0e00 	orrseq	r0, lr, r0, lsl #28
    758c:	00070000 	andeq	r0, r7, r0
    7590:	d0080103 	andle	r0, r8, r3, lsl #2
    7594:	10000002 	andne	r0, r0, r2
    7598:	00000230 	andeq	r0, r0, r0, lsr r2
    759c:	0000a311 	andeq	sl, r0, r1, lsl r3
    75a0:	02301100 	eorseq	r1, r0, #0, 2
    75a4:	0f000000 	svceq	0x00000000
    75a8:	0000ae04 	andeq	sl, r0, r4, lsl #28
    75ac:	20040f00 	andcs	r0, r4, r0, lsl #30
    75b0:	06000002 	streq	r0, [r0], -r2
    75b4:	637d0204 	cmnvs	sp, #4, 4	; 0x40000000
    75b8:	07000002 	streq	r0, [r0, -r2]
    75bc:	00001b83 	andeq	r1, r0, r3, lsl #23
    75c0:	20b20700 	adcscs	r0, r2, r0, lsl #14
    75c4:	07010000 	streq	r0, [r1, -r0]
    75c8:	0000243f 	andeq	r2, r0, pc, lsr r4
    75cc:	1b8f0702 	blne	fe3c91dc <_end+0xfe3c51d4>
    75d0:	07030000 	streq	r0, [r3, -r0]
    75d4:	00002375 	andeq	r2, r0, r5, ror r3
    75d8:	fd020004 	stc2	0, cr0, [r2, #-16]
    75dc:	02000018 	andeq	r0, r0, #24
    75e0:	00023c84 	andeq	r3, r2, r4, lsl #25
    75e4:	02040600 	andeq	r0, r4, #0, 12
    75e8:	00029b87 	andeq	r9, r2, r7, lsl #23
    75ec:	23b90700 			; <UNDEFINED> instruction: 0x23b90700
    75f0:	07000000 	streq	r0, [r0, -r0]
    75f4:	000018e1 	andeq	r1, r0, r1, ror #17
    75f8:	22190701 	andscs	r0, r9, #262144	; 0x40000
    75fc:	07020000 	streq	r0, [r2, -r0]
    7600:	00001a1e 	andeq	r1, r0, lr, lsl sl
    7604:	1d800703 	stcne	7, cr0, [r0, #12]
    7608:	07040000 	streq	r0, [r4, -r0]
    760c:	00001b17 	andeq	r1, r0, r7, lsl fp
    7610:	3f020005 	svccc	0x00020005
    7614:	02000022 	andeq	r0, r0, #34	; 0x22
    7618:	00026e8f 	andeq	r6, r2, pc, lsl #29
    761c:	02040600 	andeq	r0, r4, #0, 12
    7620:	0002c192 	muleq	r2, r2, r1
    7624:	19360700 	ldmdbne	r6!, {r8, r9, sl}
    7628:	07000000 	streq	r0, [r0, -r0]
    762c:	00002033 	andeq	r2, r0, r3, lsr r0
    7630:	23400701 	movtcs	r0, #1793	; 0x701
    7634:	00020000 	andeq	r0, r2, r0
    7638:	001d2702 	andseq	r2, sp, r2, lsl #14
    763c:	a6970200 	ldrge	r0, [r7], r0, lsl #4
    7640:	0b000002 	bleq	7650 <_end+0x3648>
    7644:	059a020c 	ldreq	r0, [sl, #524]	; 0x20c
    7648:	09000003 	stmdbeq	r0, {r0, r1}
    764c:	00001d9e 	muleq	r0, lr, sp
    7650:	00459d02 	subeq	r9, r5, r2, lsl #26
    7654:	09000000 	stmdbeq	r0, {}	; <UNPREDICTABLE>
    7658:	00001981 	andeq	r1, r0, r1, lsl #19
    765c:	03059f02 	movweq	r9, #24322	; 0x5f02
    7660:	09040000 	stmdbeq	r4, {}	; <UNPREDICTABLE>
    7664:	00001c30 	andeq	r1, r0, r0, lsr ip
    7668:	005ea102 	subseq	sl, lr, r2, lsl #2
    766c:	09080000 	stmdbeq	r8, {}	; <UNPREDICTABLE>
    7670:	000019fc 	strdeq	r1, [r0], -ip
    7674:	005ea302 	subseq	sl, lr, r2, lsl #6
    7678:	00090000 	andeq	r0, r9, r0
    767c:	0045040f 	subeq	r0, r5, pc, lsl #8
    7680:	9f020000 	svcls	0x00020000
    7684:	0200001f 	andeq	r0, r0, #31
    7688:	0002cca5 	andeq	ip, r2, r5, lsr #25
    768c:	0e040f00 	cdpeq	15, 0, cr0, cr4, cr0, {0}
    7690:	12000001 	andne	r0, r0, #1
    7694:	05040304 	streq	r0, [r4, #-772]	; 0xfffffcfc
    7698:	000020fa 	strdeq	r2, [r0], -sl
    769c:	2d070403 	cfstrscs	mvf0, [r7, #-12]
    76a0:	13000022 	movwne	r0, #34	; 0x22
    76a4:	0000244a 	andeq	r2, r0, sl, asr #8
    76a8:	0021dc02 	eoreq	sp, r1, r2, lsl #24
    76ac:	5e030000 	cdppl	0, 0, cr0, cr3, cr0, {0}
    76b0:	14000003 	strne	r0, [r0], #-3
    76b4:	00001e68 	andeq	r1, r0, r8, ror #28
    76b8:	0316dc02 	tsteq	r6, #512	; 0x200
    76bc:	c2140000 	andsgt	r0, r4, #0
    76c0:	0200001f 	andeq	r0, r0, #31
    76c4:	000033dc 	ldrdeq	r3, [r0], -ip
    76c8:	61761500 	cmnvs	r6, r0, lsl #10
    76cc:	de02006c 	cdple	0, 0, cr0, cr2, cr12, {3}
    76d0:	00000045 	andeq	r0, r0, r5, asr #32
    76d4:	25121600 	ldrcs	r1, [r2, #-1536]	; 0xfffffa00
    76d8:	50010000 	andpl	r0, r1, r0
    76dc:	0000005e 	andeq	r0, r0, lr, asr r0
    76e0:	00001fb4 			; <UNDEFINED> instruction: 0x00001fb4
    76e4:	0000002c 	andeq	r0, r0, ip, lsr #32
    76e8:	03949c01 	orrseq	r9, r4, #256	; 0x100
    76ec:	75170000 	ldrvc	r0, [r7, #-0]
    76f0:	01007377 	tsteq	r0, r7, ror r3
    76f4:	00039450 	andeq	r9, r3, r0, asr r4
    76f8:	0014d100 	andseq	sp, r4, r0, lsl #2
    76fc:	00621800 	rsbeq	r1, r2, r0, lsl #16
    7700:	005e5201 	subseq	r5, lr, r1, lsl #4
    7704:	150b0000 	strne	r0, [fp, #-0]
    7708:	0f000000 	svceq	0x00000000
    770c:	00030b04 	andeq	r0, r3, r4, lsl #22
    7710:	032c1900 			; <UNDEFINED> instruction: 0x032c1900
    7714:	1fe00000 	svcne	0x00e00000
    7718:	00180000 	andseq	r0, r8, r0
    771c:	9c010000 	stcls	0, cr0, [r1], {-0}
    7720:	000003ec 	andeq	r0, r0, ip, ror #7
    7724:	00033c1a 	andeq	r3, r3, sl, lsl ip
    7728:	00152200 	andseq	r2, r5, r0, lsl #4
    772c:	03521b00 	cmpeq	r2, #0, 22
    7730:	91020000 	mrsls	r0, (UNDEF: 2)
    7734:	03471c74 	movteq	r1, #31860	; 0x7c74
    7738:	1d0c0000 	stcne	0, cr0, [ip, #-0]
    773c:	00001ff0 	strdeq	r1, [r0], -r0
    7740:	00000843 	andeq	r0, r0, r3, asr #16
    7744:	0153011e 	cmpeq	r3, lr, lsl r1
    7748:	52011e30 	andpl	r1, r1, #48, 28	; 0x300
    774c:	011e3c01 	tsteq	lr, r1, lsl #24
    7750:	1e300151 	mrcne	1, 1, r0, cr0, cr1, {2}
    7754:	f3035001 	vhadd.u8	d5, d3, d1
    7758:	021e5001 	andseq	r5, lr, #1
    775c:	9102007d 	tstls	r2, sp, ror r0
    7760:	1f000074 	svcne	0x00000074
    7764:	000025a2 	andeq	r2, r0, r2, lsr #11
    7768:	30015101 	andcc	r5, r1, r1, lsl #2
    776c:	f8000002 			; <UNDEFINED> instruction: 0xf8000002
    7770:	0200001f 	andeq	r0, r0, #31
    7774:	01000000 	mrseq	r0, (UNDEF: 0)
    7778:	0004289c 	muleq	r4, ip, r8
    777c:	1e682000 	cdpne	0, 6, cr2, cr8, cr0, {0}
    7780:	51010000 	mrspl	r0, (UNDEF: 1)
    7784:	00031601 	andeq	r1, r3, r1, lsl #12
    7788:	00154300 	andseq	r4, r5, r0, lsl #6
    778c:	1ffa2100 	svcne	0x00fa2100
    7790:	039a0000 	orrseq	r0, sl, #0
    7794:	011e0000 	tsteq	lr, r0
    7798:	01f30350 	mvnseq	r0, r0, asr r3
    779c:	22000050 	andcs	r0, r0, #80	; 0x50
    77a0:	000023db 	ldrdeq	r2, [r0], -fp
    77a4:	00a3d802 	adceq	sp, r3, r2, lsl #16
    77a8:	1ffa0000 	svcne	0x00fa0000
    77ac:	02760000 	rsbseq	r0, r6, #0
    77b0:	9c010000 	stcls	0, cr0, [r1], {-0}
    77b4:	000006c7 	andeq	r0, r0, r7, asr #13
    77b8:	001e6823 	andseq	r6, lr, r3, lsr #16
    77bc:	16680100 	strbtne	r0, [r8], -r0, lsl #2
    77c0:	64000003 	strvs	r0, [r0], #-3
    77c4:	17000015 	smladne	r0, r5, r0, r0
    77c8:	00737775 	rsbseq	r7, r3, r5, ror r7
    77cc:	03946801 	orrseq	r6, r4, #65536	; 0x10000
    77d0:	15cf0000 	strbne	r0, [pc]	; 77d8 <_end+0x37d0>
    77d4:	6f180000 	svcvs	0x00180000
    77d8:	6a010070 	bvs	479a0 <_end+0x43998>
    77dc:	00000045 	andeq	r0, r0, r5, asr #32
    77e0:	000015ed 	andeq	r1, r0, sp, ror #11
    77e4:	0025d124 	eoreq	sp, r5, r4, lsr #2
    77e8:	336b0100 	cmncc	fp, #0, 2
    77ec:	28000000 	stmdacs	r0, {}	; <UNPREDICTABLE>
    77f0:	25000018 	strcs	r0, [r0, #-24]	; 0xffffffe8
    77f4:	00676572 	rsbeq	r6, r7, r2, ror r5
    77f8:	00456c01 	subeq	r6, r5, r1, lsl #24
    77fc:	91020000 	mrsls	r0, (UNDEF: 2)
    7800:	2042265c 	subcs	r2, r2, ip, asr r6
    7804:	00340000 	eorseq	r0, r4, r0
    7808:	04d50000 	ldrbeq	r0, [r5], #0
    780c:	be240000 	cdplt	0, 2, cr0, cr4, cr0, {0}
    7810:	0100001b 	tsteq	r0, fp, lsl r0
    7814:	00004583 	andeq	r4, r0, r3, lsl #11
    7818:	00185200 	andseq	r5, r8, r0, lsl #4
    781c:	20581d00 	subscs	r1, r8, r0, lsl #26
    7820:	08430000 	stmdaeq	r3, {}^	; <UNPREDICTABLE>
    7824:	011e0000 	tsteq	lr, r0
    7828:	00740553 	rsbseq	r0, r4, r3, asr r5
    782c:	1e1a8008 	cdpne	0, 1, cr8, cr10, cr8, {0}
    7830:	3d015201 	sfmcc	f5, 4, [r1, #-4]
    7834:	0551011e 	ldrbeq	r0, [r1, #-286]	; 0xfffffee2
    7838:	80080074 	andhi	r0, r8, r4, ror r0
    783c:	50011e1a 	andpl	r1, r1, sl, lsl lr
    7840:	1e007502 	cfsh32ne	mvfx7, mvfx0, #2
    7844:	02007d02 	andeq	r7, r0, #2, 26	; 0x80
    7848:	00000079 	andeq	r0, r0, r9, ror r0
    784c:	0020e626 	eoreq	lr, r0, r6, lsr #12
    7850:	00001e00 	andeq	r1, r0, r0, lsl #28
    7854:	0004f200 	andeq	pc, r4, r0, lsl #4
    7858:	19972400 	ldmibne	r7, {sl, sp}
    785c:	ae010000 	cdpge	0, 0, cr0, cr1, cr0, {0}
    7860:	00000045 	andeq	r0, r0, r5, asr #32
    7864:	00001865 	andeq	r1, r0, r5, ror #16
    7868:	21282600 			; <UNDEFINED> instruction: 0x21282600
    786c:	004c0000 	subeq	r0, ip, r0
    7870:	055d0000 	ldrbeq	r0, [sp, #-0]
    7874:	d8240000 	stmdale	r4!, {}	; <UNPREDICTABLE>
    7878:	01000025 	tsteq	r0, r5, lsr #32
    787c:	000033ca 	andeq	r3, r0, sl, asr #7
    7880:	00187800 	andseq	r7, r8, r0, lsl #16
    7884:	21382700 	teqcs	r8, r0, lsl #14
    7888:	08430000 	stmdaeq	r3, {}^	; <UNPREDICTABLE>
    788c:	05380000 	ldreq	r0, [r8, #-0]!
    7890:	011e0000 	tsteq	lr, r0
    7894:	1e300153 	mrcne	1, 1, r0, cr0, cr3, {2}
    7898:	3d015201 	sfmcc	f5, 4, [r1, #-4]
    789c:	0151011e 	cmpeq	r1, lr, lsl r1
    78a0:	50011e30 	andpl	r1, r1, r0, lsr lr
    78a4:	1e007502 	cfsh32ne	mvfx7, mvfx0, #2
    78a8:	02007d02 	andeq	r7, r0, #2, 26	; 0x80
    78ac:	27000074 	smlsdxcs	r0, r4, r0, r0
    78b0:	0000213e 	andeq	r2, r0, lr, lsr r1
    78b4:	0000035e 	andeq	r0, r0, lr, asr r3
    78b8:	0000054c 	andeq	r0, r0, ip, asr #10
    78bc:	0250011e 	subseq	r0, r0, #-2147483641	; 0x80000007
    78c0:	1d000077 	stcne	0, cr0, [r0, #-476]	; 0xfffffe24
    78c4:	00002160 	andeq	r2, r0, r0, ror #2
    78c8:	0000035e 	andeq	r0, r0, lr, asr r3
    78cc:	0250011e 	subseq	r0, r0, #-2147483641	; 0x80000007
    78d0:	00000077 	andeq	r0, r0, r7, ror r0
    78d4:	00200c27 	eoreq	r0, r0, r7, lsr #24
    78d8:	00035e00 	andeq	r5, r3, r0, lsl #28
    78dc:	00057100 	andeq	r7, r5, r0, lsl #2
    78e0:	50011e00 	andpl	r1, r1, r0, lsl #28
    78e4:	00007702 	andeq	r7, r0, r2, lsl #14
    78e8:	00202827 	eoreq	r2, r0, r7, lsr #16
    78ec:	00084300 	andeq	r4, r8, r0, lsl #6
    78f0:	00059d00 	andeq	r9, r5, r0, lsl #26
    78f4:	53011e00 	movwpl	r1, #7680	; 0x1e00
    78f8:	1e007602 	cfmadd32ne	mvax0, mvfx7, mvfx0, mvfx2
    78fc:	3e015201 	cdpcc	2, 0, cr5, cr1, cr1, {0}
    7900:	0251011e 	subseq	r0, r1, #-2147483641	; 0x80000007
    7904:	011e0076 	tsteq	lr, r6, ror r0
    7908:	00750250 	rsbseq	r0, r5, r0, asr r2
    790c:	007d021e 	rsbseq	r0, sp, lr, lsl r2
    7910:	00007402 	andeq	r7, r0, r2, lsl #8
    7914:	00203627 	eoreq	r3, r0, r7, lsr #12
    7918:	00086c00 	andeq	r6, r8, r0, lsl #24
    791c:	0005c900 	andeq	ip, r5, r0, lsl #18
    7920:	53011e00 	movwpl	r1, #7680	; 0x1e00
    7924:	1e007602 	cfmadd32ne	mvax0, mvfx7, mvfx0, mvfx2
    7928:	3f015201 	svccc	0x00015201
    792c:	0251011e 	subseq	r0, r1, #-2147483641	; 0x80000007
    7930:	011e0076 	tsteq	lr, r6, ror r0
    7934:	00750250 	rsbseq	r0, r5, r0, asr r2
    7938:	007d021e 	rsbseq	r0, sp, lr, lsl r2
    793c:	00007402 	andeq	r7, r0, r2, lsl #8
    7940:	00208627 	eoreq	r8, r0, r7, lsr #12
    7944:	00035e00 	andeq	r5, r3, r0, lsl #28
    7948:	0005dd00 	andeq	sp, r5, r0, lsl #26
    794c:	50011e00 	andpl	r1, r1, r0, lsl #28
    7950:	00007702 	andeq	r7, r0, r2, lsl #14
    7954:	0020a027 	eoreq	sl, r0, r7, lsr #32
    7958:	00089500 	andeq	r9, r8, r0, lsl #10
    795c:	00060500 	andeq	r0, r6, r0, lsl #10
    7960:	53011e00 	movwpl	r1, #7680	; 0x1e00
    7964:	011e3001 	tsteq	lr, r1
    7968:	00740652 	rsbseq	r0, r4, r2, asr r6
    796c:	1affff0a 	bne	759c <_end+0x3594>
    7970:	0151011e 	cmpeq	r1, lr, lsl r1
    7974:	50011e30 	andpl	r1, r1, r0, lsr lr
    7978:	00007502 	andeq	r7, r0, r2, lsl #10
    797c:	0020d027 	eoreq	sp, r0, r7, lsr #32
    7980:	00084300 	andeq	r4, r8, r0, lsl #6
    7984:	00063200 	andeq	r3, r6, r0, lsl #4
    7988:	53011e00 	movwpl	r1, #7680	; 0x1e00
    798c:	011e3001 	tsteq	lr, r1
    7990:	00740452 	rsbseq	r0, r4, r2, asr r4
    7994:	011e1a3f 	tsteq	lr, pc, lsr sl
    7998:	1e300151 	mrcne	1, 1, r0, cr0, cr1, {2}
    799c:	75025001 	strvc	r5, [r2, #-1]
    79a0:	7d021e00 	stcvc	14, cr1, [r2, #-0]
    79a4:	00780200 	rsbseq	r0, r8, r0, lsl #4
    79a8:	20e02700 	rsccs	r2, r0, r0, lsl #14
    79ac:	086c0000 	stmdaeq	ip!, {}^	; <UNPREDICTABLE>
    79b0:	06450000 	strbeq	r0, [r5], -r0
    79b4:	011e0000 	tsteq	lr, r0
    79b8:	003d0152 	eorseq	r0, sp, r2, asr r1
    79bc:	00211227 	eoreq	r1, r1, r7, lsr #4
    79c0:	00035e00 	andeq	r5, r3, r0, lsl #28
    79c4:	00065900 	andeq	r5, r6, r0, lsl #18
    79c8:	50011e00 	andpl	r1, r1, r0, lsl #28
    79cc:	00007702 	andeq	r7, r0, r2, lsl #14
    79d0:	00217e27 	eoreq	r7, r1, r7, lsr #28
    79d4:	00035e00 	andeq	r5, r3, r0, lsl #28
    79d8:	00066d00 	andeq	r6, r6, r0, lsl #26
    79dc:	50011e00 	andpl	r1, r1, r0, lsl #28
    79e0:	00007702 	andeq	r7, r0, r2, lsl #14
    79e4:	0021b627 	eoreq	fp, r1, r7, lsr #12
    79e8:	00035e00 	andeq	r5, r3, r0, lsl #28
    79ec:	00068100 	andeq	r8, r6, r0, lsl #2
    79f0:	50011e00 	andpl	r1, r1, r0, lsl #28
    79f4:	00007702 	andeq	r7, r0, r2, lsl #14
    79f8:	0021d427 	eoreq	sp, r1, r7, lsr #8
    79fc:	00035e00 	andeq	r5, r3, r0, lsl #28
    7a00:	00069500 	andeq	r9, r6, r0, lsl #10
    7a04:	50011e00 	andpl	r1, r1, r0, lsl #28
    7a08:	00007702 	andeq	r7, r0, r2, lsl #14
    7a0c:	00220c27 	eoreq	r0, r2, r7, lsr #24
    7a10:	00035e00 	andeq	r5, r3, r0, lsl #28
    7a14:	0006a900 	andeq	sl, r6, r0, lsl #18
    7a18:	50011e00 	andpl	r1, r1, r0, lsl #28
    7a1c:	00007702 	andeq	r7, r0, r2, lsl #14
    7a20:	00222e27 	eoreq	r2, r2, r7, lsr #28
    7a24:	00035e00 	andeq	r5, r3, r0, lsl #28
    7a28:	0006bd00 	andeq	fp, r6, r0, lsl #26
    7a2c:	50011e00 	andpl	r1, r1, r0, lsl #28
    7a30:	00007702 	andeq	r7, r0, r2, lsl #14
    7a34:	00226028 	eoreq	r6, r2, r8, lsr #32
    7a38:	00089500 	andeq	r9, r8, r0, lsl #10
    7a3c:	df220000 	svcle	0x00220000
    7a40:	02000024 	andeq	r0, r0, #36	; 0x24
    7a44:	0000a3d6 	ldrdeq	sl, [r0], -r6
    7a48:	00227000 	eoreq	r7, r2, r0
    7a4c:	00002a00 	andeq	r2, r0, r0, lsl #20
    7a50:	379c0100 	ldrcc	r0, [ip, r0, lsl #2]
    7a54:	20000007 	andcs	r0, r0, r7
    7a58:	00002207 	andeq	r2, r0, r7, lsl #4
    7a5c:	30013d01 	andcc	r3, r1, r1, lsl #26
    7a60:	97000002 	strls	r0, [r0, -r2]
    7a64:	20000018 	andcs	r0, r0, r8, lsl r0
    7a68:	00001e68 	andeq	r1, r0, r8, ror #28
    7a6c:	16013d01 	strne	r3, [r1], -r1, lsl #26
    7a70:	b8000003 	stmdalt	r0, {r0, r1}
    7a74:	29000018 	stmdbcs	r0, {r3, r4}
    7a78:	00727470 	rsbseq	r7, r2, r0, ror r4
    7a7c:	05013f01 	streq	r3, [r1, #-3841]	; 0xfffff0ff
    7a80:	e4000003 	str	r0, [r0], #-3
    7a84:	2a000018 	bcs	7aec <_end+0x3ae4>
    7a88:	00737775 	rsbseq	r7, r3, r5, ror r7
    7a8c:	0b014001 	bleq	57a98 <_end+0x53a90>
    7a90:	02000003 	andeq	r0, r0, #3
    7a94:	941d6c91 	ldrls	r6, [sp], #-3217	; 0xfffff36f
    7a98:	28000022 	stmdacs	r0, {r1, r5}
    7a9c:	1e000004 	cdpne	0, 0, cr0, cr0, cr4, {0}
    7aa0:	91025101 	tstls	r2, r1, lsl #2
    7aa4:	50011e6c 	andpl	r1, r1, ip, ror #28
    7aa8:	5101f303 	tstpl	r1, r3, lsl #6	; <UNPREDICTABLE>
    7aac:	c8220000 	stmdagt	r2!, {}	; <UNPREDICTABLE>
    7ab0:	02000024 	andeq	r0, r0, #36	; 0x24
    7ab4:	00003aec 	andeq	r3, r0, ip, ror #21
    7ab8:	00229a00 	eoreq	r9, r2, r0, lsl #20
    7abc:	00000a00 	andeq	r0, r0, r0, lsl #20
    7ac0:	829c0100 	addshi	r0, ip, #0, 2
    7ac4:	20000007 	andcs	r0, r0, r7
    7ac8:	00001e68 	andeq	r1, r0, r8, ror #28
    7acc:	16015901 	strne	r5, [r1], -r1, lsl #18
    7ad0:	09000003 	stmdbeq	r0, {r0, r1}
    7ad4:	2b000019 	blcs	7b40 <_end+0x3b38>
    7ad8:	00002207 	andeq	r2, r0, r7, lsl #4
    7adc:	30015b01 	andcc	r5, r1, r1, lsl #22
    7ae0:	2a000002 	bcs	7af0 <_end+0x3ae8>
    7ae4:	1d000019 	stcne	0, cr0, [r0, #-100]	; 0xffffff9c
    7ae8:	000022a0 	andeq	r2, r0, r0, lsr #5
    7aec:	000003ec 	andeq	r0, r0, ip, ror #7
    7af0:	0350011e 	cmpeq	r0, #-2147483641	; 0x80000007
    7af4:	005001f3 	ldrsheq	r0, [r0], #-19	; 0xffffffed
    7af8:	24f22200 	ldrbtcs	r2, [r2], #512	; 0x200
    7afc:	ed020000 	stc	0, cr0, [r2, #-0]
    7b00:	0000031c 	andeq	r0, r0, ip, lsl r3
    7b04:	000022a4 	andeq	r2, r0, r4, lsr #5
    7b08:	00000012 	andeq	r0, r0, r2, lsl r0
    7b0c:	07dd9c01 	ldrbeq	r9, [sp, r1, lsl #24]
    7b10:	68200000 	stmdavs	r0!, {}	; <UNPREDICTABLE>
    7b14:	0100001e 	tsteq	r0, lr, lsl r0
    7b18:	03160164 	tsteq	r6, #100, 2
    7b1c:	193d0000 	ldmdbne	sp!, {}	; <UNPREDICTABLE>
    7b20:	072b0000 	streq	r0, [fp, -r0]!
    7b24:	01000022 	tsteq	r0, r2, lsr #32
    7b28:	02300166 	eorseq	r0, r0, #-2147483623	; 0x80000019
    7b2c:	195e0000 	ldmdbne	lr, {}^	; <UNPREDICTABLE>
    7b30:	70290000 	eorvc	r0, r9, r0
    7b34:	01007274 	tsteq	r0, r4, ror r2
    7b38:	03050167 	movweq	r0, #20839	; 0x5167
    7b3c:	19710000 	ldmdbne	r1!, {}^	; <UNPREDICTABLE>
    7b40:	aa1d0000 	bge	747b48 <_end+0x743b40>
    7b44:	ec000022 	stc	0, cr0, [r0], {34}	; 0x22
    7b48:	1e000003 	cdpne	0, 0, cr0, cr0, cr3, {0}
    7b4c:	f3035001 	vhadd.u8	d5, d3, d1
    7b50:	00005001 	andeq	r5, r0, r1
    7b54:	00258b22 	eoreq	r8, r5, r2, lsr #22
    7b58:	3abd0200 	bcc	fef48360 <_end+0xfef44358>
    7b5c:	b6000000 	strlt	r0, [r0], -r0
    7b60:	06000022 	streq	r0, [r0], -r2, lsr #32
    7b64:	01000000 	mrseq	r0, (UNDEF: 0)
    7b68:	0008109c 	muleq	r8, ip, r0
    7b6c:	1e682000 	cdpne	0, 6, cr2, cr8, cr0, {0}
    7b70:	78010000 	stmdavc	r1, {}	; <UNPREDICTABLE>
    7b74:	00031601 	andeq	r1, r3, r1, lsl #12
    7b78:	00199f00 	andseq	r9, r9, r0, lsl #30
    7b7c:	22bc2800 	adcscs	r2, ip, #0, 16
    7b80:	08b90000 	ldmeq	r9!, {}	; <UNPREDICTABLE>
    7b84:	22000000 	andcs	r0, r0, #0
    7b88:	000025ba 			; <UNDEFINED> instruction: 0x000025ba
    7b8c:	003abf02 	eorseq	fp, sl, r2, lsl #30
    7b90:	22bc0000 	adcscs	r0, ip, #0
    7b94:	00060000 	andeq	r0, r6, r0
    7b98:	9c010000 	stcls	0, cr0, [r1], {-0}
    7b9c:	00000843 	andeq	r0, r0, r3, asr #16
    7ba0:	001e6820 	andseq	r6, lr, r0, lsr #16
    7ba4:	017e0100 	cmneq	lr, r0, lsl #2
    7ba8:	00000316 	andeq	r0, r0, r6, lsl r3
    7bac:	000019c0 	andeq	r1, r0, r0, asr #19
    7bb0:	0022c228 	eoreq	ip, r2, r8, lsr #4
    7bb4:	0008b900 	andeq	fp, r8, r0, lsl #18
    7bb8:	072c0000 	streq	r0, [ip, -r0]!
    7bbc:	02000024 	andeq	r0, r0, #36	; 0x24
    7bc0:	0002c1ae 	andeq	ip, r2, lr, lsr #3
    7bc4:	00086c00 	andeq	r6, r8, r0, lsl #24
    7bc8:	03161100 	tsteq	r6, #0, 2
    7bcc:	63110000 	tstvs	r1, #0
    7bd0:	11000002 	tstne	r0, r2
    7bd4:	00000045 	andeq	r0, r0, r5, asr #32
    7bd8:	00029b11 	andeq	r9, r2, r1, lsl fp
    7bdc:	031c1100 	tsteq	ip, #0, 2
    7be0:	2c000000 	stccs	0, cr0, [r0], {-0}
    7be4:	000019a5 	andeq	r1, r0, r5, lsr #19
    7be8:	02c1aa02 	sbceq	sl, r1, #8192	; 0x2000
    7bec:	08950000 	ldmeq	r5, {}	; <UNPREDICTABLE>
    7bf0:	16110000 	ldrne	r0, [r1], -r0
    7bf4:	11000003 	tstne	r0, r3
    7bf8:	00000263 	andeq	r0, r0, r3, ror #4
    7bfc:	00004511 	andeq	r4, r0, r1, lsl r5
    7c00:	029b1100 	addseq	r1, fp, #0, 2
    7c04:	1c110000 	ldcne	0, cr0, [r1], {-0}
    7c08:	00000003 	andeq	r0, r0, r3
    7c0c:	001fb22c 	andseq	fp, pc, ip, lsr #4
    7c10:	c1b20200 			; <UNDEFINED> instruction: 0xc1b20200
    7c14:	b9000002 	stmdblt	r0, {r1}
    7c18:	11000008 	tstne	r0, r8
    7c1c:	00000316 	andeq	r0, r0, r6, lsl r3
    7c20:	00026311 	andeq	r6, r2, r1, lsl r3
    7c24:	00451100 	subeq	r1, r5, r0, lsl #2
    7c28:	9b110000 	blls	447c30 <_end+0x443c28>
    7c2c:	00000002 	andeq	r0, r0, r2
    7c30:	001c152d 	andseq	r1, ip, sp, lsr #10
    7c34:	001c0100 	andseq	r0, ip, r0, lsl #2

Disassembly of section .debug_ranges:

00000000 <.debug_ranges>:
   0:	00000a5c 	andeq	r0, r0, ip, asr sl
   4:	00000b90 	muleq	r0, r0, fp
   8:	00000b90 	muleq	r0, r0, fp
   c:	00000cc4 	andeq	r0, r0, r4, asr #25
  10:	00000cc4 	andeq	r0, r0, r4, asr #25
  14:	00000d08 	andeq	r0, r0, r8, lsl #26
  18:	00000d08 	andeq	r0, r0, r8, lsl #26
  1c:	0000100c 	andeq	r1, r0, ip
  20:	0000100c 	andeq	r1, r0, ip
  24:	0000105c 	andeq	r1, r0, ip, asr r0
  28:	0000105c 	andeq	r1, r0, ip, asr r0
  2c:	000010a4 	andeq	r1, r0, r4, lsr #1
  30:	000010a4 	andeq	r1, r0, r4, lsr #1
  34:	000012e8 	andeq	r1, r0, r8, ror #5
  38:	000012e8 	andeq	r1, r0, r8, ror #5
  3c:	0000143c 	andeq	r1, r0, ip, lsr r4
  40:	0000143c 	andeq	r1, r0, ip, lsr r4
  44:	00001470 	andeq	r1, r0, r0, ror r4
  48:	00001470 	andeq	r1, r0, r0, ror r4
  4c:	000014b0 			; <UNDEFINED> instruction: 0x000014b0
	...
  58:	00000120 	andeq	r0, r0, r0, lsr #2
  5c:	00000128 	andeq	r0, r0, r8, lsr #2
  60:	0000012a 	andeq	r0, r0, sl, lsr #2
  64:	0000012c 	andeq	r0, r0, ip, lsr #2
  68:	00000132 	andeq	r0, r0, r2, lsr r1
  6c:	00000134 	andeq	r0, r0, r4, lsr r1
	...
  78:	00000202 	andeq	r0, r0, r2, lsl #4
  7c:	00000206 	andeq	r0, r0, r6, lsl #4
  80:	0000021c 	andeq	r0, r0, ip, lsl r2
  84:	00000280 	andeq	r0, r0, r0, lsl #5
  88:	00000296 	muleq	r0, r6, r2
  8c:	0000029c 	muleq	r0, ip, r2
	...
  98:	000004ee 	andeq	r0, r0, lr, ror #9
  9c:	00000688 	andeq	r0, r0, r8, lsl #13
  a0:	000006ce 	andeq	r0, r0, lr, asr #13
  a4:	000006e4 	andeq	r0, r0, r4, ror #13
	...
  b0:	000005fc 	strdeq	r0, [r0], -ip
  b4:	00000600 	andeq	r0, r0, r0, lsl #12
  b8:	00000602 	andeq	r0, r0, r2, lsl #12
  bc:	0000062e 	andeq	r0, r0, lr, lsr #12
  c0:	000006d2 	ldrdeq	r0, [r0], -r2
  c4:	000006e4 	andeq	r0, r0, r4, ror #13
	...
  d0:	00000716 	andeq	r0, r0, r6, lsl r7
  d4:	00000744 	andeq	r0, r0, r4, asr #14
  d8:	000007fc 	strdeq	r0, [r0], -ip
  dc:	00000800 	andeq	r0, r0, r0, lsl #16
	...
  e8:	00000744 	andeq	r0, r0, r4, asr #14
  ec:	0000075c 	andeq	r0, r0, ip, asr r7
  f0:	000007f2 	strdeq	r0, [r0], -r2
  f4:	000007fc 	strdeq	r0, [r0], -ip
  f8:	00000800 	andeq	r0, r0, r0, lsl #16
  fc:	00000812 	andeq	r0, r0, r2, lsl r8
 100:	00000816 	andeq	r0, r0, r6, lsl r8
 104:	00000924 	andeq	r0, r0, r4, lsr #18
	...

Disassembly of section .debug_macinfo:

00000000 <.debug_macinfo>:
	...

Disassembly of section .debug_pubnames:

00000000 <.debug_pubnames>:
   0:	00000109 	andeq	r0, r0, r9, lsl #2
   4:	00000002 	andeq	r0, r0, r2
   8:	2e810000 	cdpcs	0, 8, cr0, cr1, cr0, {0}
   c:	04860000 	streq	r0, [r6], #0
  10:	614a0000 	mrsvs	r0, (UNDEF: 74)
  14:	635f6176 	cmpvs	pc, #-2147483619	; 0x8000001d
  18:	635f6d6f 	cmpvs	pc, #7104	; 0x1bc0
  1c:	68736172 	ldmdavs	r3!, {r1, r4, r5, r6, r8, sp, lr}^
  20:	7365745f 	cmnvc	r5, #1593835520	; 0x5f000000
  24:	65485f74 	strbvs	r5, [r8, #-3956]	; 0xfffff08c
  28:	4a6f6c6c 	bmi	1bdb1e0 <_end+0x1bd71d8>
  2c:	6e5f696e 	vnmlavs.f16	s13, s30, s29	; <UNPREDICTABLE>
  30:	76697461 	strbtvc	r7, [r9], -r1, ror #8
  34:	67734d65 	ldrbvs	r4, [r3, -r5, ror #26]!
  38:	00008700 	andeq	r8, r0, r0, lsl #14
  3c:	73657400 	cmnvc	r5, #0, 8
  40:	646f6374 	strbtvs	r6, [pc], #-884	; 48 <note_android_ident-0xec>
  44:	54003665 	strpl	r3, [r0], #-1637	; 0xfffff99b
  48:	74000001 	strvc	r0, [r0], #-1
  4c:	50747365 	rsbspl	r7, r4, r5, ror #6
  50:	6d617261 	sfmvs	f7, 2, [r1, #-388]!	; 0xfffffe7c
  54:	72657465 	rsbvc	r7, r5, #1694498816	; 0x65000000
  58:	00059400 	andeq	r9, r5, r0, lsl #8
  5c:	73657400 	cmnvc	r5, #0, 8
  60:	506f4e74 	rsbpl	r4, pc, r4, ror lr	; <UNPREDICTABLE>
  64:	00617261 	rsbeq	r7, r1, r1, ror #4
  68:	00000134 	andeq	r0, r0, r4, lsr r1
  6c:	74736574 	ldrbtvc	r6, [r3], #-1396	; 0xfffffa8c
  70:	50656e4f 	rsbpl	r6, r5, pc, asr #28
  74:	00617261 	rsbeq	r7, r1, r1, ror #4
  78:	00000466 	andeq	r0, r0, r6, ror #8
  7c:	74736574 	ldrbtvc	r6, [r3], #-1396	; 0xfffffa8c
  80:	69727453 	ldmdbvs	r2!, {r0, r1, r4, r6, sl, ip, sp, lr}^
  84:	4600676e 	strmi	r6, [r0], -lr, ror #14
  88:	77000004 	strvc	r0, [r0, -r4]
  8c:	436c6c69 	cmnmi	ip, #26880	; 0x6900
  90:	68736172 	ldmdavs	r3!, {r1, r4, r5, r6, r8, sp, lr}^
  94:	0000dc00 	andeq	sp, r0, r0, lsl #24
  98:	73657400 	cmnvc	r5, #0, 8
  9c:	6f725074 	svcvs	0x00725074
  a0:	74726570 	ldrbtvc	r6, [r2], #-1392	; 0xfffffa90
  a4:	00736569 	rsbseq	r6, r3, r9, ror #10
  a8:	000004f2 	strdeq	r0, [r0], -r2
  ac:	6176614a 	cmnvs	r6, sl, asr #2
  b0:	6d6f635f 	stclvs	3, cr6, [pc, #-380]!	; ffffff3c <_end+0xffffbf34>
  b4:	6172635f 	cmnvs	r2, pc, asr r3
  b8:	745f6873 	ldrbvc	r6, [pc], #-2163	; c0 <note_android_ident-0x74>
  bc:	5f747365 	svcpl	0x00747365
  c0:	6c6c6548 	cfstr64vs	mvdx6, [ip], #-288	; 0xfffffee0
  c4:	696e4a6f 	stmdbvs	lr!, {r0, r1, r2, r3, r5, r6, r9, fp, lr}^
  c8:	7274735f 	rsbsvc	r7, r4, #2080374785	; 0x7c000001
  cc:	46676e69 	strbtmi	r6, [r7], -r9, ror #28
  d0:	4a6d6f72 	bmi	1b5bea0 <_end+0x1b57e98>
  d4:	6200494e 	andvs	r4, r0, #1277952	; 0x138000
  d8:	4a000005 	bmi	f4 <note_android_ident-0x40>
  dc:	5f617661 	svcpl	0x00617661
  e0:	5f6d6f63 	svcpl	0x006d6f63
  e4:	73617263 	cmnvc	r1, #805306374	; 0x30000006
  e8:	65745f68 	ldrbvs	r5, [r4, #-3944]!	; 0xfffff098
  ec:	485f7473 	ldmdami	pc, {r0, r1, r4, r5, r6, sl, ip, sp, lr}^	; <UNPREDICTABLE>
  f0:	6f6c6c65 	svcvs	0x006c6c65
  f4:	5f696e4a 	svcpl	0x00696e4a
  f8:	69727473 	ldmdbvs	r2!, {r0, r1, r4, r5, r6, sl, ip, sp, lr}^
  fc:	7246676e 	subvc	r6, r6, #28835840	; 0x1b80000
 100:	4e4a6d6f 	cdpmi	13, 4, cr6, cr10, cr15, {3}
 104:	31315f49 	teqcc	r1, r9, asr #30
 108:	00000000 	andeq	r0, r0, r0
 10c:	00002800 	andeq	r2, r0, r0, lsl #16
 110:	81000200 	mrshi	r0, R8_usr
 114:	af00002e 	svcge	0x0000002e
 118:	26000028 	strcs	r0, [r0], -r8, lsr #32
 11c:	67000000 	strvs	r0, [r0, -r0]
 120:	766a5f73 	uqsub16vc	r5, sl, r3
 124:	286e006d 	stmdacs	lr!, {r0, r2, r3, r5, r6}^
 128:	4e4a0000 	cdpmi	0, 4, cr0, cr10, cr0, {0}
 12c:	6e4f5f49 	cdpvs	15, 4, cr5, cr15, cr9, {2}
 130:	64616f4c 	strbtvs	r6, [r1], #-3916	; 0xfffff0b4
 134:	00000000 	andeq	r0, r0, r0
	...

Disassembly of section .debug_pubtypes:

00000000 <.debug_pubtypes>:
   0:	000003b8 			; <UNDEFINED> instruction: 0x000003b8
   4:	00000002 	andeq	r0, r0, r2
   8:	2e810000 	cdpcs	0, 8, cr0, cr1, cr0, {0}
   c:	12bb0000 	adcsne	r0, fp, #0
  10:	6e690000 	cdpvs	0, 6, cr0, cr9, cr0, {0}
  14:	5f323374 	svcpl	0x00323374
  18:	00260074 	eoreq	r0, r6, r4, ror r0
  1c:	6e610000 	cdpvs	0, 6, cr0, cr1, cr0, {0}
  20:	696f7264 	stmdbvs	pc!, {r2, r5, r6, r9, ip, sp, lr}^	; <UNPREDICTABLE>
  24:	6f4c5f64 	svcvs	0x004c5f64
  28:	69725067 	ldmdbvs	r2!, {r0, r1, r2, r5, r6, ip, lr}^
  2c:	7469726f 	strbtvc	r7, [r9], #-623	; 0xfffffd91
  30:	16850079 	sxtab16ne	r0, r5, r9
  34:	5f5f0000 	svcpl	0x005f0000
  38:	36746e69 	ldrbtcc	r6, [r4], -r9, ror #28
  3c:	00745f34 	rsbseq	r5, r4, r4, lsr pc
  40:	000013da 	ldrdeq	r1, [r0], -sl
  44:	746e6975 	strbtvc	r6, [lr], #-2421	; 0xfffff68b
  48:	00745f38 	rsbseq	r5, r4, r8, lsr pc
  4c:	00001566 	andeq	r1, r0, r6, ror #10
  50:	61765f5f 	cmnvs	r6, pc, asr pc
  54:	73696c5f 	cmnvc	r9, #24320	; 0x5f00
  58:	2da70074 	stccs	0, cr0, [r7, #464]!	; 0x1d0
  5c:	776a0000 	strbvc	r0, [sl, -r0]!
  60:	006b6165 	rsbeq	r6, fp, r5, ror #2
  64:	0000162a 	andeq	r1, r0, sl, lsr #12
  68:	746e6975 	strbtvc	r6, [lr], #-2421	; 0xfffff68b
  6c:	745f3631 	ldrbvc	r3, [pc], #-1585	; 74 <note_android_ident-0xc0>
  70:	00166f00 	andseq	r6, r6, r0, lsl #30
  74:	6f6c6a00 	svcvs	0x006c6a00
  78:	1400676e 	strne	r6, [r0], #-1902	; 0xfffff892
  7c:	6a000013 	bvs	d0 <note_android_ident-0x64>
  80:	65747962 	ldrbvs	r7, [r4, #-2402]!	; 0xfffff69e
  84:	00169700 	andseq	r9, r6, r0, lsl #14
  88:	6c666a00 			; <UNDEFINED> instruction: 0x6c666a00
  8c:	0074616f 	rsbseq	r6, r4, pc, ror #2
  90:	0000265b 	andeq	r2, r0, fp, asr r6
  94:	6a626f6a 	bvs	189be44 <_end+0x1897e3c>
  98:	41746365 	cmnmi	r4, r5, ror #6
  9c:	79617272 	stmdbvc	r1!, {r1, r4, r5, r6, r9, ip, sp, lr}^
  a0:	0005a500 	andeq	sl, r5, r0, lsl #10
  a4:	74736a00 	ldrbtvc	r6, [r3], #-2560	; 0xfffff600
  a8:	676e6972 			; <UNDEFINED> instruction: 0x676e6972
  ac:	002e2c00 	eoreq	r2, lr, r0, lsl #24
  b0:	626f6a00 	rsbvs	r6, pc, #0, 20
  b4:	7463656a 	strbtvc	r6, [r3], #-1386	; 0xfffffa96
  b8:	54666552 	strbtpl	r6, [r6], #-1362	; 0xfffffaae
  bc:	00657079 	rsbeq	r7, r5, r9, ror r0
  c0:	000005b0 			; <UNDEFINED> instruction: 0x000005b0
  c4:	6a626f6a 	bvs	189be74 <_end+0x1897e6c>
  c8:	00746365 	rsbseq	r6, r4, r5, ror #6
  cc:	00002c48 	andeq	r2, r0, r8, asr #24
  d0:	6176614a 	cmnvs	r6, sl, asr #2
  d4:	c0004d56 	andgt	r4, r0, r6, asr sp
  d8:	46000005 	strmi	r0, [r0], -r5
  dc:	00454c49 	subeq	r4, r5, r9, asr #24
  e0:	000026f0 	strdeq	r2, [r0], -r0
  e4:	6168636a 	cmnvs	r8, sl, ror #6
  e8:	72724172 	rsbsvc	r4, r2, #-2147483620	; 0x8000001c
  ec:	7a007961 	bvc	1e678 <_end+0x1a670>
  f0:	69000016 	stmdbvs	r0, {r1, r2, r4}
  f4:	3436746e 	ldrtcc	r7, [r6], #-1134	; 0xfffffb92
  f8:	3100745f 	tstcc	r0, pc, asr r4
  fc:	6a000026 	bvs	19c <ndk_build_number+0x10>
 100:	61727261 	cmnvs	r2, r1, ror #4
 104:	06500079 			; <UNDEFINED> instruction: 0x06500079
 108:	4e4a0000 	cdpmi	0, 4, cr0, cr10, cr0, {0}
 10c:	766e4549 	strbtvc	r4, [lr], -r9, asr #10
 110:	00165d00 	andseq	r5, r6, r0, lsl #26
 114:	695f5f00 	ldmdbvs	pc, {r8, r9, sl, fp, ip, lr}^	; <UNPREDICTABLE>
 118:	3631746e 	ldrtcc	r7, [r1], -lr, ror #8
 11c:	4200745f 	andmi	r7, r0, #1593835520	; 0x5f000000
 120:	5f00002e 	svcpl	0x0000002e
 124:	6469705f 	strbtvs	r7, [r9], #-95	; 0xffffffa1
 128:	4d00745f 	cfstrsmi	mvf7, [r0, #-380]	; 0xfffffe84
 12c:	5f00002e 	svcpl	0x0000002e
 130:	72656b5f 	rsbvc	r6, r5, #97280	; 0x17c00
 134:	5f6c656e 	svcpl	0x006c656e
 138:	5f646970 	svcpl	0x00646970
 13c:	16680074 			; <UNDEFINED> instruction: 0x16680074
 140:	68730000 	ldmdavs	r3!, {}^	; <UNPREDICTABLE>
 144:	0074726f 	rsbseq	r7, r4, pc, ror #4
 148:	0000145a 	andeq	r1, r0, sl, asr r4
 14c:	7268746a 	rsbvc	r7, r8, #1778384896	; 0x6a000000
 150:	6261776f 	rsbvs	r7, r1, #29097984	; 0x1bc0000
 154:	5000656c 	andpl	r6, r0, ip, ror #10
 158:	76000015 			; <UNDEFINED> instruction: 0x76000015
 15c:	696c5f61 	stmdbvs	ip!, {r0, r5, r6, r8, r9, sl, fp, ip, lr}^
 160:	63007473 	movwvs	r7, #1139	; 0x473
 164:	5f00002e 	svcpl	0x0000002e
 168:	6469755f 	strbtvs	r7, [r9], #-1375	; 0xfffffaa1
 16c:	3500745f 	strcc	r7, [r0, #-1119]	; 0xfffffba1
 170:	5f000016 	svcpl	0x00000016
 174:	6e69755f 	mcrvs	5, 3, r7, cr9, cr15, {2}
 178:	5f363174 	svcpl	0x00363174
 17c:	27500074 			; <UNDEFINED> instruction: 0x27500074
 180:	6c6a0000 	stclvs	0, cr0, [sl], #-0
 184:	41676e6f 	cmnmi	r7, pc, ror #28
 188:	79617272 	stmdbvc	r1!, {r1, r4, r5, r6, r9, ip, sp, lr}^
 18c:	002e6e00 	eoreq	r6, lr, r0, lsl #28
 190:	6b5f5f00 	blvs	17d7d98 <_end+0x17d3d90>
 194:	656e7265 	strbvs	r7, [lr, #-613]!	; 0xfffffd9b
 198:	69755f6c 	ldmdbvs	r5!, {r2, r3, r5, r6, r8, r9, sl, fp, ip, lr}^
 19c:	5f323364 	svcpl	0x00323364
 1a0:	26d00074 			; <UNDEFINED> instruction: 0x26d00074
 1a4:	626a0000 	rsbvs	r0, sl, #0
 1a8:	41657479 	smcmi	22345	; 0x5749
 1ac:	79617272 	stmdbvc	r1!, {r1, r4, r5, r6, r9, ip, sp, lr}^
 1b0:	002c5d00 	eoreq	r5, ip, r0, lsl #26
 1b4:	494e4a00 	stmdbmi	lr, {r9, fp, lr}^
 1b8:	6f766e49 	svcvs	0x00766e49
 1bc:	6e49656b 	cdpvs	5, 4, cr6, cr9, cr11, {3}
 1c0:	66726574 			; <UNDEFINED> instruction: 0x66726574
 1c4:	00656361 	rsbeq	r6, r5, r1, ror #6
 1c8:	00002790 	muleq	r0, r0, r7
 1cc:	756f646a 	strbvc	r6, [pc, #-1130]!	; fffffd6a <_end+0xffffbd62>
 1d0:	41656c62 	cmnmi	r5, r2, ror #24
 1d4:	79617272 	stmdbvc	r1!, {r1, r4, r5, r6, r9, ip, sp, lr}^
 1d8:	00133c00 	andseq	r3, r3, r0, lsl #24
 1dc:	69736a00 	ldmdbvs	r3!, {r9, fp, sp, lr}^
 1e0:	5b00657a 	blpl	197d0 <_end+0x157c8>
 1e4:	5f000015 	svcpl	0x00000015
 1e8:	6975625f 	ldmdbvs	r5!, {r0, r1, r2, r3, r4, r6, r9, sp, lr}^
 1ec:	6e69746c 	cdpvs	4, 6, cr7, cr9, cr12, {3}
 1f0:	5f61765f 	svcpl	0x0061765f
 1f4:	7473696c 	ldrbtvc	r6, [r3], #-2412	; 0xfffff694
 1f8:	0015aa00 	andseq	sl, r5, r0, lsl #20
 1fc:	61766a00 	cmnvs	r6, r0, lsl #20
 200:	0065756c 	rsbeq	r7, r5, ip, ror #10
 204:	0000161f 	andeq	r1, r0, pc, lsl r6
 208:	6168636a 	cmnvs	r8, sl, ror #6
 20c:	2e790072 	mrccs	0, 3, r0, cr9, cr2, {3}
 210:	6e750000 	cdpvs	0, 7, cr0, cr5, cr0, {0}
 214:	6e676973 			; <UNDEFINED> instruction: 0x6e676973
 218:	69206465 	stmdbvs	r0!, {r0, r2, r5, r6, sl, sp, lr}
 21c:	cf00746e 	svcgt	0x0000746e
 220:	6a000013 	bvs	274 <note_end+0xa8>
 224:	6c6f6f62 	stclvs	15, cr6, [pc], #-392	; a4 <note_android_ident-0x90>
 228:	006e6165 	rsbeq	r6, lr, r5, ror #2
 22c:	00000608 	andeq	r0, r0, r8, lsl #12
 230:	00746e69 	rsbseq	r6, r4, r9, ror #28
 234:	00001652 	andeq	r1, r0, r2, asr r6
 238:	31746e69 	cmncc	r4, r9, ror #28
 23c:	00745f36 	rsbseq	r5, r4, r6, lsr pc
 240:	00002e37 	andeq	r2, r0, r7, lsr lr
 244:	5f646970 	svcpl	0x00646970
 248:	16a90074 	sxtabne	r0, r9, r4
 24c:	646a0000 	strbtvs	r0, [sl], #-0
 250:	6c62756f 	cfstr64vs	mvdx7, [r2], #-444	; 0xfffffe44
 254:	2e580065 	cdpcs	0, 5, cr0, cr8, cr5, {3}
 258:	69750000 	ldmdbvs	r5!, {}^	; <UNPREDICTABLE>
 25c:	00745f64 	rsbseq	r5, r4, r4, ror #30
 260:	0000131f 	andeq	r1, r0, pc, lsl r3
 264:	38746e69 	ldmdacc	r4!, {r0, r3, r5, r6, r9, sl, fp, sp, lr}^
 268:	3500745f 	strcc	r7, [r0, #-1119]	; 0xfffffba1
 26c:	73000013 	movwvc	r0, #19
 270:	656e6769 	strbvs	r6, [lr, #-1897]!	; 0xfffff897
 274:	68632064 	stmdavs	r3!, {r2, r5, r6, sp}^
 278:	65007261 	strvs	r7, [r0, #-609]	; 0xfffffd9f
 27c:	4a000006 	bmi	29c <note_end+0xd0>
 280:	614e494e 	cmpvs	lr, lr, asr #18
 284:	65766974 	ldrbvs	r6, [r6, #-2420]!	; 0xfffff68c
 288:	65746e49 	ldrbvs	r6, [r4, #-3657]!	; 0xfffff1b7
 28c:	63616672 	cmnvs	r1, #119537664	; 0x7200000
 290:	16470065 	strbne	r0, [r7], -r5, rrx
 294:	736a0000 	cmnvc	sl, #0
 298:	74726f68 	ldrbtvc	r6, [r2], #-3944	; 0xfffff098
 29c:	00137100 	andseq	r7, r3, r0, lsl #2
 2a0:	656d6a00 	strbvs	r6, [sp, #-2560]!	; 0xfffff600
 2a4:	646f6874 	strbtvs	r6, [pc], #-2164	; 2ac <note_end+0xe0>
 2a8:	b4004449 	strlt	r4, [r0], #-1097	; 0xfffffbb7
 2ac:	64000016 	strvs	r0, [r0], #-22	; 0xffffffea
 2b0:	6c62756f 	cfstr64vs	mvdx7, [r2], #-444	; 0xfffffe44
 2b4:	05ed0065 	strbeq	r0, [sp, #101]!	; 0x65
 2b8:	68630000 	stmdavs	r3!, {}^	; <UNPREDICTABLE>
 2bc:	f5007261 			; <UNDEFINED> instruction: 0xf5007261
 2c0:	6a000012 	bvs	310 <note_end+0x144>
 2c4:	73616c63 	cmnvc	r1, #25344	; 0x6300
 2c8:	12c60073 	sbcne	r0, r6, #115	; 0x73
 2cc:	5f5f0000 	svcpl	0x005f0000
 2d0:	33746e69 	cmncc	r4, #1680	; 0x690
 2d4:	00745f32 	rsbseq	r5, r4, r2, lsr pc
 2d8:	000013e5 	andeq	r1, r0, r5, ror #7
 2dc:	69755f5f 	ldmdbvs	r5!, {r0, r1, r2, r3, r4, r6, r8, r9, sl, fp, ip, lr}^
 2e0:	5f38746e 	svcpl	0x0038746e
 2e4:	26b00074 	sxtahcs	r0, r0, r4
 2e8:	626a0000 	rsbvs	r0, sl, #0
 2ec:	656c6f6f 	strbvs	r6, [ip, #-3951]!	; 0xfffff091
 2f0:	72416e61 	subvc	r6, r1, #1552	; 0x610
 2f4:	00796172 	rsbseq	r6, r9, r2, ror r1
 2f8:	00001690 	muleq	r0, r0, r6
 2fc:	676e6f6c 	strbvs	r6, [lr, -ip, ror #30]!
 300:	6e6f6c20 	cdpvs	12, 6, cr6, cr15, cr0, {1}
 304:	6e692067 	cdpvs	0, 6, cr2, cr9, cr7, {3}
 308:	06250074 			; <UNDEFINED> instruction: 0x06250074
 30c:	72700000 	rsbsvc	r0, r0, #0
 310:	695f706f 	ldmdbvs	pc, {r0, r1, r2, r3, r5, r6, ip, sp, lr}^	; <UNPREDICTABLE>
 314:	006f666e 	rsbeq	r6, pc, lr, ror #12
 318:	00001640 	andeq	r1, r0, r0, asr #12
 31c:	69736e75 	ldmdbvs	r3!, {r0, r2, r4, r5, r6, r9, sl, fp, sp, lr}^
 320:	64656e67 	strbtvs	r6, [r5], #-3687	; 0xfffff199
 324:	6f687320 	svcvs	0x00687320
 328:	cb007472 	blgt	1d4f8 <_end+0x194f0>
 32c:	4a00002b 	bmi	3e0 <note_end+0x214>
 330:	614e494e 	cmpvs	lr, lr, asr #18
 334:	65766974 	ldrbvs	r6, [r6, #-2420]!	; 0xfffff68c
 338:	6874654d 	ldmdavs	r4!, {r0, r2, r3, r6, r8, sl, sp, lr}^
 33c:	cb00646f 	blgt	19500 <_end+0x154f8>
 340:	5f000005 	svcpl	0x00000005
 344:	4946735f 	stmdbmi	r6, {r0, r1, r2, r3, r4, r6, r8, r9, ip, sp, lr}^
 348:	2a00454c 	bcs	11880 <_end+0xd878>
 34c:	5f000013 	svcpl	0x00000013
 350:	746e695f 	strbtvc	r6, [lr], #-2399	; 0xfffff6a1
 354:	00745f38 	rsbseq	r5, r4, r8, lsr pc
 358:	000012b0 			; <UNDEFINED> instruction: 0x000012b0
 35c:	746e696a 	strbtvc	r6, [lr], #-2410	; 0xfffff696
 360:	0016a200 	andseq	sl, r6, r0, lsl #4
 364:	6f6c6600 	svcvs	0x006c6600
 368:	30007461 	andcc	r7, r0, r1, ror #8
 36c:	6a000027 	bvs	410 <note_end+0x244>
 370:	41746e69 	cmnmi	r4, r9, ror #28
 374:	79617272 	stmdbvc	r1!, {r1, r4, r5, r6, r9, ip, sp, lr}^
 378:	00271000 	eoreq	r1, r7, r0
 37c:	68736a00 	ldmdavs	r3!, {r9, fp, sp, lr}^
 380:	4174726f 	cmnmi	r4, pc, ror #4
 384:	79617272 	stmdbvc	r1!, {r1, r4, r5, r6, r9, ip, sp, lr}^
 388:	00139b00 	andseq	r9, r3, r0, lsl #22
 38c:	69666a00 	stmdbvs	r6!, {r9, fp, sp, lr}^
 390:	49646c65 	stmdbmi	r4!, {r0, r2, r5, r6, sl, fp, sp, lr}^
 394:	13f00044 	mvnsne	r0, #68	; 0x44
 398:	6e750000 	cdpvs	0, 7, cr0, cr5, cr0, {0}
 39c:	6e676973 			; <UNDEFINED> instruction: 0x6e676973
 3a0:	63206465 			; <UNDEFINED> instruction: 0x63206465
 3a4:	00726168 	rsbseq	r6, r2, r8, ror #2
 3a8:	00002770 	andeq	r2, r0, r0, ror r7
 3ac:	6f6c666a 	svcvs	0x006c666a
 3b0:	72417461 	subvc	r7, r1, #1627389952	; 0x61000000
 3b4:	00796172 	rsbseq	r6, r9, r2, ror r1
 3b8:	00000000 	andeq	r0, r0, r0
 3bc:	00000318 	andeq	r0, r0, r8, lsl r3
 3c0:	2e810002 	cdpcs	0, 8, cr0, cr1, cr2, {0}
 3c4:	28af0000 	stmiacs	pc!, {}	; <UNPREDICTABLE>
 3c8:	00df0000 	sbcseq	r0, pc, r0
 3cc:	6e690000 	cdpvs	0, 6, cr0, cr9, cr0, {0}
 3d0:	5f323374 	svcpl	0x00323374
 3d4:	11460074 	hvcne	24580	; 0x6004
 3d8:	5f5f0000 	svcpl	0x005f0000
 3dc:	36746e69 	ldrbtcc	r6, [r4], -r9, ror #28
 3e0:	00745f34 	rsbseq	r5, r4, r4, lsr pc
 3e4:	00000e9b 	muleq	r0, fp, lr
 3e8:	746e6975 	strbtvc	r6, [lr], #-2421	; 0xfffff68b
 3ec:	00745f38 	rsbseq	r5, r4, r8, lsr pc
 3f0:	00001027 	andeq	r1, r0, r7, lsr #32
 3f4:	61765f5f 	cmnvs	r6, pc, asr pc
 3f8:	73696c5f 	cmnvc	r9, #24320	; 0x5f00
 3fc:	279e0074 			; <UNDEFINED> instruction: 0x279e0074
 400:	776a0000 	strbvc	r0, [sl, -r0]!
 404:	006b6165 	rsbeq	r6, fp, r5, ror #2
 408:	000010eb 	andeq	r1, r0, fp, ror #1
 40c:	746e6975 	strbtvc	r6, [lr], #-2421	; 0xfffff68b
 410:	745f3631 	ldrbvc	r3, [pc], #-1585	; 418 <note_end+0x24c>
 414:	00113000 	andseq	r3, r1, r0
 418:	6f6c6a00 	svcvs	0x006c6a00
 41c:	d500676e 	strle	r6, [r0, #-1902]	; 0xfffff892
 420:	6a00000d 	bvs	45c <note_end+0x290>
 424:	65747962 	ldrbvs	r7, [r4, #-2402]!	; 0xfffff69e
 428:	00115800 	andseq	r5, r1, r0, lsl #16
 42c:	6c666a00 			; <UNDEFINED> instruction: 0x6c666a00
 430:	0074616f 	rsbseq	r6, r4, pc, ror #2
 434:	00000daf 	andeq	r0, r0, pc, lsr #27
 438:	6a626f6a 	bvs	189c1e8 <_end+0x18981e0>
 43c:	00746365 	rsbseq	r6, r4, r5, ror #6
 440:	00002044 	andeq	r2, r0, r4, asr #32
 444:	7274736a 	rsbsvc	r7, r4, #-1476395007	; 0xa8000001
 448:	00676e69 	rsbeq	r6, r7, r9, ror #28
 44c:	0000111e 	andeq	r1, r0, lr, lsl r1
 450:	6e695f5f 	mcrvs	15, 3, r5, cr9, cr15, {2}
 454:	5f363174 	svcpl	0x00363174
 458:	003c0074 	eorseq	r0, ip, r4, ror r0
 45c:	614a0000 	mrsvs	r0, (UNDEF: 74)
 460:	4d566176 	ldfmie	f6, [r6, #-472]	; 0xfffffe28
 464:	00212700 	eoreq	r2, r1, r0, lsl #14
 468:	626f6a00 	rsbvs	r6, pc, #0, 20
 46c:	7463656a 	strbtvc	r6, [r3], #-1386	; 0xfffffa96
 470:	61727241 	cmnvs	r2, r1, asr #4
 474:	21bc0079 			; <UNDEFINED> instruction: 0x21bc0079
 478:	636a0000 	cmnvs	sl, #0
 47c:	41726168 	cmnmi	r2, r8, ror #2
 480:	79617272 	stmdbvc	r1!, {r1, r4, r5, r6, r9, ip, sp, lr}^
 484:	00113b00 	andseq	r3, r1, r0, lsl #22
 488:	746e6900 	strbtvc	r6, [lr], #-2304	; 0xfffff700
 48c:	745f3436 	ldrbvc	r3, [pc], #-1078	; 494 <note_end+0x2c8>
 490:	0020fd00 	eoreq	pc, r0, r0, lsl #26
 494:	72616a00 	rsbvc	r6, r1, #0, 20
 498:	00796172 	rsbseq	r6, r9, r2, ror r1
 49c:	00000120 	andeq	r0, r0, r0, lsr #2
 4a0:	45494e4a 	strbmi	r4, [r9, #-3658]	; 0xfffff1b6
 4a4:	2e00766e 	cfmadd32cs	mvax3, mvfx7, mvfx0, mvfx14
 4a8:	6a000028 	bvs	550 <note_end+0x384>
 4ac:	656a626f 	strbvs	r6, [sl, #-623]!	; 0xfffffd91
 4b0:	65527463 	ldrbvs	r7, [r2, #-1123]	; 0xfffffb9d
 4b4:	70795466 	rsbsvc	r5, r9, r6, ror #8
 4b8:	11290065 			; <UNDEFINED> instruction: 0x11290065
 4bc:	68730000 	ldmdavs	r3!, {}^	; <UNPREDICTABLE>
 4c0:	0074726f 	rsbseq	r7, r4, pc, ror #4
 4c4:	00000f1b 	andeq	r0, r0, fp, lsl pc
 4c8:	7268746a 	rsbvc	r7, r8, #1778384896	; 0x6a000000
 4cc:	6261776f 	rsbvs	r7, r1, #29097984	; 0x1bc0000
 4d0:	1100656c 	tstne	r0, ip, ror #10
 4d4:	76000010 			; <UNDEFINED> instruction: 0x76000010
 4d8:	696c5f61 	stmdbvs	ip!, {r0, r5, r6, r8, r9, sl, fp, ip, lr}^
 4dc:	f6007473 			; <UNDEFINED> instruction: 0xf6007473
 4e0:	5f000010 	svcpl	0x00000010
 4e4:	6e69755f 	mcrvs	5, 3, r7, cr9, cr15, {2}
 4e8:	5f363174 	svcpl	0x00363174
 4ec:	221c0074 	andscs	r0, ip, #116	; 0x74
 4f0:	6c6a0000 	stclvs	0, cr0, [sl], #-0
 4f4:	41676e6f 	cmnmi	r7, pc, ror #28
 4f8:	79617272 	stmdbvc	r1!, {r1, r4, r5, r6, r9, ip, sp, lr}^
 4fc:	00219c00 	eoreq	r9, r1, r0, lsl #24
 500:	79626a00 	stmdbvc	r2!, {r9, fp, sp, lr}^
 504:	72416574 	subvc	r6, r1, #116, 10	; 0x1d000000
 508:	00796172 	rsbseq	r6, r9, r2, ror r1
 50c:	00000051 	andeq	r0, r0, r1, asr r0
 510:	49494e4a 	stmdbmi	r9, {r1, r3, r6, r9, sl, fp, lr}^
 514:	6b6f766e 	blvs	1bdded4 <_end+0x1bd9ecc>
 518:	746e4965 	strbtvc	r4, [lr], #-2405	; 0xfffff69b
 51c:	61667265 	cmnvs	r6, r5, ror #4
 520:	5c006563 	cfstr32pl	mvfx6, [r0], {99}	; 0x63
 524:	6a000022 	bvs	5b4 <note_end+0x3e8>
 528:	62756f64 	rsbsvs	r6, r5, #100, 30	; 0x190
 52c:	7241656c 	subvc	r6, r1, #108, 10	; 0x1b000000
 530:	00796172 	rsbseq	r6, r9, r2, ror r1
 534:	00000dfd 	strdeq	r0, [r0], -sp
 538:	7a69736a 	bvc	1a5d2e8 <_end+0x1a592e0>
 53c:	101c0065 	andsne	r0, ip, r5, rrx
 540:	5f5f0000 	svcpl	0x005f0000
 544:	6c697562 	cfstr64vs	mvdx7, [r9], #-392	; 0xfffffe78
 548:	5f6e6974 	svcpl	0x006e6974
 54c:	6c5f6176 	ldfvse	f6, [pc], {118}	; 0x76
 550:	00747369 	rsbseq	r7, r4, r9, ror #6
 554:	0000106b 	andeq	r1, r0, fp, rrx
 558:	6c61766a 	stclvs	6, cr7, [r1], #-424	; 0xfffffe58
 55c:	e0006575 	and	r6, r0, r5, ror r5
 560:	6a000010 	bvs	5a8 <note_end+0x3dc>
 564:	72616863 	rsbvc	r6, r1, #6488064	; 0x630000
 568:	000e9000 	andeq	r9, lr, r0
 56c:	6f626a00 	svcvs	0x00626a00
 570:	61656c6f 	cmnvs	r5, pc, ror #24
 574:	00f5006e 	rscseq	r0, r5, lr, rrx
 578:	6e690000 	cdpvs	0, 6, cr0, cr9, cr0, {0}
 57c:	11130074 	tstne	r3, r4, ror r0
 580:	6e690000 	cdpvs	0, 6, cr0, cr9, cr0, {0}
 584:	5f363174 	svcpl	0x00363174
 588:	116a0074 	smcne	40964	; 0xa004
 58c:	646a0000 	strbtvs	r0, [sl], #-0
 590:	6c62756f 	cfstr64vs	mvdx7, [r2], #-444	; 0xfffffe44
 594:	0de00065 	stcleq	0, cr0, [r0, #404]!	; 0x194
 598:	6e690000 	cdpvs	0, 6, cr0, cr9, cr0, {0}
 59c:	745f3874 	ldrbvc	r3, [pc], #-2164	; 5a4 <note_end+0x3d8>
 5a0:	000df600 	andeq	pc, sp, r0, lsl #12
 5a4:	67697300 	strbvs	r7, [r9, -r0, lsl #6]!
 5a8:	2064656e 	rsbcs	r6, r4, lr, ror #10
 5ac:	72616863 	rsbvc	r6, r1, #6488064	; 0x630000
 5b0:	00013500 	andeq	r3, r1, r0, lsl #10
 5b4:	494e4a00 	stmdbmi	lr, {r9, fp, lr}^
 5b8:	6974614e 	ldmdbvs	r4!, {r1, r2, r3, r6, r8, sp, lr}^
 5bc:	6e496576 	mcrvs	5, 2, r6, cr9, cr6, {3}
 5c0:	66726574 			; <UNDEFINED> instruction: 0x66726574
 5c4:	00656361 	rsbeq	r6, r5, r1, ror #6
 5c8:	00001108 	andeq	r1, r0, r8, lsl #2
 5cc:	6f68736a 	svcvs	0x0068736a
 5d0:	32007472 	andcc	r7, r0, #1912602624	; 0x72000000
 5d4:	6a00000e 	bvs	614 <note_end+0x448>
 5d8:	6874656d 	ldmdavs	r4!, {r0, r2, r3, r5, r6, r8, sl, sp, lr}^
 5dc:	4449646f 	strbmi	r6, [r9], #-1135	; 0xfffffb91
 5e0:	00117500 	andseq	r7, r1, r0, lsl #10
 5e4:	756f6400 	strbvc	r6, [pc, #-1024]!	; 1ec <note_end+0x20>
 5e8:	00656c62 	rsbeq	r6, r5, r2, ror #24
 5ec:	00000dc4 	andeq	r0, r0, r4, asr #27
 5f0:	72616863 	rsbvc	r6, r1, #6488064	; 0x630000
 5f4:	000da400 	andeq	sl, sp, r0, lsl #8
 5f8:	6c636a00 			; <UNDEFINED> instruction: 0x6c636a00
 5fc:	00737361 	rsbseq	r7, r3, r1, ror #6
 600:	000000ea 	andeq	r0, r0, sl, ror #1
 604:	6e695f5f 	mcrvs	15, 3, r5, cr9, cr15, {2}
 608:	5f323374 	svcpl	0x00323374
 60c:	217c0074 	cmncs	ip, r4, ror r0
 610:	626a0000 	rsbvs	r0, sl, #0
 614:	656c6f6f 	strbvs	r6, [ip, #-3951]!	; 0xfffff091
 618:	72416e61 	subvc	r6, r1, #1552	; 0x610
 61c:	00796172 	rsbseq	r6, r9, r2, ror r1
 620:	00000ea6 	andeq	r0, r0, r6, lsr #29
 624:	69755f5f 	ldmdbvs	r5!, {r0, r1, r2, r3, r4, r6, r8, r9, sl, fp, ip, lr}^
 628:	5f38746e 	svcpl	0x0038746e
 62c:	11510074 	cmpne	r1, r4, ror r0
 630:	6f6c0000 	svcvs	0x006c0000
 634:	6c20676e 	stcvs	7, cr6, [r0], #-440	; 0xfffffe48
 638:	20676e6f 	rsbcs	r6, r7, pc, ror #28
 63c:	00746e69 	rsbseq	r6, r4, r9, ror #28
 640:	00002697 	muleq	r0, r7, r6
 644:	4e494e4a 	cdpmi	14, 4, cr4, cr9, cr10, {2}
 648:	76697461 	strbtvc	r7, [r9], -r1, ror #8
 64c:	74654d65 	strbtvc	r4, [r5], #-3429	; 0xfffff29b
 650:	00646f68 	rsbeq	r6, r4, r8, ror #30
 654:	00001101 	andeq	r1, r0, r1, lsl #2
 658:	69736e75 	ldmdbvs	r3!, {r0, r2, r4, r5, r6, r9, sl, fp, sp, lr}^
 65c:	64656e67 	strbtvs	r6, [r5], #-3687	; 0xfffff199
 660:	6f687320 	svcvs	0x00687320
 664:	eb007472 	bl	1d834 <_end+0x1982c>
 668:	5f00000d 	svcpl	0x0000000d
 66c:	746e695f 	strbtvc	r6, [lr], #-2399	; 0xfffff6a1
 670:	00745f38 	rsbseq	r5, r4, r8, lsr pc
 674:	000000d4 	ldrdeq	r0, [r0], -r4
 678:	746e696a 	strbtvc	r6, [lr], #-2410	; 0xfffff696
 67c:	00116300 	andseq	r6, r1, r0, lsl #6
 680:	6f6c6600 	svcvs	0x006c6600
 684:	fc007461 	stc2	4, cr7, [r0], {97}	; 0x61
 688:	6a000021 	bvs	714 <note_end+0x548>
 68c:	41746e69 	cmnmi	r4, r9, ror #28
 690:	79617272 	stmdbvc	r1!, {r1, r4, r5, r6, r9, ip, sp, lr}^
 694:	0021dc00 	eoreq	sp, r1, r0, lsl #24
 698:	68736a00 	ldmdavs	r3!, {r9, fp, sp, lr}^
 69c:	4174726f 	cmnmi	r4, pc, ror #4
 6a0:	79617272 	stmdbvc	r1!, {r1, r4, r5, r6, r9, ip, sp, lr}^
 6a4:	000eb100 	andeq	fp, lr, r0, lsl #2
 6a8:	736e7500 	cmnvc	lr, #0, 10
 6ac:	656e6769 	strbvs	r6, [lr, #-1897]!	; 0xfffff897
 6b0:	68632064 	stmdavs	r3!, {r2, r5, r6, sp}^
 6b4:	5c007261 	sfmpl	f7, 4, [r0], {97}	; 0x61
 6b8:	6a00000e 	bvs	6f8 <note_end+0x52c>
 6bc:	6c656966 			; <UNDEFINED> instruction: 0x6c656966
 6c0:	00444964 	subeq	r4, r4, r4, ror #18
 6c4:	0000223c 	andeq	r2, r0, ip, lsr r2
 6c8:	6f6c666a 	svcvs	0x006c666a
 6cc:	72417461 	subvc	r7, r1, #1627389952	; 0x61000000
 6d0:	00796172 	rsbseq	r6, r9, r2, ror r1
 6d4:	00000000 	andeq	r0, r0, r0

Disassembly of section .debug_line:

00000000 <.debug_line>:
   0:	00000442 	andeq	r0, r0, r2, asr #8
   4:	01e00002 	mvneq	r0, r2
   8:	01020000 	mrseq	r0, (UNDEF: 2)
   c:	000d0efb 	strdeq	r0, [sp], -fp
  10:	01010101 	tsteq	r1, r1, lsl #2
  14:	01000000 	mrseq	r0, (UNDEF: 0)
  18:	2f010000 	svccs	0x00010000
  1c:	676f7270 			; <UNDEFINED> instruction: 0x676f7270
  20:	2f6d6172 	svccs	0x006d6172
  24:	2f6b646e 	svccs	0x006b646e
  28:	72737973 	rsbsvc	r7, r3, #1884160	; 0x1cc000
  2c:	2f746f6f 	svccs	0x00746f6f
  30:	2f727375 	svccs	0x00727375
  34:	6c636e69 	stclvs	14, cr6, [r3], #-420	; 0xfffffe5c
  38:	2f656475 	svccs	0x00656475
  3c:	72646e61 	rsbvc	r6, r4, #1552	; 0x610
  40:	0064696f 	rsbeq	r6, r4, pc, ror #18
  44:	6f72702f 	svcvs	0x0072702f
  48:	6d617267 	sfmvs	f7, 2, [r1, #-412]!	; 0xfffffe64
  4c:	6b646e2f 	blvs	191b910 <_end+0x1917908>
  50:	7379732f 	cmnvc	r9, #-1140850688	; 0xbc000000
  54:	746f6f72 	strbtvc	r6, [pc], #-3954	; 5c <note_android_ident-0xd8>
  58:	7273752f 	rsbsvc	r7, r3, #197132288	; 0xbc00000
  5c:	636e692f 	cmnvs	lr, #770048	; 0xbc000
  60:	6564756c 	strbvs	r7, [r4, #-1388]!	; 0xfffffa94
  64:	796d2f00 	stmdbvc	sp!, {r8, r9, sl, fp, sp}^
  68:	6b726f77 	blvs	1c9be4c <_end+0x1c97e44>
  6c:	7469672f 	strbtvc	r6, [r9], #-1839	; 0xfffff8d1
  70:	2f627568 	svccs	0x00627568
  74:	72646e61 	rsbvc	r6, r4, #1552	; 0x610
  78:	7264696f 	rsbvc	r6, r4, #1818624	; 0x1bc000
  7c:	72657665 	rsbvc	r7, r5, #105906176	; 0x6500000
  80:	632f6573 			; <UNDEFINED> instruction: 0x632f6573
  84:	68736172 	ldmdavs	r3!, {r1, r4, r5, r6, r8, sp, lr}^
  88:	6372732f 	cmnvs	r2, #-1140850688	; 0xbc000000
  8c:	69616d2f 	stmdbvs	r1!, {r0, r1, r2, r3, r5, r8, sl, fp, sp, lr}^
  90:	70632f6e 	rsbvc	r2, r3, lr, ror #30
  94:	702f0070 	eorvc	r0, pc, r0, ror r0	; <UNPREDICTABLE>
  98:	72676f72 	rsbvc	r6, r7, #456	; 0x1c8
  9c:	6e2f6d61 	cdpvs	13, 2, cr6, cr15, cr1, {3}
  a0:	732f6b64 			; <UNDEFINED> instruction: 0x732f6b64
  a4:	6f727379 	svcvs	0x00727379
  a8:	752f746f 	strvc	r7, [pc, #-1135]!	; fffffc41 <_end+0xffffbc39>
  ac:	692f7273 	stmdbvs	pc!, {r0, r1, r4, r5, r6, r9, ip, sp, lr}	; <UNPREDICTABLE>
  b0:	756c636e 	strbvc	r6, [ip, #-878]!	; 0xfffffc92
  b4:	622f6564 	eorvs	r6, pc, #100, 10	; 0x19000000
  b8:	00737469 	rsbseq	r7, r3, r9, ror #8
  bc:	6f72702f 	svcvs	0x0072702f
  c0:	6d617267 	sfmvs	f7, 2, [r1, #-412]!	; 0xfffffe64
  c4:	6b646e2f 	blvs	191b988 <_end+0x1917980>
  c8:	7379732f 	cmnvc	r9, #-1140850688	; 0xbc000000
  cc:	746f6f72 	strbtvc	r6, [pc], #-3954	; d4 <note_android_ident-0x60>
  d0:	7273752f 	rsbsvc	r7, r3, #197132288	; 0xbc00000
  d4:	636e692f 	cmnvs	lr, #770048	; 0xbc000
  d8:	6564756c 	strbvs	r7, [r4, #-1388]!	; 0xfffffa94
  dc:	7379732f 	cmnvc	r9, #-1140850688	; 0xbc000000
  e0:	72702f00 	rsbsvc	r2, r0, #0, 30
  e4:	6172676f 	cmnvs	r2, pc, ror #14
  e8:	646e2f6d 	strbtvs	r2, [lr], #-3949	; 0xfffff093
  ec:	6f742f6b 	svcvs	0x00742f6b
  f0:	68636c6f 	stmdavs	r3!, {r0, r1, r2, r3, r5, r6, sl, fp, sp, lr}^
  f4:	736e6961 	cmnvc	lr, #1589248	; 0x184000
  f8:	766c6c2f 	strbtvc	r6, [ip], -pc, lsr #24
  fc:	72702f6d 	rsbsvc	r2, r0, #436	; 0x1b4
 100:	69756265 	ldmdbvs	r5!, {r0, r2, r5, r6, r9, sp, lr}^
 104:	642f746c 	strtvs	r7, [pc], #-1132	; 10c <note_android_ident-0x28>
 108:	69777261 	ldmdbvs	r7!, {r0, r5, r6, r9, ip, sp, lr}^
 10c:	38782d6e 	ldmdacc	r8!, {r1, r2, r3, r5, r6, r8, sl, fp, sp}^
 110:	34365f36 	ldrtcc	r5, [r6], #-3894	; 0xfffff0ca
 114:	62696c2f 	rsbvs	r6, r9, #12032	; 0x2f00
 118:	632f3436 			; <UNDEFINED> instruction: 0x632f3436
 11c:	676e616c 	strbvs	r6, [lr, -ip, ror #2]!
 120:	302e352f 	eorcc	r3, lr, pc, lsr #10
 124:	3030332e 	eorscc	r3, r0, lr, lsr #6
 128:	2f303830 	svccs	0x00303830
 12c:	6c636e69 	stclvs	14, cr6, [r3], #-420	; 0xfffffe5c
 130:	00656475 	rsbeq	r6, r5, r5, ror r4
 134:	6f72702f 	svcvs	0x0072702f
 138:	6d617267 	sfmvs	f7, 2, [r1, #-412]!	; 0xfffffe64
 13c:	6b646e2f 	blvs	191ba00 <_end+0x19179f8>
 140:	7379732f 	cmnvc	r9, #-1140850688	; 0xbc000000
 144:	746f6f72 	strbtvc	r6, [pc], #-3954	; 14c <ndk_version>
 148:	7273752f 	rsbsvc	r7, r3, #197132288	; 0xbc00000
 14c:	636e692f 	cmnvs	lr, #770048	; 0xbc000
 150:	6564756c 	strbvs	r7, [r4, #-1388]!	; 0xfffffa94
 154:	6d73612f 	ldfvse	f6, [r3, #-188]!	; 0xffffff44
 158:	6e65672d 	cdpvs	7, 6, cr6, cr5, cr13, {1}
 15c:	63697265 	cmnvs	r9, #1342177286	; 0x50000006
 160:	6f6c0000 	svcvs	0x006c0000
 164:	00682e67 	rsbeq	r2, r8, r7, ror #28
 168:	6a000001 	bvs	174 <ndk_version+0x28>
 16c:	682e696e 	stmdavs	lr!, {r1, r2, r3, r5, r6, r8, fp, sp, lr}
 170:	00000200 	andeq	r0, r0, r0, lsl #4
 174:	6c6c6568 	cfstr64vs	mvdx6, [ip], #-416	; 0xfffffe60
 178:	696e6a6f 	stmdbvs	lr!, {r0, r1, r2, r3, r5, r6, r9, fp, sp, lr}^
 17c:	0300632e 	movweq	r6, #814	; 0x32e
 180:	74730000 	ldrbtvc	r0, [r3], #-0
 184:	74637572 	strbtvc	r7, [r3], #-1394	; 0xfffffa8e
 188:	6c69665f 	stclvs	6, cr6, [r9], #-380	; 0xfffffe84
 18c:	00682e65 	rsbeq	r2, r8, r5, ror #28
 190:	73000004 	movwvc	r0, #4
 194:	6f696474 	svcvs	0x00696474
 198:	0200682e 	andeq	r6, r0, #3014656	; 0x2e0000
 19c:	79730000 	ldmdbvc	r3!, {}^	; <UNPREDICTABLE>
 1a0:	6d657473 	cfstrdvs	mvd7, [r5, #-460]!	; 0xfffffe34
 1a4:	6f72705f 	svcvs	0x0072705f
 1a8:	74726570 	ldrbtvc	r6, [r2], #-1392	; 0xfffffa90
 1ac:	2e736569 	cdpcs	5, 7, cr6, cr3, cr9, {3}
 1b0:	00050068 	andeq	r0, r5, r8, rrx
 1b4:	64747300 	ldrbtvs	r7, [r4], #-768	; 0xfffffd00
 1b8:	2e746e69 	cdpcs	14, 7, cr6, cr4, cr9, {3}
 1bc:	00020068 	andeq	r0, r2, r8, rrx
 1c0:	64747300 	ldrbtvs	r7, [r4], #-768	; 0xfffffd00
 1c4:	2e677261 	cdpcs	2, 6, cr7, cr7, cr1, {3}
 1c8:	00060068 	andeq	r0, r6, r8, rrx
 1cc:	736f7000 	cmnvc	pc, #0
 1d0:	745f7869 	ldrbvc	r7, [pc], #-2153	; 1d8 <note_end+0xc>
 1d4:	73657079 	cmnvc	r5, #121	; 0x79
 1d8:	0700682e 	streq	r6, [r0, -lr, lsr #16]
 1dc:	79740000 	ldmdbvc	r4!, {}^	; <UNPREDICTABLE>
 1e0:	2e736570 	mrccs	5, 3, r6, cr3, cr0, {3}
 1e4:	00050068 	andeq	r0, r5, r8, rrx
 1e8:	03040000 	movweq	r0, #16384	; 0x4000
 1ec:	5c020500 	cfstr32pl	mvfx0, [r2], {-0}
 1f0:	0300000a 	movweq	r0, #10
 1f4:	0e050124 	adfeqsp	f0, f5, f4
 1f8:	0c05a00a 	stceq	0, cr10, [r5], {10}
 1fc:	15057406 	strne	r7, [r5, #-1030]	; 0xfffffbfa
 200:	05052206 	streq	r2, [r5, #-518]	; 0xfffffdfa
 204:	59063c06 	stmdbpl	r6, {r1, r2, sl, fp, ip, sp}
 208:	05ad0c05 	streq	r0, [sp, #3077]!	; 0xc05
 20c:	05200605 	streq	r0, [r0, #-1541]!	; 0xfffff9fb
 210:	054b060e 	strbeq	r0, [fp, #-1550]	; 0xfffff9f2
 214:	0574060c 	ldrbeq	r0, [r4, #-1548]!	; 0xfffff9f4
 218:	05210611 	streq	r0, [r1, #-1553]!	; 0xfffff9ef
 21c:	06200609 	strteq	r0, [r0], -r9, lsl #12
 220:	c905053e 	stmdbgt	r5, {r1, r2, r3, r4, r5, r8, sl}
 224:	05330905 	ldreq	r0, [r3, #-2309]!	; 0xfffff6fb
 228:	0520062c 	streq	r0, [r0, #-1580]!	; 0xfffff9d4
 22c:	09052e18 	stmdbeq	r5, {r3, r4, r9, sl, fp, sp}
 230:	060d054a 	streq	r0, [sp], -sl, asr #10
 234:	d409053e 	strle	r0, [r9], #-1342	; 0xfffffac2
 238:	05321905 	ldreq	r1, [r2, #-2309]!	; 0xfffff6fb
 23c:	05200612 	streq	r0, [r0, #-1554]!	; 0xfffff9ee
 240:	09052e10 	stmdbeq	r5, {r4, r9, sl, fp, sp}
 244:	01052106 	tsteq	r5, r6, lsl #2
 248:	1f027608 	svcne	0x00027608
 24c:	04010100 	streq	r0, [r1], #-256	; 0xffffff00
 250:	02050003 	andeq	r0, r5, #3
 254:	00000b90 	muleq	r0, r0, fp
 258:	05013e03 	streq	r3, [r1, #-3587]	; 0xfffff1fd
 25c:	05840a0d 	streq	r0, [r4, #2573]	; 0xa0d
 260:	05580608 	ldrbeq	r0, [r8, #-1544]	; 0xfffff9f8
 264:	053e0609 	ldreq	r0, [lr, #-1545]!	; 0xfffff9f7
 268:	0905c905 	stmdbeq	r5, {r0, r2, r8, fp, lr, pc}
 26c:	f6100531 			; <UNDEFINED> instruction: 0xf6100531
 270:	4a060e05 	bmi	183a8c <_end+0x17fa84>
 274:	21061105 	tstcs	r6, r5, lsl #2
 278:	20060905 	andcs	r0, r6, r5, lsl #18
 27c:	05053e06 	streq	r3, [r5, #-3590]	; 0xfffff1fa
 280:	332905c9 			; <UNDEFINED> instruction: 0x332905c9
 284:	3c061205 	sfmcc	f1, 4, [r6], {5}
 288:	062e0d05 	strteq	r0, [lr], -r5, lsl #26
 28c:	c909053e 	stmdbgt	r9, {r1, r2, r3, r4, r5, r8, sl}
 290:	05310d05 	ldreq	r0, [r1, #-3333]!	; 0xfffff2fb
 294:	02af0805 	adceq	r0, pc, #327680	; 0x50000
 298:	01010020 	tsteq	r1, r0, lsr #32
 29c:	05000304 	streq	r0, [r0, #-772]	; 0xfffffcfc
 2a0:	000cc402 	andeq	ip, ip, r2, lsl #8
 2a4:	00e50300 	rsceq	r0, r5, r0, lsl #6
 2a8:	0a050501 	beq	1416b4 <_end+0x13d6ac>
 2ac:	08010559 	stmdaeq	r1, {r0, r3, r4, r6, r8, sl}
 2b0:	000a022f 	andeq	r0, sl, pc, lsr #4
 2b4:	03040101 	movweq	r0, #16641	; 0x4101
 2b8:	08020500 	stmdaeq	r2, {r8, sl}
 2bc:	0300000d 	movweq	r0, #13
 2c0:	050100ee 	streq	r0, [r1, #-238]	; 0xffffff12
 2c4:	77020a05 	strvc	r0, [r2, -r5, lsl #20]
 2c8:	020a0313 	andeq	r0, sl, #1275068416	; 0x4c000000
 2cc:	02010280 	andeq	r0, r1, #128, 4
 2d0:	0101000b 	tsteq	r1, fp
 2d4:	05000304 	streq	r0, [r0, #-772]	; 0xfffffcfc
 2d8:	00100c02 	andseq	r0, r0, r2, lsl #24
 2dc:	01840300 	orreq	r0, r4, r0, lsl #6
 2e0:	0a0a0501 	beq	2816ec <_end+0x27d6e4>
 2e4:	2106054b 	tstcs	r6, fp, asr #10
 2e8:	20060805 	andcs	r0, r6, r5, lsl #16
 2ec:	2f060505 	svccs	0x00060505
 2f0:	59080105 	stmdbpl	r8, {r0, r2, r8}
 2f4:	01000a02 	tsteq	r0, r2, lsl #20
 2f8:	00030401 	andeq	r0, r3, r1, lsl #8
 2fc:	105c0205 	subsne	r0, ip, r5, lsl #4
 300:	8b030000 	blhi	c0308 <_end+0xbc300>
 304:	05050101 	streq	r0, [r5, #-257]	; 0xfffffeff
 308:	0e05590a 	vmlaeq.f16	s10, s10, s20	; <UNPREDICTABLE>
 30c:	05052006 	streq	r2, [r5, #-6]
 310:	01052f06 	tsteq	r5, r6, lsl #30
 314:	09022f08 	stmdbeq	r2, {r3, r8, r9, sl, fp, sp}
 318:	04010100 	streq	r0, [r1], #-256	; 0xffffff00
 31c:	02050003 	andeq	r0, r5, #3
 320:	000010a4 	andeq	r1, r0, r4, lsr #1
 324:	01019203 	tsteq	r1, r3, lsl #4
 328:	830a0905 	movwhi	r0, #43269	; 0xa905
 32c:	05220e05 	streq	r0, [r2, #-3589]!	; 0xfffff1fb
 330:	0566060c 	strbeq	r0, [r6, #-1548]!	; 0xfffff9f4
 334:	0521060f 	streq	r0, [r1, #-1551]!	; 0xfffff9f1
 338:	05200616 	streq	r0, [r0, #-1558]!	; 0xfffff9ea
 33c:	09054a20 	stmdbeq	r5, {r5, r9, fp, lr}
 340:	053e0620 	ldreq	r0, [lr, #-1568]!	; 0xfffff9e0
 344:	2f3ec905 	svccs	0x003ec905
 348:	05321105 	ldreq	r1, [r2, #-261]!	; 0xfffffefb
 34c:	052e060b 	streq	r0, [lr, #-1547]!	; 0xfffff9f5
 350:	05210611 	streq	r0, [r1, #-1553]!	; 0xfffff9ef
 354:	052e060b 	streq	r0, [lr, #-1547]!	; 0xfffff9f5
 358:	2f220605 	svccs	0x00220605
 35c:	0216054b 	andseq	r0, r6, #314572800	; 0x12c00000
 360:	051801bf 	ldreq	r0, [r8, #-447]	; 0xfffffe41
 364:	052e060b 	streq	r0, [lr, #-1547]!	; 0xfffff9f5
 368:	05210605 	streq	r0, [r1, #-1541]!	; 0xfffff9fb
 36c:	02670801 	rsbeq	r0, r7, #65536	; 0x10000
 370:	01010010 	tsteq	r1, r0, lsl r0
 374:	05000304 	streq	r0, [r0, #-772]	; 0xfffffcfc
 378:	0012e802 	andseq	lr, r2, r2, lsl #16
 37c:	01b10300 			; <UNDEFINED> instruction: 0x01b10300
 380:	0a050501 	beq	14178c <_end+0x13d784>
 384:	03150576 	tsteq	r5, #494927872	; 0x1d800000
 388:	052e080c 	streq	r0, [lr, #-2060]!	; 0xfffff7f4
 38c:	05200614 	streq	r0, [r0, #-1556]!	; 0xfffff9ec
 390:	2d05201b 	stccs	0, cr2, [r5, #-108]	; 0xffffff94
 394:	2013052e 	andscs	r0, r3, lr, lsr #10
 398:	064a0905 	strbeq	r0, [sl], -r5, lsl #18
 39c:	c905053d 	stmdbgt	r5, {r0, r2, r3, r4, r5, r8, sl}
 3a0:	053e0905 	ldreq	r0, [lr, #-2309]!	; 0xfffff6fb
 3a4:	0c05220e 	sfmeq	f2, 4, [r5], {14}
 3a8:	0f054a06 	svceq	0x00054a06
 3ac:	16052106 	strne	r2, [r5], -r6, lsl #2
 3b0:	20052006 	andcs	r2, r5, r6
 3b4:	2009054a 	andcs	r0, r9, sl, asr #10
 3b8:	05053e06 	streq	r3, [r5, #-3590]	; 0xfffff1fa
 3bc:	301105c9 	andscc	r0, r1, r9, asr #11
 3c0:	2e060b05 	vmlacs.f64	d0, d6, d5
 3c4:	21061105 	tstcs	r6, r5, lsl #2
 3c8:	2e060b05 	vmlacs.f64	d0, d6, d5
 3cc:	22061605 	andcs	r1, r6, #5242880	; 0x500000
 3d0:	2e060b05 	vmlacs.f64	d0, d6, d5
 3d4:	21060505 	tstcs	r6, r5, lsl #10
 3d8:	10031405 	andne	r1, r3, r5, lsl #8
 3dc:	061305c8 	ldreq	r0, [r3], -r8, asr #11
 3e0:	201a0520 	andscs	r0, sl, r0, lsr #10
 3e4:	052e2b05 	streq	r2, [lr, #-2821]!	; 0xfffff4fb
 3e8:	08052012 	stmdaeq	r5, {r1, r4, sp}
 3ec:	0609054a 	streq	r0, [r9], -sl, asr #10
 3f0:	c905053d 	stmdbgt	r5, {r0, r2, r3, r4, r5, r8, sl}
 3f4:	05300e05 	ldreq	r0, [r0, #-3589]!	; 0xfffff1fb
 3f8:	0520060d 	streq	r0, [r0, #-1549]!	; 0xfffff9f3
 3fc:	0c052014 	stceq	0, cr2, [r5], {20}
 400:	6605052e 	strvs	r0, [r5], -lr, lsr #10
 404:	01001b02 	tsteq	r0, r2, lsl #22
 408:	00030401 	andeq	r0, r3, r1, lsl #8
 40c:	143c0205 	ldrtne	r0, [ip], #-517	; 0xfffffdfb
 410:	e8030000 	stmda	r3, {}	; <UNPREDICTABLE>
 414:	0e050101 	adfeqs	f0, f5, f1
 418:	0d05750a 	cfstr32eq	mvfx7, [r5, #-40]	; 0xffffffd8
 41c:	14052006 	strne	r2, [r5], #-6
 420:	2e0c0520 	cfsh32cs	mvfx0, mvfx12, #16
 424:	029e0505 	addseq	r0, lr, #20971520	; 0x1400000
 428:	01010005 	tsteq	r1, r5
 42c:	05000304 	streq	r0, [r0, #-772]	; 0xfffffcfc
 430:	00147002 	andseq	r7, r4, r2
 434:	00e00300 	rsceq	r0, r0, r0, lsl #6
 438:	0a050501 	beq	141844 <_end+0x13d83c>
 43c:	0801053d 	stmdaeq	r1, {r0, r2, r3, r4, r5, r8, sl}
 440:	000a022f 	andeq	r0, sl, pc, lsr #4
 444:	010b0101 	tsteq	fp, r1, lsl #2
 448:	00020000 	andeq	r0, r2, r0
 44c:	000000e3 	andeq	r0, r0, r3, ror #1
 450:	0efb0102 	cdpeq	1, 15, cr0, cr11, cr2, {0}
 454:	0101000d 	tsteq	r1, sp
 458:	00000101 	andeq	r0, r0, r1, lsl #2
 45c:	00000100 	andeq	r0, r0, r0, lsl #2
 460:	72702f01 	rsbsvc	r2, r0, #1, 30
 464:	6172676f 	cmnvs	r2, pc, ror #14
 468:	646e2f6d 	strbtvs	r2, [lr], #-3949	; 0xfffff093
 46c:	79732f6b 	ldmdbvc	r3!, {r0, r1, r3, r5, r6, r8, r9, sl, fp, sp}^
 470:	6f6f7273 	svcvs	0x006f7273
 474:	73752f74 	cmnvc	r5, #116, 30	; 0x1d0
 478:	6e692f72 	mcrvs	15, 3, r2, cr9, cr2, {3}
 47c:	64756c63 	ldrbtvs	r6, [r5], #-3171	; 0xfffff39d
 480:	6d2f0065 	stcvs	0, cr0, [pc, #-404]!	; 2f4 <note_end+0x128>
 484:	726f7779 	rsbvc	r7, pc, #31719424	; 0x1e40000
 488:	69672f6b 	stmdbvs	r7!, {r0, r1, r3, r5, r6, r8, r9, sl, fp, sp}^
 48c:	62756874 	rsbsvs	r6, r5, #116, 16	; 0x740000
 490:	646e612f 	strbtvs	r6, [lr], #-303	; 0xfffffed1
 494:	64696f72 	strbtvs	r6, [r9], #-3954	; 0xfffff08e
 498:	65766572 	ldrbvs	r6, [r6, #-1394]!	; 0xfffffa8e
 49c:	2f657372 	svccs	0x00657372
 4a0:	73617263 	cmnvc	r1, #805306374	; 0x30000006
 4a4:	72732f68 	rsbsvc	r2, r3, #104, 30	; 0x1a0
 4a8:	616d2f63 	cmnvs	sp, r3, ror #30
 4ac:	632f6e69 			; <UNDEFINED> instruction: 0x632f6e69
 4b0:	2f007070 	svccs	0x00007070
 4b4:	676f7270 			; <UNDEFINED> instruction: 0x676f7270
 4b8:	2f6d6172 	svccs	0x006d6172
 4bc:	2f6b646e 	svccs	0x006b646e
 4c0:	6c6f6f74 	stclvs	15, cr6, [pc], #-464	; 2f8 <note_end+0x12c>
 4c4:	69616863 	stmdbvs	r1!, {r0, r1, r5, r6, fp, sp, lr}^
 4c8:	6c2f736e 	stcvs	3, cr7, [pc], #-440	; 318 <note_end+0x14c>
 4cc:	2f6d766c 	svccs	0x006d766c
 4d0:	62657270 	rsbvs	r7, r5, #112, 4
 4d4:	746c6975 	strbtvc	r6, [ip], #-2421	; 0xfffff68b
 4d8:	7261642f 	rsbvc	r6, r1, #788529152	; 0x2f000000
 4dc:	2d6e6977 			; <UNDEFINED> instruction: 0x2d6e6977
 4e0:	5f363878 	svcpl	0x00363878
 4e4:	6c2f3436 	cfstrsvs	mvf3, [pc], #-216	; 414 <note_end+0x248>
 4e8:	34366269 	ldrtcc	r6, [r6], #-617	; 0xfffffd97
 4ec:	616c632f 	cmnvs	ip, pc, lsr #6
 4f0:	352f676e 	strcc	r6, [pc, #-1902]!	; fffffd8a <_end+0xffffbd82>
 4f4:	332e302e 			; <UNDEFINED> instruction: 0x332e302e
 4f8:	38303030 	ldmdacc	r0!, {r4, r5, ip, sp}
 4fc:	6e692f30 	mcrvs	15, 3, r2, cr9, cr0, {1}
 500:	64756c63 	ldrbtvs	r6, [r5], #-3171	; 0xfffff39d
 504:	6a000065 	bvs	6a0 <note_end+0x4d4>
 508:	682e696e 	stmdavs	lr!, {r1, r2, r3, r5, r6, r8, fp, sp, lr}
 50c:	00000100 	andeq	r0, r0, r0, lsl #2
 510:	69647473 	stmdbvs	r4!, {r0, r1, r4, r5, r6, sl, ip, sp, lr}^
 514:	682e746e 	stmdavs	lr!, {r1, r2, r3, r5, r6, sl, ip, sp, lr}
 518:	00000100 	andeq	r0, r0, r0, lsl #2
 51c:	64616f6c 	strbtvs	r6, [r1], #-3948	; 0xfffff094
 520:	0200632e 	andeq	r6, r0, #-1207959552	; 0xb8000000
 524:	74730000 	ldrbtvc	r0, [r3], #-0
 528:	67726164 	ldrbvs	r6, [r2, -r4, ror #2]!
 52c:	0300682e 	movweq	r6, #2094	; 0x82e
 530:	04000000 	streq	r0, [r0], #-0
 534:	02050003 	andeq	r0, r5, #3
 538:	000014b0 			; <UNDEFINED> instruction: 0x000014b0
 53c:	0a0e051a 	beq	3819ac <_end+0x37d9a4>
 540:	060c0559 			; <UNDEFINED> instruction: 0x060c0559
 544:	060a0520 	streq	r0, [sl], -r0, lsr #10
 548:	4b0d054c 	blmi	341a80 <_end+0x33da78>
 54c:	20060505 	andcs	r0, r6, r5, lsl #10
 550:	01000702 	tsteq	r0, r2, lsl #14
 554:	00053e01 	andeq	r3, r5, r1, lsl #28
 558:	94000200 	strls	r0, [r0], #-512	; 0xfffffe00
 55c:	02000001 	andeq	r0, r0, #1
 560:	0d0efb01 	vstreq	d15, [lr, #-4]
 564:	01010100 	mrseq	r0, (UNDEF: 17)
 568:	00000001 	andeq	r0, r0, r1
 56c:	01000001 	tsteq	r0, r1
 570:	6c6f562f 	stclvs	6, cr5, [pc], #-188	; 4bc <note_end+0x2f0>
 574:	73656d75 	cmnvc	r5, #7488	; 0x1d40
 578:	646e412f 	strbtvs	r4, [lr], #-303	; 0xfffffed1
 57c:	64696f72 	strbtvs	r6, [r9], #-3954	; 0xfffff08e
 580:	6975622f 	ldmdbvs	r5!, {r0, r1, r2, r3, r5, r9, sp, lr}^
 584:	6f62646c 	svcvs	0x0062646c
 588:	72732f74 	rsbsvc	r2, r3, #116, 30	; 0x1d0
 58c:	6e612f63 	cdpvs	15, 6, cr2, cr1, cr3, {3}
 590:	696f7264 	stmdbvs	pc!, {r2, r5, r6, r9, ip, sp, lr}^	; <UNPREDICTABLE>
 594:	63672f64 	cmnvs	r7, #100, 30	; 0x190
 598:	6f742f63 	svcvs	0x00742f63
 59c:	68636c6f 	stmdavs	r3!, {r0, r1, r2, r3, r5, r6, sl, fp, sp, lr}^
 5a0:	2f6e6961 	svccs	0x006e6961
 5a4:	6c697562 	cfstr64vs	mvdx7, [r9], #-392	; 0xfffffe78
 5a8:	2e2e2f64 	cdpcs	15, 2, cr2, cr14, cr4, {3}
 5ac:	6363672f 	cmnvs	r3, #12320768	; 0xbc0000
 5b0:	6363672f 	cmnvs	r3, #12320768	; 0xbc0000
 5b4:	392e342d 	stmdbcc	lr!, {r0, r2, r3, r5, sl, ip, sp}
 5b8:	62696c2f 	rsbvs	r6, r9, #12032	; 0x2f00
 5bc:	2f636367 	svccs	0x00636367
 5c0:	666e6f63 	strbtvs	r6, [lr], -r3, ror #30
 5c4:	612f6769 			; <UNDEFINED> instruction: 0x612f6769
 5c8:	2f006d72 	svccs	0x00006d72
 5cc:	756c6f56 	strbvc	r6, [ip, #-3926]!	; 0xfffff0aa
 5d0:	2f73656d 	svccs	0x0073656d
 5d4:	72646e41 	rsbvc	r6, r4, #1040	; 0x410
 5d8:	2f64696f 	svccs	0x0064696f
 5dc:	6c697562 	cfstr64vs	mvdx7, [r9], #-392	; 0xfffffe78
 5e0:	746f6264 	strbtvc	r6, [pc], #-612	; 5e8 <note_end+0x41c>
 5e4:	6372732f 	cmnvs	r2, #-1140850688	; 0xbc000000
 5e8:	646e612f 	strbtvs	r6, [lr], #-303	; 0xfffffed1
 5ec:	64696f72 	strbtvs	r6, [r9], #-3954	; 0xfffff08e
 5f0:	6363672f 	cmnvs	r3, #12320768	; 0xbc0000
 5f4:	6f6f742f 	svcvs	0x006f742f
 5f8:	6168636c 	cmnvs	r8, ip, ror #6
 5fc:	622f6e69 	eorvs	r6, pc, #1680	; 0x690
 600:	646c6975 	strbtvs	r6, [ip], #-2421	; 0xfffff68b
 604:	2f2e2e2f 	svccs	0x002e2e2f
 608:	2f636367 	svccs	0x00636367
 60c:	2d636367 	stclcs	3, cr6, [r3, #-412]!	; 0xfffffe64
 610:	2f392e34 	svccs	0x00392e34
 614:	6762696c 	strbvs	r6, [r2, -ip, ror #18]!
 618:	2e006363 	cdpcs	3, 0, cr6, cr0, cr3, {3}
 61c:	6f562f00 	svcvs	0x00562f00
 620:	656d756c 	strbvs	r7, [sp, #-1388]!	; 0xfffffa94
 624:	6e412f73 	mcrvs	15, 2, r2, cr1, cr3, {3}
 628:	696f7264 	stmdbvs	pc!, {r2, r5, r6, r9, ip, sp, lr}^	; <UNPREDICTABLE>
 62c:	75622f64 	strbvc	r2, [r2, #-3940]!	; 0xfffff09c
 630:	62646c69 	rsbvs	r6, r4, #26880	; 0x6900
 634:	742f746f 	strtvc	r7, [pc], #-1135	; 63c <note_end+0x470>
 638:	622f706d 	eorvs	r7, pc, #109	; 0x6d
 63c:	646c6975 	strbtvs	r6, [ip], #-2421	; 0xfffff68b
 640:	6f6f742f 	svcvs	0x006f742f
 644:	6168636c 	cmnvs	r8, ip, ror #6
 648:	672f6e69 	strvs	r6, [pc, -r9, ror #28]!
 64c:	342d6363 	strtcc	r6, [sp], #-867	; 0xfffffc9d
 650:	672f392e 	strvs	r3, [pc, -lr, lsr #18]!
 654:	692f6363 	stmdbvs	pc!, {r0, r1, r5, r6, r8, r9, sp, lr}	; <UNPREDICTABLE>
 658:	756c636e 	strbvc	r6, [ip, #-878]!	; 0xfffffc92
 65c:	2f006564 	svccs	0x00006564
 660:	2f706d74 	svccs	0x00706d74
 664:	36353462 	ldrtcc	r3, [r5], -r2, ror #8
 668:	38636136 	stmdacc	r3!, {r1, r2, r4, r5, r8, sp, lr}^
 66c:	61376261 	teqvs	r7, r1, ror #4
 670:	39333038 	ldmdbcc	r3!, {r3, r4, r5, ip, sp}
 674:	66306265 	ldrtvs	r6, [r0], -r5, ror #4
 678:	62373930 	eorsvs	r3, r7, #48, 18	; 0xc0000
 67c:	65326362 	ldrvs	r6, [r2, #-866]!	; 0xfffffc9e
 680:	61663133 	cmnvs	r6, r3, lsr r1
 684:	7379732f 	cmnvc	r9, #-1140850688	; 0xbc000000
 688:	746f6f72 	strbtvc	r6, [pc], #-3954	; 690 <note_end+0x4c4>
 68c:	7273752f 	rsbsvc	r7, r3, #197132288	; 0xbc00000
 690:	636e692f 	cmnvs	lr, #770048	; 0xbc000
 694:	6564756c 	strbvs	r7, [r4, #-1388]!	; 0xfffffa94
 698:	6e750000 	cdpvs	0, 7, cr0, cr5, cr0, {0}
 69c:	646e6977 	strbtvs	r6, [lr], #-2423	; 0xfffff689
 6a0:	6d72612d 	ldfvse	f6, [r2, #-180]!	; 0xffffff4c
 6a4:	0100632e 	tsteq	r0, lr, lsr #6
 6a8:	6e750000 	cdpvs	0, 7, cr0, cr5, cr0, {0}
 6ac:	646e6977 	strbtvs	r6, [lr], #-2423	; 0xfffff689
 6b0:	6d72612d 	ldfvse	f6, [r2, #-180]!	; 0xffffff4c
 6b4:	6d6f632d 	stclvs	3, cr6, [pc, #-180]!	; 608 <note_end+0x43c>
 6b8:	2e6e6f6d 	cdpcs	15, 6, cr6, cr14, cr13, {3}
 6bc:	00636e69 	rsbeq	r6, r3, r9, ror #28
 6c0:	75000002 	strvc	r0, [r0, #-2]
 6c4:	6e69776e 	cdpvs	7, 6, cr7, cr9, cr14, {3}
 6c8:	00682e64 	rsbeq	r2, r8, r4, ror #28
 6cc:	75000003 	strvc	r0, [r0, #-3]
 6d0:	6e69776e 	cdpvs	7, 6, cr7, cr9, cr14, {3}
 6d4:	72612d64 	rsbvc	r2, r1, #100, 26	; 0x1900
 6d8:	6f632d6d 	svcvs	0x00632d6d
 6dc:	6e6f6d6d 	cdpvs	13, 6, cr6, cr15, cr13, {3}
 6e0:	0400682e 	streq	r6, [r0], #-2094	; 0xfffff7d2
 6e4:	74730000 	ldrbtvc	r0, [r3], #-0
 6e8:	62696c64 	rsbvs	r6, r9, #100, 24	; 0x6400
 6ec:	0500682e 	streq	r6, [r0, #-2094]	; 0xfffff7d2
 6f0:	00000000 	andeq	r0, r0, r0
 6f4:	14dc0205 	ldrbne	r0, [ip], #517	; 0x205
 6f8:	c6030000 	strgt	r0, [r3], -r0
 6fc:	22150103 	andscs	r0, r5, #-1073741824	; 0xc0000000
 700:	04313e21 	ldrteq	r3, [r1], #-3617	; 0xfffff1df
 704:	7dcc0302 	stclvc	3, cr0, [ip, #8]
 708:	24332e2e 	ldrtcs	r2, [r3], #-3630	; 0xfffff1d2
 70c:	59242f1f 	stmdbpl	r4!, {r0, r1, r2, r3, r4, r8, r9, sl, fp, sp}
 710:	3e5c3d67 	cdpcc	13, 5, cr3, cr12, cr7, {3}
 714:	3c780330 	ldclcc	3, cr0, [r8], #-192	; 0xffffff40
 718:	31200a03 			; <UNDEFINED> instruction: 0x31200a03
 71c:	033c6903 	teqeq	ip, #49152	; 0xc000
 720:	0b034a0e 	bleq	d2f60 <_end+0xcef58>
 724:	0301042e 	movweq	r0, #5166	; 0x142e
 728:	134a0299 	movtne	r0, #41625	; 0xa299
 72c:	3f4d4d69 	svccc	0x004d4d69
 730:	03020422 	movweq	r0, #9250	; 0x2422
 734:	03747de0 	cmneq	r4, #224, 26	; 0x3800
 738:	77030109 	strvc	r0, [r3, -r9, lsl #2]
 73c:	200b0320 	andcs	r0, fp, r0, lsr #6
 740:	032e7503 			; <UNDEFINED> instruction: 0x032e7503
 744:	22222009 	eorcs	r2, r2, #9
 748:	1f21224c 	svcne	0x0021224c
 74c:	4c853421 	cfstrsmi	mvf3, [r5], {33}	; 0x21
 750:	02003141 	andeq	r3, r0, #1073741840	; 0x40000010
 754:	232b0104 			; <UNDEFINED> instruction: 0x232b0104
 758:	211f2122 	tstcs	pc, r2, lsr #2
 75c:	35214d25 	strcc	r4, [r1, #-3365]!	; 0xfffff2db
 760:	1c261e2f 	stcne	14, cr1, [r6], #-188	; 0xffffff44
 764:	0c034024 	stceq	0, cr4, [r3], {36}	; 0x24
 768:	0402004a 	streq	r0, [r2], #-74	; 0xffffffb6
 76c:	20740301 	rsbscs	r0, r4, r1, lsl #6
 770:	48200c03 	stmdami	r0!, {r0, r1, sl, fp}
 774:	01040200 	mrseq	r0, R12_usr
 778:	22062e06 	andcs	r2, r6, #6, 28	; 0x60
 77c:	03010421 	movweq	r0, #5153	; 0x1421
 780:	13827eea 	orrne	r7, r2, #3744	; 0xea0
 784:	3021201f 	eorcc	r2, r1, pc, lsl r0
 788:	3d313e59 	ldccc	14, cr3, [r1, #-356]!	; 0xfffffe9c
 78c:	3d4b3d4c 	stclcc	13, cr3, [fp, #-304]	; 0xfffffed0
 790:	03042d2f 	movweq	r2, #19759	; 0x4d2f
 794:	3c7f9d03 	ldclcc	13, cr9, [pc], #-12	; 790 <note_end+0x5c4>
 798:	03272217 			; <UNDEFINED> instruction: 0x03272217
 79c:	10032e7a 	andne	r2, r3, sl, ror lr
 7a0:	04172320 	ldreq	r2, [r7], #-800	; 0xfffffce0
 7a4:	2e350302 	cdpcs	3, 3, cr0, cr5, cr2, {0}
 7a8:	01960318 	orrseq	r0, r6, r8, lsl r3
 7ac:	30674220 	rsbcc	r4, r7, r0, lsr #4
 7b0:	31233923 			; <UNDEFINED> instruction: 0x31233923
 7b4:	04020030 	streq	r0, [r2], #-48	; 0xffffffd0
 7b8:	02003101 	andeq	r3, r0, #1073741824	; 0x40000000
 7bc:	4a060204 	bmi	180fd4 <_end+0x17cfcc>
 7c0:	09034406 	stmdbeq	r3, {r1, r2, sl, lr}
 7c4:	2078032e 	rsbscs	r0, r8, lr, lsr #6
 7c8:	032c222d 			; <UNDEFINED> instruction: 0x032c222d
 7cc:	77032009 	strvc	r2, [r3, -r9]
 7d0:	2e090320 	cdpcs	3, 0, cr0, cr9, cr0, {1}
 7d4:	032e1b03 			; <UNDEFINED> instruction: 0x032e1b03
 7d8:	1d772e65 	ldclne	14, cr2, [r7, #-404]!	; 0xfffffe6c
 7dc:	200a0331 	andcs	r0, sl, r1, lsr r3
 7e0:	22307a4e 	eorscs	r7, r0, #319488	; 0x4e000
 7e4:	5b312248 	blpl	c4910c <_end+0xc45104>
 7e8:	2e10032b 	cdpcs	3, 1, cr0, cr0, cr11, {1}
 7ec:	7623301e 			; <UNDEFINED> instruction: 0x7623301e
 7f0:	30762323 	rsbscc	r2, r6, r3, lsr #6
 7f4:	02040200 	andeq	r0, r4, #0, 4
 7f8:	04020035 	streq	r0, [r2], #-53	; 0xffffffcb
 7fc:	064a0604 	strbeq	r0, [sl], -r4, lsl #12
 800:	033c7003 	teqeq	ip, #3
 804:	0b033c11 	bleq	cf850 <_end+0xcb848>
 808:	0b03144a 	bleq	c5938 <_end+0xc1930>
 80c:	361b172e 	ldrcc	r1, [fp], -lr, lsr #14
 810:	bc441b1d 	vmovlt	d13, r1, r4
 814:	04020042 	streq	r0, [r2], #-66	; 0xffffffbe
 818:	06580601 	ldrbeq	r0, [r8], -r1, lsl #12
 81c:	231d4d24 	tstcs	sp, #36, 26	; 0x900
 820:	4b353d24 	blmi	d4fcb8 <_end+0xd4bcb0>
 824:	224a0d03 	subcs	r0, sl, #3, 26	; 0xc0
 828:	21261c23 			; <UNDEFINED> instruction: 0x21261c23
 82c:	2036222b 	eorscs	r2, r6, fp, lsr #4
 830:	1e261c24 	cdpne	12, 2, cr1, cr6, cr4, {1}
 834:	5b512222 	blpl	14490c4 <_end+0x14450bc>
 838:	04020052 	streq	r0, [r2], #-82	; 0xffffffae
 83c:	02004601 	andeq	r4, r0, #1048576	; 0x100000
 840:	4a060204 	bmi	181058 <_end+0x17d050>
 844:	0a034306 	beq	d1464 <_end+0xcd45c>
 848:	312f132e 			; <UNDEFINED> instruction: 0x312f132e
 84c:	13283430 			; <UNDEFINED> instruction: 0x13283430
 850:	0421211f 	strteq	r2, [r1], #-287	; 0xfffffee1
 854:	7d860301 	stcvc	3, cr0, [r6, #4]
 858:	2177233c 	cmncs	r7, ip, lsr r3
 85c:	341f4b30 	ldrcc	r4, [pc], #-2864	; 864 <note_end+0x698>
 860:	032e7903 			; <UNDEFINED> instruction: 0x032e7903
 864:	0404200c 	streq	r2, [r4], #-12
 868:	202e2903 	eorcs	r2, lr, r3, lsl #18
 86c:	01046822 	tsteq	r4, r2, lsr #16
 870:	234a5d03 	movtcs	r5, #44291	; 0xad03
 874:	59312177 	ldmdbpl	r1!, {r0, r1, r2, r4, r5, r6, r8, sp}
 878:	2e780333 	mrccs	3, 3, r0, cr8, cr3, {1}
 87c:	04200d03 	strteq	r0, [r0], #-3331	; 0xfffff2fd
 880:	2e150304 	cdpcs	3, 1, cr0, cr5, cr4, {0}
 884:	2f1f2f20 	svccs	0x001f2f20
 888:	03020459 	movweq	r0, #9305	; 0x2459
 88c:	1a2e02bb 	bne	b81380 <_end+0xb7d378>
 890:	03207803 			; <UNDEFINED> instruction: 0x03207803
 894:	031d2e0b 	tsteq	sp, #11, 28	; 0xb0
 898:	0b032078 	bleq	c8a80 <_end+0xc4a78>
 89c:	411bc14a 	tstmi	fp, sl, asr #2
 8a0:	01040200 	mrseq	r0, R12_usr
 8a4:	22064a06 	andcs	r4, r6, #24576	; 0x6000
 8a8:	5b2e0903 	blpl	b82cbc <_end+0xb7ecb4>
 8ac:	01040200 	mrseq	r0, R12_usr
 8b0:	36063c06 	strcc	r3, [r6], -r6, lsl #24
 8b4:	00251b5d 	eoreq	r1, r5, sp, asr fp
 8b8:	06010402 	streq	r0, [r1], -r2, lsl #8
 8bc:	3e3e0620 	cfmsuba32cc	mvax1, mvax0, mvfx14, mvfx0
 8c0:	03580c03 	cmpeq	r8, #768	; 0x300
 8c4:	74033c0c 	strvc	r3, [r3], #-3084	; 0xfffff3f4
 8c8:	0a032020 	beq	c8950 <_end+0xc4948>
 8cc:	73033120 	movwvc	r3, #12576	; 0x3120
 8d0:	200d0320 	andcs	r0, sp, r0, lsr #6
 8d4:	221f1f22 	andscs	r1, pc, #34, 30	; 0x88
 8d8:	222d2122 	eorcs	r2, sp, #-2147483640	; 0x80000008
 8dc:	303d304c 	eorscc	r3, sp, ip, asr #32
 8e0:	31323d1f 	teqcc	r2, pc, lsl sp
 8e4:	6b5b301e 	blvs	16cc964 <_end+0x16c895c>
 8e8:	032e0d03 			; <UNDEFINED> instruction: 0x032e0d03
 8ec:	03422077 	movteq	r2, #8311	; 0x2077
 8f0:	0b032079 	bleq	c8adc <_end+0xc4ad4>
 8f4:	333b292e 	teqcc	fp, #753664	; 0xb8000
 8f8:	02003d3d 	andeq	r3, r0, #3904	; 0xf40
 8fc:	2e060104 	adfcss	f0, f6, f4
 900:	04040200 	streq	r0, [r4], #-512	; 0xfffffe00
 904:	cc220682 	stcgt	6, cr0, [r2], #-520	; 0xfffffdf8
 908:	1d3f343d 	cfldrsne	mvf3, [pc, #-244]!	; 81c <note_end+0x650>
 90c:	04020024 	streq	r0, [r2], #-36	; 0xffffffdc
 910:	063c0601 	ldrteq	r0, [ip], -r1, lsl #12
 914:	4a09033f 	bmi	241618 <_end+0x23d610>
 918:	1b25243e 	blne	949a18 <_end+0x945a10>
 91c:	3d1f4133 	ldfccs	f4, [pc, #-204]	; 858 <note_end+0x68c>
 920:	222c3e23 	eorcs	r3, ip, #560	; 0x230
 924:	314f3144 	cmpcc	pc, r4, asr #2
 928:	20720333 	rsbscs	r0, r2, r3, lsr r3
 92c:	03200903 			; <UNDEFINED> instruction: 0x03200903
 930:	02004a0c 	andeq	r4, r0, #12, 20	; 0xc000
 934:	58060104 	stmdapl	r6, {r2, r8}
 938:	34422f06 	strbcc	r2, [r2], #-3846	; 0xfffff0fa
 93c:	3e3e232f 	cdpcc	3, 3, cr2, cr14, cr15, {1}
 940:	01040200 	mrseq	r0, R12_usr
 944:	02002e06 	andeq	r2, r0, #6, 28	; 0x60
 948:	063c0204 	ldrteq	r0, [ip], -r4, lsl #4
 94c:	392e0c03 	stmdbcc	lr!, {r0, r1, sl, fp}
 950:	01040200 	mrseq	r0, R12_usr
 954:	2d22303a 	stccs	0, cr3, [r2, #-232]!	; 0xffffff18
 958:	2c30212d 	ldfcss	f2, [r0], #-180	; 0xffffff4c
 95c:	04020022 	streq	r0, [r2], #-34	; 0xffffffde
 960:	063c0601 	ldrteq	r0, [ip], -r1, lsl #12
 964:	003c1103 	eorseq	r1, ip, r3, lsl #2
 968:	06010402 	streq	r0, [r1], -r2, lsl #8
 96c:	422f0666 	eormi	r0, pc, #106954752	; 0x6600000
 970:	21221e2f 			; <UNDEFINED> instruction: 0x21221e2f
 974:	4c223e30 	stcmi	14, cr3, [r2], #-192	; 0xffffff40
 978:	4e3d221e 	mrcmi	2, 1, r2, cr13, cr14, {0}
 97c:	211e2230 	tstcs	lr, r0, lsr r2
 980:	b0032f2f 	andlt	r2, r3, pc, lsr #30
 984:	da03207e 	ble	c8b84 <_end+0xc4b7c>
 988:	413f2e01 	teqmi	pc, r1, lsl #28
 98c:	01040200 	mrseq	r0, R12_usr
 990:	24064a06 	strcs	r4, [r6], #-2566	; 0xfffff5fa
 994:	02002936 	andeq	r2, r0, #884736	; 0xd8000
 998:	4a060204 	bmi	1811b0 <_end+0x17d1a8>
 99c:	04020020 	streq	r0, [r2], #-32	; 0xffffffe0
 9a0:	3d062002 	stccc	0, cr2, [r6, #-8]
 9a4:	2e690375 	mcrcs	3, 3, r0, cr9, cr5, {3}
 9a8:	4b2e5903 	blmi	b96dbc <_end+0xb92db4>
 9ac:	211e241e 	tstcs	lr, lr, lsl r4
 9b0:	2000c003 	andcs	ip, r0, r3
 9b4:	96030104 	strls	r0, [r3], -r4, lsl #2
 9b8:	3513667d 	ldrcc	r6, [r3, #-1661]	; 0xfffff983
 9bc:	03133513 	tsteq	r3, #79691776	; 0x4c00000
 9c0:	4a2e7dde 	bmi	ba0140 <_end+0xb9c138>
 9c4:	1f327c31 	svcne	0x00327c31
 9c8:	00592421 	subseq	r2, r9, r1, lsr #8
 9cc:	63010402 	movwvs	r0, #5122	; 0x1402
 9d0:	12033d34 	andne	r3, r3, #52, 26	; 0xd00
 9d4:	73034b2e 	movwvc	r4, #15150	; 0x3b2e
 9d8:	0c032f20 	stceq	15, cr2, [r3], {32}
 9dc:	00f30320 	rscseq	r0, r3, r0, lsr #6
 9e0:	2e7a034a 	cdpcs	3, 7, cr0, cr10, cr10, {2}
 9e4:	04020021 	streq	r0, [r2], #-33	; 0xffffffdf
 9e8:	3f3f2501 	svccc	0x003f2501
 9ec:	2925503d 	stmdbcs	r5!, {r0, r2, r3, r4, r5, ip, lr}
 9f0:	5b2f3f4e 	blpl	bd0730 <_end+0xbcc728>
 9f4:	4a0a0323 	bmi	281688 <_end+0x27d680>
 9f8:	01040200 	mrseq	r0, R12_usr
 9fc:	31062006 	tstcc	r6, r6
 a00:	4c503d3f 	mrrcmi	13, 3, r3, r0, cr15
 a04:	004b2121 	subeq	r2, fp, r1, lsr #2
 a08:	56020402 	strpl	r0, [r2], -r2, lsl #8
 a0c:	01040200 	mrseq	r0, R12_usr
 a10:	33062006 	movwcc	r2, #24582	; 0x6006
 a14:	04020023 	streq	r0, [r2], #-35	; 0xffffffdd
 a18:	7ed00304 	cdpvc	3, 13, cr0, cr0, cr4, {0}
 a1c:	0402004a 	streq	r0, [r2], #-74	; 0xffffffb6
 a20:	60032f01 	andvs	r2, r3, r1, lsl #30
 a24:	00f4033c 	rscseq	r0, r4, ip, lsr r3
 a28:	1d34212e 	ldfnes	f2, [r4, #-184]!	; 0xffffff48
 a2c:	92032123 	andls	r2, r3, #-1073741816	; 0xc0000008
 a30:	02003c7f 	andeq	r3, r0, #32512	; 0x7f00
 a34:	11030404 	tstne	r3, r4, lsl #8
 a38:	3941342e 	stmdbcc	r1, {r1, r2, r3, r5, sl, ip, sp}^
 a3c:	01040200 	mrseq	r0, R12_usr
 a40:	02002c31 	andeq	r2, r0, #12544	; 0x3100
 a44:	40260104 	eormi	r0, r6, r4, lsl #2
 a48:	3d235a1e 	vstmdbcc	r3!, {s10-s39}
 a4c:	032e0a03 			; <UNDEFINED> instruction: 0x032e0a03
 a50:	003f2e11 	eorseq	r2, pc, r1, lsl lr	; <UNPREDICTABLE>
 a54:	33020402 	movwcc	r0, #9218	; 0x2402
 a58:	211f2125 	tstcs	pc, r5, lsr #2
{
 a5c:	2f211f23 	svccs	0x00211f23
 a60:	4c32863d 	ldcmi	6, cr8, [r2], #-244	; 0xffffff0c
 a64:	10032f75 	andne	r2, r3, r5, ror pc
 a68:	2f3f3d58 	svccs	0x003f3d58
 a6c:	4a7fb603 	bmi	1fee280 <_end+0x1fea278>
    stream = popen("pwd", "r");
 a70:	3e21323d 	mcrcc	2, 1, r3, cr1, cr13, {1}
 a74:	41333559 	teqmi	r3, r9, asr r5
 a78:	01040200 	mrseq	r0, R12_usr
 a7c:	3c400340 	mcrrcc	3, 4, r0, r0, cr0
    fgets(ch, 1024, stream);
 a80:	01040200 	mrseq	r0, R12_usr
 a84:	382e1103 	stmdacc	lr!, {r0, r1, r8, ip}
 a88:	492e2603 	stmdbmi	lr!, {r0, r1, r9, sl, sp}
 a8c:	86034e2f 	strhi	r4, [r3], -pc, lsr #28
    LOGW("pwd: %s",ch);
 a90:	03024a01 	movweq	r4, #10753	; 0x2a01
 a94:	e0010100 	and	r0, r1, r0, lsl #2
 a98:	02000000 	andeq	r0, r0, #0
 a9c:	00007d00 	andeq	r7, r0, r0, lsl #26
 aa0:	fb010200 	blx	412aa <_end+0x3d2a2>
 aa4:	01000d0e 	tsteq	r0, lr, lsl #26
    pclose(stream);
 aa8:	00010101 	andeq	r0, r1, r1, lsl #2
 aac:	00010000 	andeq	r0, r1, r0
    stream = popen("ls", "r");
 ab0:	562f0100 	strtpl	r0, [pc], -r0, lsl #2
 ab4:	6d756c6f 	ldclvs	12, cr6, [r5, #-444]!	; 0xfffffe44
 ab8:	412f7365 			; <UNDEFINED> instruction: 0x412f7365
 abc:	6f72646e 	svcvs	0x0072646e
    if( NULL == stream )
 ac0:	622f6469 	eorvs	r6, pc, #1761607680	; 0x69000000
 ac4:	646c6975 	strbtvs	r6, [ip], #-2421	; 0xfffff68b
        LOGE("Unable to execute the command");
 ac8:	2f746f62 	svccs	0x00746f62
 acc:	2f637273 	svccs	0x00637273
 ad0:	72646e61 	rsbvc	r6, r4, #1552	; 0x610
 ad4:	2f64696f 	svccs	0x0064696f
 ad8:	2f636367 	svccs	0x00636367
 adc:	6c6f6f74 	stclvs	15, cr6, [pc], #-464	; 914 <__cxa_atexit@plt+0x8>
 ae0:	69616863 	stmdbvs	r1!, {r0, r1, r5, r6, fp, sp, lr}^
    }
 ae4:	75622f6e 	strbvc	r2, [r2, #-3950]!	; 0xfffff092
        while( NULL != fgets(buffer, 1024, stream))
 ae8:	2f646c69 	svccs	0x00646c69
 aec:	672f2e2e 	strvs	r2, [pc, -lr, lsr #28]!
 af0:	672f6363 	strvs	r6, [pc, -r3, ror #6]!
 af4:	342d6363 	strtcc	r6, [sp], #-867	; 0xfffffc9d
 af8:	6c2f392e 			; <UNDEFINED> instruction: 0x6c2f392e
            LOGE("read: %s", buffer);
 afc:	63676269 	cmnvs	r7, #-1879048186	; 0x90000006
 b00:	6f632f63 	svcvs	0x00632f63
 b04:	6769666e 	strbvs	r6, [r9, -lr, ror #12]!
 b08:	6d72612f 	ldfvse	f6, [r2, #-188]!	; 0xffffff44
 b0c:	696c0000 	stmdbvs	ip!, {}^	; <UNPREDICTABLE>
 b10:	776e7562 	strbvc	r7, [lr, -r2, ror #10]!
 b14:	2e646e69 	cdpcs	14, 6, cr6, cr4, cr9, {3}
        while( NULL != fgets(buffer, 1024, stream))
 b18:	00010053 	andeq	r0, r1, r3, asr r0
        status = pclose(stream);
 b1c:	05000000 	streq	r0, [r0, #-0]
 b20:	001e0802 	andseq	r0, lr, r2, lsl #16
        LOGW("process exited with status %d", status);
 b24:	01b30300 			; <UNDEFINED> instruction: 0x01b30300
 b28:	21332f01 	teqcs	r3, r1, lsl #30
 b2c:	2e090321 	cdpcs	3, 0, cr0, cr9, cr1, {1}
 b30:	10032131 	andne	r2, r3, r1, lsr r1
 b34:	2f352f20 	svccs	0x00352f20
 b38:	2f332f33 	svccs	0x00332f33
 b3c:	2f332f33 	svccs	0x00332f33
 b40:	2f2f2f33 	svccs	0x002f2f33
 b44:	2f2f2f2f 	svccs	0x002f2f2f
 b48:	2f2f2f2f 	svccs	0x002f2f2f
 b4c:	2f2f2f2f 	svccs	0x002f2f2f
 b50:	2f2f332f 	svccs	0x002f332f
}
 b54:	2f2f2f2f 	svccs	0x002f2f2f
 b58:	2f2f2f2f 	svccs	0x002f2f2f
 b5c:	2f2f2f2f 	svccs	0x002f2f2f
 b60:	2f332f2f 	svccs	0x00332f2f
 b64:	332f2f2f 			; <UNDEFINED> instruction: 0x332f2f2f
 b68:	2f2f2f2f 	svccs	0x002f2f2f
 b6c:	082e2e03 	stmdaeq	lr!, {r0, r1, r9, sl, fp, sp}
 b70:	08210821 	stmdaeq	r1!, {r0, r5, fp}
 b74:	08210821 	stmdaeq	r1!, {r0, r5, fp}
 b78:	b2010100 	andlt	r0, r1, #0, 2
 b7c:	02000001 	andeq	r0, r0, #1
 b80:	0000d700 	andeq	sp, r0, r0, lsl #14
 b84:	fb010200 	blx	4138e <_end+0x3d386>
 b88:	01000d0e 	tsteq	r0, lr, lsl #26
 b8c:	00010101 	andeq	r0, r1, r1, lsl #2
{
 b90:	00010000 	andeq	r0, r1, r0
 b94:	562f0100 	strtpl	r0, [pc], -r0, lsl #2
 b98:	6d756c6f 	ldclvs	12, cr6, [r5, #-444]!	; 0xfffffe44
 b9c:	412f7365 			; <UNDEFINED> instruction: 0x412f7365
    if(0 == __system_property_get("ro.product.model", value))
 ba0:	6f72646e 	svcvs	0x0072646e
 ba4:	622f6469 	eorvs	r6, pc, #1761607680	; 0x69000000
 ba8:	646c6975 	strbtvs	r6, [ip], #-2421	; 0xfffff68b
 bac:	2f746f62 	svccs	0x00746f62
        LOGE("error");
 bb0:	2f637273 	svccs	0x00637273
 bb4:	72646e61 	rsbvc	r6, r4, #1552	; 0x610
 bb8:	2f64696f 	svccs	0x0064696f
 bbc:	2f636367 	svccs	0x00636367
 bc0:	6c6f6f74 	stclvs	15, cr6, [pc], #-464	; 9f8 <abort@plt+0x8>
 bc4:	69616863 	stmdbvs	r1!, {r0, r1, r5, r6, fp, sp, lr}^
 bc8:	75622f6e 	strbvc	r2, [r2, #-3950]!	; 0xfffff092
    }
 bcc:	2f646c69 	svccs	0x00646c69
        LOGW("product model: %s", value);
 bd0:	672f2e2e 	strvs	r2, [pc, -lr, lsr #28]!
 bd4:	672f6363 	strvs	r6, [pc, -r3, ror #6]!
 bd8:	342d6363 	strtcc	r6, [sp], #-867	; 0xfffffc9d
 bdc:	6c2f392e 			; <UNDEFINED> instruction: 0x6c2f392e
 be0:	63676269 	cmnvs	r7, #-1879048186	; 0x90000006
 be4:	6f632f63 	svcvs	0x00632f63
 be8:	6769666e 	strbvs	r6, [r9, -lr, ror #12]!
 bec:	6d72612f 	ldfvse	f6, [r2, #-188]!	; 0xffffff44
    property = __system_property_find("ro.product.model");
 bf0:	6f562f00 	svcvs	0x00562f00
 bf4:	656d756c 	strbvs	r7, [sp, #-1388]!	; 0xfffffa94
    if( NULL == property )
 bf8:	6e412f73 	mcrvs	15, 2, r2, cr1, cr3, {3}
 bfc:	696f7264 	stmdbvs	pc!, {r2, r5, r6, r9, ip, sp, lr}^	; <UNPREDICTABLE>
        LOGE("error");
 c00:	75622f64 	strbvc	r2, [r2, #-3940]!	; 0xfffff09c
 c04:	62646c69 	rsbvs	r6, r4, #26880	; 0x6900
 c08:	742f746f 	strtvc	r7, [pc], #-1135	; c10 <testProperties+0x80>
 c0c:	622f706d 	eorvs	r7, pc, #109	; 0x6d
 c10:	646c6975 	strbtvs	r6, [ip], #-2421	; 0xfffff68b
 c14:	6f6f742f 	svcvs	0x006f742f
 c18:	6168636c 	cmnvs	r8, ip, ror #6
    }
 c1c:	672f6e69 	strvs	r6, [pc, -r9, ror #28]!
        if( 0 == __system_property_read(property, name, value))
 c20:	342d6363 	strtcc	r6, [sp], #-867	; 0xfffffc9d
 c24:	672f392e 	strvs	r3, [pc, -lr, lsr #18]!
 c28:	692f6363 	stmdbvs	pc!, {r0, r1, r5, r6, r8, r9, sp, lr}	; <UNPREDICTABLE>
 c2c:	756c636e 	strbvc	r6, [ip, #-878]!	; 0xfffffc92
            LOGE("is empty");
 c30:	00006564 	andeq	r6, r0, r4, ror #10
 c34:	732d7270 			; <UNDEFINED> instruction: 0x732d7270
 c38:	6f707075 	svcvs	0x00707075
 c3c:	632e7472 			; <UNDEFINED> instruction: 0x632e7472
 c40:	00000100 	andeq	r0, r0, r0, lsl #2
 c44:	69776e75 	ldmdbvs	r7!, {r0, r2, r4, r5, r6, r9, sl, fp, sp, lr}^
        }
 c48:	612d646e 			; <UNDEFINED> instruction: 0x612d646e
            LOGW("%s, %s", name, value);
 c4c:	632d6d72 			; <UNDEFINED> instruction: 0x632d6d72
 c50:	6f6d6d6f 	svcvs	0x006d6d6f
 c54:	00682e6e 	rsbeq	r2, r8, lr, ror #28
 c58:	00000002 	andeq	r0, r0, r2
 c5c:	b4020500 	strlt	r0, [r2], #-1280	; 0xfffffb00
 c60:	0300001f 	movweq	r0, #31
 c64:	150100d0 	strne	r0, [r1, #-208]	; 0xffffff30
 c68:	592f3031 	stmdbpl	pc!, {r0, r4, r5, ip, sp}	; <UNPREDICTABLE>
 c6c:	2f213131 	svccs	0x00213131
 c70:	032e7503 			; <UNDEFINED> instruction: 0x032e7503
 c74:	0204200c 	andeq	r2, r4, #12
 c78:	2000f803 	andcs	pc, r0, r3, lsl #16
 c7c:	01047623 	tsteq	r4, r3, lsr #12
 c80:	4a00f103 	bmi	3d094 <_end+0x3908c>
    return;
 c84:	7e960313 	mrcvc	3, 4, r0, cr6, cr3, {0}
 c88:	201b3320 	andscs	r3, fp, r0, lsr #6
 c8c:	211f3d36 	tstcs	pc, r6, lsr sp	; <UNPREDICTABLE>
 c90:	89843e23 	stmibhi	r4, {r0, r1, r5, r9, sl, fp, ip, sp}
 c94:	309d2f5d 	addscc	r2, sp, sp, asr pc
 c98:	3e2b342c 	cdpcc	4, 2, cr3, cr11, cr12, {1}
 c9c:	02004c41 	andeq	r4, r0, #16640	; 0x4100
 ca0:	4a060104 	bmi	1810b8 <_end+0x17d0b0>
 ca4:	313f2106 	teqcc	pc, r6, lsl #2
 ca8:	00212d21 	eoreq	r2, r1, r1, lsr #26
 cac:	06010402 	streq	r0, [r1], -r2, lsl #8
 cb0:	5b32063c 	blpl	c825a8 <_end+0xc7e5a0>
 cb4:	83ad4e31 			; <UNDEFINED> instruction: 0x83ad4e31
 cb8:	1d5b3322 	ldclne	3, cr3, [fp, #-136]	; 0xffffff78
 cbc:	1f311f21 	svcne	0x00311f21
 cc0:	3d303150 	ldfccs	f3, [r0, #-320]!	; 0xfffffec0
{
 cc4:	01040200 	mrseq	r0, R12_usr
 cc8:	40063c06 	andmi	r3, r6, r6, lsl #24
 ccc:	3d843341 	stccc	3, cr3, [r4, #260]	; 0x104
    LOGE("%s, %d, ", __FUNCTION__, a1);
 cd0:	2d2f682f 	stccs	8, cr6, [pc, #-188]!	; c1c <testProperties+0x8c>
 cd4:	1f3d6830 	svcne	0x003d6830
 cd8:	3e313221 	cdpcc	2, 3, cr3, cr1, cr1, {1}
 cdc:	5d33591f 			; <UNDEFINED> instruction: 0x5d33591f
 ce0:	4f211f2f 	svcmi	0x00211f2f
 ce4:	1f3e3130 	svcne	0x003e3130
 ce8:	3d304f59 	ldccc	15, cr4, [r0, #-356]!	; 0xfffffe9c
 cec:	01040200 	mrseq	r0, R12_usr
 cf0:	4e064a06 	vmlami.f32	s8, s12, s12
}
 cf4:	1f2f4d41 	svcne	0x002f4d41
 cf8:	3e314f21 	cdpcc	15, 3, cr4, cr1, cr1, {1}
 cfc:	3f4f671f 	svccc	0x004f671f
 d00:	52591f3e 	subspl	r1, r9, #62, 30	; 0xf8
 d04:	211f2f5b 	tstcs	pc, fp, asr pc	; <UNPREDICTABLE>
{
 d08:	01040200 	mrseq	r0, R12_usr
 d0c:	52066606 	andpl	r6, r6, #6291456	; 0x600000
 d10:	3c090321 	stccc	3, cr0, [r9], {33}	; 0x21
 d14:	20090324 	andcs	r0, r9, r4, lsr #6
 d18:	3d3d3d29 	ldccc	13, cr3, [sp, #-164]!	; 0xffffff5c
 d1c:	0e032f3e 	mcreq	15, 0, r2, cr3, cr14, {1}
 d20:	3430233c 	ldrtcc	r2, [r0], #-828	; 0xfffffcc4
 d24:	3f242f25 	svccc	0x00242f25
 d28:	21332135 	teqcs	r3, r5, lsr r1
 d2c:	01000202 	tsteq	r0, r2, lsl #4
 d30:	Address 0x0000000000000d30 is out of bounds.


Disassembly of section .debug_frame:

00000000 <.debug_frame>:
   0:	0000000c 	andeq	r0, r0, ip
   4:	ffffffff 			; <UNDEFINED> instruction: 0xffffffff
   8:	7c020001 	stcvc	0, cr0, [r2], {1}
   c:	000d0c0e 	andeq	r0, sp, lr, lsl #24
  10:	00000018 	andeq	r0, r0, r8, lsl r0
  14:	00000000 	andeq	r0, r0, r0
  18:	00000a5c 	andeq	r0, r0, ip, asr sl
  1c:	00000134 	andeq	r0, r0, r4, lsr r1
  20:	8e080e41 	cdphi	14, 0, cr0, cr8, cr1, {2}
  24:	41028701 	tstmi	r2, r1, lsl #14
  28:	0000070d 	andeq	r0, r0, sp, lsl #14
  2c:	00000018 	andeq	r0, r0, r8, lsl r0
  30:	00000000 	andeq	r0, r0, r0
  34:	00000b90 	muleq	r0, r0, fp
  38:	00000134 	andeq	r0, r0, r4, lsr r1
  3c:	8e080e41 	cdphi	14, 0, cr0, cr8, cr1, {2}
  40:	41028701 	tstmi	r2, r1, lsl #14
  44:	0000070d 	andeq	r0, r0, sp, lsl #14
  48:	00000018 	andeq	r0, r0, r8, lsl r0
  4c:	00000000 	andeq	r0, r0, r0
  50:	00000cc4 	andeq	r0, r0, r4, asr #25
  54:	00000044 	andeq	r0, r0, r4, asr #32
  58:	8e080e41 	cdphi	14, 0, cr0, cr8, cr1, {2}
  5c:	41028701 	tstmi	r2, r1, lsl #14
  60:	0000070d 	andeq	r0, r0, sp, lsl #14
  64:	00000028 	andeq	r0, r0, r8, lsr #32
  68:	00000000 	andeq	r0, r0, r0
  6c:	00000d08 	andeq	r0, r0, r8, lsl #26
  70:	00000304 	andeq	r0, r0, r4, lsl #6
  74:	8e140e41 	cdphi	14, 1, cr0, cr4, cr1, {2}
  78:	86028701 	strhi	r8, [r2], -r1, lsl #14
  7c:	84048503 	strhi	r8, [r4], #-1283	; 0xfffffafd
  80:	070c4105 	streq	r4, [ip, -r5, lsl #2]
  84:	068b4208 	streq	r4, [fp], r8, lsl #4
  88:	0889078a 	stmeq	r9, {r1, r3, r7, r8, r9, sl}
  8c:	00000988 	andeq	r0, r0, r8, lsl #19
  90:	00000018 	andeq	r0, r0, r8, lsl r0
  94:	00000000 	andeq	r0, r0, r0
  98:	0000100c 	andeq	r1, r0, ip
  9c:	00000050 	andeq	r0, r0, r0, asr r0
  a0:	8e080e41 	cdphi	14, 0, cr0, cr8, cr1, {2}
  a4:	41028701 	tstmi	r2, r1, lsl #14
  a8:	0000070d 	andeq	r0, r0, sp, lsl #14
  ac:	00000018 	andeq	r0, r0, r8, lsl r0
  b0:	00000000 	andeq	r0, r0, r0
  b4:	0000105c 	andeq	r1, r0, ip, asr r0
  b8:	00000048 	andeq	r0, r0, r8, asr #32
  bc:	8e080e41 	cdphi	14, 0, cr0, cr8, cr1, {2}
  c0:	41028701 	tstmi	r2, r1, lsl #14
  c4:	0000070d 	andeq	r0, r0, sp, lsl #14
  c8:	00000018 	andeq	r0, r0, r8, lsl r0
  cc:	00000000 	andeq	r0, r0, r0
  d0:	000010a4 	andeq	r1, r0, r4, lsr #1
  d4:	00000244 	andeq	r0, r0, r4, asr #4
  d8:	8e080e41 	cdphi	14, 0, cr0, cr8, cr1, {2}
  dc:	41028701 	tstmi	r2, r1, lsl #14
  e0:	0000070d 	andeq	r0, r0, sp, lsl #14
  e4:	00000018 	andeq	r0, r0, r8, lsl r0
  e8:	00000000 	andeq	r0, r0, r0
  ec:	000012e8 	andeq	r1, r0, r8, ror #5
  f0:	00000154 	andeq	r0, r0, r4, asr r1
  f4:	8e080e41 	cdphi	14, 0, cr0, cr8, cr1, {2}
  f8:	41028701 	tstmi	r2, r1, lsl #14
  fc:	0000070d 	andeq	r0, r0, sp, lsl #14
 100:	00000018 	andeq	r0, r0, r8, lsl r0
 104:	00000000 	andeq	r0, r0, r0
 108:	0000143c 	andeq	r1, r0, ip, lsr r4
 10c:	00000034 	andeq	r0, r0, r4, lsr r0
 110:	8e080e41 	cdphi	14, 0, cr0, cr8, cr1, {2}
 114:	41028701 	tstmi	r2, r1, lsl #14
 118:	0000070d 	andeq	r0, r0, sp, lsl #14
 11c:	00000018 	andeq	r0, r0, r8, lsl r0
 120:	00000000 	andeq	r0, r0, r0
 124:	00001470 	andeq	r1, r0, r0, ror r4
 128:	00000040 	andeq	r0, r0, r0, asr #32
 12c:	8e080e41 	cdphi	14, 0, cr0, cr8, cr1, {2}
 130:	41028701 	tstmi	r2, r1, lsl #14
 134:	0000070d 	andeq	r0, r0, sp, lsl #14
 138:	0000000c 	andeq	r0, r0, ip
 13c:	ffffffff 			; <UNDEFINED> instruction: 0xffffffff
 140:	7c020001 	stcvc	0, cr0, [r2], {1}
 144:	000d0c0e 	andeq	r0, sp, lr, lsl #24
 148:	00000010 	andeq	r0, r0, r0, lsl r0
 14c:	00000138 	andeq	r0, r0, r8, lsr r1
 150:	000014b0 			; <UNDEFINED> instruction: 0x000014b0
 154:	0000002c 	andeq	r0, r0, ip, lsr #32
 158:	00140e41 	andseq	r0, r4, r1, asr #28
 15c:	0000000c 	andeq	r0, r0, ip
 160:	ffffffff 			; <UNDEFINED> instruction: 0xffffffff
 164:	7c020001 	stcvc	0, cr0, [r2], {1}
 168:	000d0c0e 	andeq	r0, sp, lr, lsl #24
 16c:	0000000c 	andeq	r0, r0, ip
 170:	0000015c 	andeq	r0, r0, ip, asr r1
 174:	000014dc 	ldrdeq	r1, [r0], -ip
 178:	00000012 	andeq	r0, r0, r2, lsl r0
 17c:	00000024 	andeq	r0, r0, r4, lsr #32
 180:	0000015c 	andeq	r0, r0, ip, asr r1
 184:	000014ee 	andeq	r1, r0, lr, ror #9
 188:	00000068 	andeq	r0, r0, r8, rrx
 18c:	84300e42 	ldrthi	r0, [r0], #-3650	; 0xfffff1be
 190:	86088509 	strhi	r8, [r8], -r9, lsl #10
 194:	88068707 	stmdahi	r6, {r0, r1, r2, r8, r9, sl, pc}
 198:	8a048905 	bhi	1225b4 <_end+0x11e5ac>
 19c:	8e028b03 	vmlahi.f64	d8, d2, d3
 1a0:	240e7001 	strcs	r7, [lr], #-1
 1a4:	0000000c 	andeq	r0, r0, ip
 1a8:	0000015c 	andeq	r0, r0, ip, asr r1
 1ac:	00001556 	andeq	r1, r0, r6, asr r5
 1b0:	00000032 	andeq	r0, r0, r2, lsr r0
 1b4:	0000001c 	andeq	r0, r0, ip, lsl r0
 1b8:	0000015c 	andeq	r0, r0, ip, asr r1
 1bc:	00001588 	andeq	r1, r0, r8, lsl #11
 1c0:	000000a0 	andeq	r0, r0, r0, lsr #1
 1c4:	84180e42 	ldrhi	r0, [r8], #-3650	; 0xfffff1be
 1c8:	8e028503 	cfsh32hi	mvfx8, mvfx2, #3
 1cc:	0e470201 	cdpeq	2, 4, cr0, cr7, cr1, {0}
 1d0:	0000000c 	andeq	r0, r0, ip
 1d4:	0000001c 	andeq	r0, r0, ip, lsl r0
 1d8:	0000015c 	andeq	r0, r0, ip, asr r1
 1dc:	00001628 	andeq	r1, r0, r8, lsr #12
 1e0:	0000004e 	andeq	r0, r0, lr, asr #32
 1e4:	84080e42 	strhi	r0, [r8], #-3650	; 0xfffff1be
 1e8:	62018e02 	andvs	r8, r1, #2, 28
 1ec:	0ec4ce0a 	cdpeq	14, 12, cr12, cr4, cr10, {0}
 1f0:	000b4200 	andeq	r4, fp, r0, lsl #4
 1f4:	0000000c 	andeq	r0, r0, ip
 1f8:	0000015c 	andeq	r0, r0, ip, asr r1
 1fc:	00001676 	andeq	r1, r0, r6, ror r6
 200:	0000000c 	andeq	r0, r0, ip
 204:	0000000c 	andeq	r0, r0, ip
 208:	0000015c 	andeq	r0, r0, ip, asr r1
 20c:	00001682 	andeq	r1, r0, r2, lsl #13
 210:	00000004 	andeq	r0, r0, r4
 214:	0000000c 	andeq	r0, r0, ip
 218:	0000015c 	andeq	r0, r0, ip, asr r1
 21c:	00001686 	andeq	r1, r0, r6, lsl #13
 220:	00000002 	andeq	r0, r0, r2
 224:	00000018 	andeq	r0, r0, r8, lsl r0
 228:	0000015c 	andeq	r0, r0, ip, asr r1
 22c:	00001688 	andeq	r1, r0, r8, lsl #13
 230:	0000003a 	andeq	r0, r0, sl, lsr r0
 234:	84100e41 	ldrhi	r0, [r0], #-3649	; 0xfffff1bf
 238:	86038504 	strhi	r8, [r3], -r4, lsl #10
 23c:	00018e02 	andeq	r8, r1, r2, lsl #28
 240:	0000002c 	andeq	r0, r0, ip, lsr #32
 244:	0000015c 	andeq	r0, r0, ip, asr r1
 248:	000016c2 	andeq	r1, r0, r2, asr #13
 24c:	000000be 	strheq	r0, [r0], -lr
 250:	84240e42 	strthi	r0, [r4], #-3650	; 0xfffff1be
 254:	86088509 	strhi	r8, [r8], -r9, lsl #10
 258:	88068707 	stmdahi	r6, {r0, r1, r2, r8, r9, sl, pc}
 25c:	8a048905 	bhi	122678 <_end+0x11e670>
 260:	8e028b03 	vmlahi.f64	d8, d2, d3
 264:	f00e4a01 			; <UNDEFINED> instruction: 0xf00e4a01
 268:	0e510207 	cdpeq	2, 5, cr0, cr1, cr7, {0}
 26c:	00000024 	andeq	r0, r0, r4, lsr #32
 270:	0000000c 	andeq	r0, r0, ip
 274:	0000015c 	andeq	r0, r0, ip, asr r1
 278:	00001780 	andeq	r1, r0, r0, lsl #15
 27c:	00000004 	andeq	r0, r0, r4
 280:	00000024 	andeq	r0, r0, r4, lsr #32
 284:	0000015c 	andeq	r0, r0, ip, asr r1
 288:	00001784 	andeq	r1, r0, r4, lsl #15
 28c:	00000062 	andeq	r0, r0, r2, rrx
 290:	84180e43 	ldrhi	r0, [r8], #-3651	; 0xfffff1bd
 294:	86058506 	strhi	r8, [r5], -r6, lsl #10
 298:	88038704 	stmdahi	r3, {r2, r8, r9, sl, pc}
 29c:	45018e02 	strmi	r8, [r1, #-3586]	; 0xfffff1fe
 2a0:	6703f80e 	strvs	pc, [r3, -lr, lsl #16]
 2a4:	0000180e 	andeq	r1, r0, lr, lsl #16
 2a8:	00000018 	andeq	r0, r0, r8, lsl r0
 2ac:	0000015c 	andeq	r0, r0, ip, asr r1
 2b0:	000017e6 	andeq	r1, r0, r6, ror #15
 2b4:	00000014 	andeq	r0, r0, r4, lsl r0
 2b8:	84080e41 	strhi	r0, [r8], #-3649	; 0xfffff1bf
 2bc:	46018e02 	strmi	r8, [r1], -r2, lsl #28
 2c0:	000ec4ce 	andeq	ip, lr, lr, asr #9
 2c4:	00000018 	andeq	r0, r0, r8, lsl r0
 2c8:	0000015c 	andeq	r0, r0, ip, asr r1
 2cc:	000017fa 	strdeq	r1, [r0], -sl
 2d0:	00000042 	andeq	r0, r0, r2, asr #32
 2d4:	84100e41 	ldrhi	r0, [r0], #-3649	; 0xfffff1bf
 2d8:	86038504 	strhi	r8, [r3], -r4, lsl #10
 2dc:	00018e02 	andeq	r8, r1, r2, lsl #28
 2e0:	0000000c 	andeq	r0, r0, ip
 2e4:	0000015c 	andeq	r0, r0, ip, asr r1
 2e8:	0000183c 	andeq	r1, r0, ip, lsr r8
 2ec:	00000010 	andeq	r0, r0, r0, lsl r0
 2f0:	0000000c 	andeq	r0, r0, ip
 2f4:	0000015c 	andeq	r0, r0, ip, asr r1
 2f8:	0000184c 	andeq	r1, r0, ip, asr #16
 2fc:	00000002 	andeq	r0, r0, r2
 300:	0000000c 	andeq	r0, r0, ip
 304:	0000015c 	andeq	r0, r0, ip, asr r1
 308:	0000184e 	andeq	r1, r0, lr, asr #16
 30c:	0000000c 	andeq	r0, r0, ip
 310:	00000014 	andeq	r0, r0, r4, lsl r0
 314:	0000015c 	andeq	r0, r0, ip, asr r1
 318:	0000185a 	andeq	r1, r0, sl, asr r8
 31c:	0000002e 	andeq	r0, r0, lr, lsr #32
 320:	8e040e41 	cdphi	14, 0, cr0, cr4, cr1, {2}
 324:	00000001 	andeq	r0, r0, r1
 328:	00000014 	andeq	r0, r0, r4, lsl r0
 32c:	0000015c 	andeq	r0, r0, ip, asr r1
 330:	00001888 	andeq	r1, r0, r8, lsl #17
 334:	00000018 	andeq	r0, r0, r8, lsl r0
 338:	8e180e41 	cdphi	14, 1, cr0, cr8, cr1, {2}
 33c:	040e4901 	streq	r4, [lr], #-2305	; 0xfffff6ff
 340:	00000014 	andeq	r0, r0, r4, lsl r0
 344:	0000015c 	andeq	r0, r0, ip, asr r1
 348:	000018a0 	andeq	r1, r0, r0, lsr #17
 34c:	0000002e 	andeq	r0, r0, lr, lsr #32
 350:	8e040e41 	cdphi	14, 0, cr0, cr4, cr1, {2}
 354:	00000001 	andeq	r0, r0, r1
 358:	00000018 	andeq	r0, r0, r8, lsl r0
 35c:	0000015c 	andeq	r0, r0, ip, asr r1
 360:	000018ce 	andeq	r1, r0, lr, asr #17
 364:	0000001a 	andeq	r0, r0, sl, lsl r0
 368:	84180e41 	ldrhi	r0, [r8], #-3649	; 0xfffff1bf
 36c:	4b018e02 	blmi	63b7c <_end+0x5fb74>
 370:	0000080e 	andeq	r0, r0, lr, lsl #16
 374:	00000024 	andeq	r0, r0, r4, lsr #32
 378:	0000015c 	andeq	r0, r0, ip, asr r1
 37c:	000018e8 	andeq	r1, r0, r8, ror #17
 380:	0000007a 	andeq	r0, r0, sl, ror r0
 384:	84180e43 	ldrhi	r0, [r8], #-3651	; 0xfffff1bd
 388:	86058506 	strhi	r8, [r5], -r6, lsl #10
 38c:	88038704 	stmdahi	r3, {r2, r8, r9, sl, pc}
 390:	46018e02 	strmi	r8, [r1], -r2, lsl #28
 394:	7204d00e 	andvc	sp, r4, #14
 398:	0000180e 	andeq	r1, r0, lr, lsl #16
 39c:	0000002c 	andeq	r0, r0, ip, lsr #32
 3a0:	0000015c 	andeq	r0, r0, ip, asr r1
 3a4:	00001962 	andeq	r1, r0, r2, ror #18
 3a8:	0000026a 	andeq	r0, r0, sl, ror #4
 3ac:	84240e42 	strthi	r0, [r4], #-3650	; 0xfffff1be
 3b0:	86088509 	strhi	r8, [r8], -r9, lsl #10
 3b4:	88068707 	stmdahi	r6, {r0, r1, r2, r8, r9, sl, pc}
 3b8:	8a048905 	bhi	1227d4 <_end+0x11e7cc>
 3bc:	8e028b03 	vmlahi.f64	d8, d2, d3
 3c0:	480e4301 	stmdami	lr, {r0, r8, r9, lr}
 3c4:	0e012b03 	vmlaeq.f64	d2, d1, d3
 3c8:	00000024 	andeq	r0, r0, r4, lsr #32
 3cc:	0000000c 	andeq	r0, r0, ip
 3d0:	0000015c 	andeq	r0, r0, ip, asr r1
 3d4:	00001bcc 	andeq	r1, r0, ip, asr #23
 3d8:	00000004 	andeq	r0, r0, r4
 3dc:	0000000c 	andeq	r0, r0, ip
 3e0:	0000015c 	andeq	r0, r0, ip, asr r1
 3e4:	00001bd0 	ldrdeq	r1, [r0], -r0
 3e8:	00000004 	andeq	r0, r0, r4
 3ec:	0000000c 	andeq	r0, r0, ip
 3f0:	0000015c 	andeq	r0, r0, ip, asr r1
 3f4:	00001bd4 	ldrdeq	r1, [r0], -r4
 3f8:	00000004 	andeq	r0, r0, r4
 3fc:	00000024 	andeq	r0, r0, r4, lsr #32
 400:	0000015c 	andeq	r0, r0, ip, asr r1
 404:	00001bd8 	ldrdeq	r1, [r0], -r8
 408:	0000022e 	andeq	r0, r0, lr, lsr #4
 40c:	84180e42 	ldrhi	r0, [r8], #-3650	; 0xfffff1be
 410:	86058506 	strhi	r8, [r5], -r6, lsl #10
 414:	88038704 	stmdahi	r3, {r2, r8, r9, sl, pc}
 418:	42018e02 	andmi	r8, r1, #2, 28
 41c:	0302a00e 	movweq	sl, #8206	; 0x200e
 420:	180e0111 	stmdane	lr, {r0, r4, r8}
 424:	0000000c 	andeq	r0, r0, ip
 428:	ffffffff 			; <UNDEFINED> instruction: 0xffffffff
 42c:	7c020001 	stcvc	0, cr0, [r2], {1}
 430:	000d0c0e 	andeq	r0, sp, lr, lsl #24
 434:	0000000c 	andeq	r0, r0, ip
 438:	00000424 	andeq	r0, r0, r4, lsr #8
 43c:	00001fb4 			; <UNDEFINED> instruction: 0x00001fb4
 440:	0000002c 	andeq	r0, r0, ip, lsr #32
 444:	00000014 	andeq	r0, r0, r4, lsl r0
 448:	00000424 	andeq	r0, r0, r4, lsr #8
 44c:	00001fe0 	andeq	r1, r0, r0, ror #31
 450:	00000018 	andeq	r0, r0, r8, lsl r0
 454:	8e180e41 	cdphi	14, 1, cr0, cr8, cr1, {2}
 458:	040e4901 	streq	r4, [lr], #-2305	; 0xfffff6ff
 45c:	0000000c 	andeq	r0, r0, ip
 460:	00000424 	andeq	r0, r0, r4, lsr #8
 464:	00001ff8 	strdeq	r1, [r0], -r8
 468:	00000002 	andeq	r0, r0, r2
 46c:	00000028 	andeq	r0, r0, r8, lsr #32
 470:	00000424 	andeq	r0, r0, r4, lsr #8
 474:	00001ffa 	strdeq	r1, [r0], -sl
 478:	00000276 	andeq	r0, r0, r6, ror r2
 47c:	841c0e42 	ldrhi	r0, [ip], #-3650	; 0xfffff1be
 480:	86068507 	strhi	r8, [r6], -r7, lsl #10
 484:	88048705 	stmdahi	r4, {r0, r2, r8, r9, sl, pc}
 488:	8e028903 	vmlahi.f16	s16, s4, s6	; <UNPREDICTABLE>
 48c:	300e4201 	andcc	r4, lr, r1, lsl #4
 490:	0e013503 	cfsh32eq	mvfx3, mvfx1, #3
 494:	0000001c 	andeq	r0, r0, ip, lsl r0
 498:	00000014 	andeq	r0, r0, r4, lsl r0
 49c:	00000424 	andeq	r0, r0, r4, lsr #8
 4a0:	00002270 	andeq	r2, r0, r0, ror r2
 4a4:	0000002a 	andeq	r0, r0, sl, lsr #32
 4a8:	8e180e41 	cdphi	14, 1, cr0, cr8, cr1, {2}
 4ac:	040e5201 	streq	r5, [lr], #-513	; 0xfffffdff
 4b0:	00000014 	andeq	r0, r0, r4, lsl r0
 4b4:	00000424 	andeq	r0, r0, r4, lsr #8
 4b8:	0000229a 	muleq	r0, sl, r2
 4bc:	0000000a 	andeq	r0, r0, sl
 4c0:	83080e41 	movwhi	r0, #36417	; 0x8e41
 4c4:	00018e02 	andeq	r8, r1, r2, lsl #28
 4c8:	00000014 	andeq	r0, r0, r4, lsl r0
 4cc:	00000424 	andeq	r0, r0, r4, lsr #8
 4d0:	000022a4 	andeq	r2, r0, r4, lsr #5
 4d4:	00000012 	andeq	r0, r0, r2, lsl r0
 4d8:	83080e41 	movwhi	r0, #36417	; 0x8e41
 4dc:	00018e02 	andeq	r8, r1, r2, lsl #28
 4e0:	00000014 	andeq	r0, r0, r4, lsl r0
 4e4:	00000424 	andeq	r0, r0, r4, lsr #8
 4e8:	000022b6 			; <UNDEFINED> instruction: 0x000022b6
 4ec:	00000006 	andeq	r0, r0, r6
 4f0:	83080e41 	movwhi	r0, #36417	; 0x8e41
 4f4:	00018e02 	andeq	r8, r1, r2, lsl #28
 4f8:	00000014 	andeq	r0, r0, r4, lsl r0
 4fc:	00000424 	andeq	r0, r0, r4, lsr #8
 500:	000022bc 			; <UNDEFINED> instruction: 0x000022bc
 504:	00000006 	andeq	r0, r0, r6
 508:	83080e41 	movwhi	r0, #36417	; 0x8e41
 50c:	00018e02 	andeq	r8, r1, r2, lsl #28

Disassembly of section .debug_aranges:

00000000 <.debug_aranges>:
   0:	0000001c 	andeq	r0, r0, ip, lsl r0
   4:	57300002 	ldrpl	r0, [r0, -r2]!
   8:	00040000 	andeq	r0, r4, r0
   c:	00000000 	andeq	r0, r0, r0
  10:	000014dc 	ldrdeq	r1, [r0], -ip
  14:	0000092a 	andeq	r0, r0, sl, lsr #18
	...
  20:	0000001c 	andeq	r0, r0, ip, lsl r0
  24:	72870002 	addvc	r0, r7, #2
  28:	00040000 	andeq	r0, r4, r0
  2c:	00000000 	andeq	r0, r0, r0
  30:	00001e08 	andeq	r1, r0, r8, lsl #28
  34:	000001aa 	andeq	r0, r0, sl, lsr #3
	...
  40:	0000001c 	andeq	r0, r0, ip, lsl r0
  44:	73770002 	cmnvc	r7, #2
  48:	00040000 	andeq	r0, r4, r0
  4c:	00000000 	andeq	r0, r0, r0
  50:	00001fb4 			; <UNDEFINED> instruction: 0x00001fb4
  54:	0000030e 	andeq	r0, r0, lr, lsl #6
	...

Disassembly of section .note.gnu.gold-version:

00000000 <.note.gnu.gold-version>:
   0:	00000004 	andeq	r0, r0, r4
   4:	00000009 	andeq	r0, r0, r9
   8:	00000004 	andeq	r0, r0, r4
   c:	00554e47 	subseq	r4, r5, r7, asr #28
  10:	646c6f67 	strbtvs	r6, [ip], #-3943	; 0xfffff099
  14:	312e3120 			; <UNDEFINED> instruction: 0x312e3120
  18:	00000032 	andeq	r0, r0, r2, lsr r0

Disassembly of section .ARM.attributes:

00000000 <.ARM.attributes>:
   0:	00003a41 	andeq	r3, r0, r1, asr #20
   4:	61656100 	cmnvs	r5, r0, lsl #2
   8:	01006962 	tsteq	r0, r2, ror #18
   c:	00000030 	andeq	r0, r0, r0, lsr r0
  10:	726f6305 	rsbvc	r6, pc, #335544320	; 0x14000000
  14:	2d786574 	cfldr64cs	mvdx6, [r8, #-464]!	; 0xfffffe30
  18:	06003861 	streq	r3, [r0], -r1, ror #16
  1c:	0841070a 	stmdaeq	r1, {r1, r3, r8, r9, sl}^
  20:	0a020901 	beq	8242c <_end+0x7e424>
  24:	12021103 	andne	r1, r2, #-1073741824	; 0xc0000000
  28:	15011404 	strne	r1, [r1, #-1028]	; 0xfffffbfc
  2c:	18031701 	stmdane	r3, {r0, r8, r9, sl, ip}
  30:	1e021a01 	vmlane.f32	s2, s4, s2
  34:	26012202 	strcs	r2, [r1], -r2, lsl #4
  38:	Address 0x0000000000000038 is out of bounds.

