
/mywork/github/androidreverse/crash/build/intermediates/cmake/debug/obj/armeabi-v7a/libcrash.so:     file format elf32-littlearm


Disassembly of section .plt:

000008f8 <__cxa_atexit@plt-0x14>:
 8f8:	e52de004 	push	{lr}		; (str lr, [sp, #-4]!)
 8fc:	e59fe004 	ldr	lr, [pc, #4]	; 908 <note_end+0x73c>
 900:	e08fe00e 	add	lr, pc, lr
 904:	e5bef008 	ldr	pc, [lr, #8]!
 908:	00003690 	muleq	r0, r0, r6

0000090c <__cxa_atexit@plt>:
 90c:	e28fc600 	add	ip, pc, #0, 12
 910:	e28cca03 	add	ip, ip, #12288	; 0x3000
 914:	e5bcf690 	ldr	pc, [ip, #1680]!	; 0x690

00000918 <__cxa_finalize@plt>:
 918:	e28fc600 	add	ip, pc, #0, 12
 91c:	e28cca03 	add	ip, ip, #12288	; 0x3000
 920:	e5bcf688 	ldr	pc, [ip, #1672]!	; 0x688

00000924 <popen@plt>:
 924:	e28fc600 	add	ip, pc, #0, 12
 928:	e28cca03 	add	ip, ip, #12288	; 0x3000
 92c:	e5bcf680 	ldr	pc, [ip, #1664]!	; 0x680

00000930 <fgets@plt>:
 930:	e28fc600 	add	ip, pc, #0, 12
 934:	e28cca03 	add	ip, ip, #12288	; 0x3000
 938:	e5bcf678 	ldr	pc, [ip, #1656]!	; 0x678

0000093c <__android_log_print@plt>:
 93c:	e28fc600 	add	ip, pc, #0, 12
 940:	e28cca03 	add	ip, ip, #12288	; 0x3000
 944:	e5bcf670 	ldr	pc, [ip, #1648]!	; 0x670

00000948 <pclose@plt>:
 948:	e28fc600 	add	ip, pc, #0, 12
 94c:	e28cca03 	add	ip, ip, #12288	; 0x3000
 950:	e5bcf668 	ldr	pc, [ip, #1640]!	; 0x668

00000954 <__stack_chk_fail@plt>:
 954:	e28fc600 	add	ip, pc, #0, 12
 958:	e28cca03 	add	ip, ip, #12288	; 0x3000
 95c:	e5bcf660 	ldr	pc, [ip, #1632]!	; 0x660

00000960 <__system_property_get@plt>:
 960:	e28fc600 	add	ip, pc, #0, 12
 964:	e28cca03 	add	ip, ip, #12288	; 0x3000
 968:	e5bcf658 	ldr	pc, [ip, #1624]!	; 0x658

0000096c <__system_property_find@plt>:
 96c:	e28fc600 	add	ip, pc, #0, 12
 970:	e28cca03 	add	ip, ip, #12288	; 0x3000
 974:	e5bcf650 	ldr	pc, [ip, #1616]!	; 0x650

00000978 <__system_property_read@plt>:
 978:	e28fc600 	add	ip, pc, #0, 12
 97c:	e28cca03 	add	ip, ip, #12288	; 0x3000
 980:	e5bcf648 	ldr	pc, [ip, #1608]!	; 0x648

00000984 <system@plt>:
 984:	e28fc600 	add	ip, pc, #0, 12
 988:	e28cca03 	add	ip, ip, #12288	; 0x3000
 98c:	e5bcf640 	ldr	pc, [ip, #1600]!	; 0x640

00000990 <willCrash@plt>:
 990:	e28fc600 	add	ip, pc, #0, 12
 994:	e28cca03 	add	ip, ip, #12288	; 0x3000
 998:	e5bcf638 	ldr	pc, [ip, #1592]!	; 0x638

0000099c <getpid@plt>:
 99c:	e28fc600 	add	ip, pc, #0, 12
 9a0:	e28cca03 	add	ip, ip, #12288	; 0x3000
 9a4:	e5bcf630 	ldr	pc, [ip, #1584]!	; 0x630

000009a8 <getuid@plt>:
 9a8:	e28fc600 	add	ip, pc, #0, 12
 9ac:	e28cca03 	add	ip, ip, #12288	; 0x3000
 9b0:	e5bcf628 	ldr	pc, [ip, #1576]!	; 0x628

000009b4 <testNoPara@plt>:
 9b4:	e28fc600 	add	ip, pc, #0, 12
 9b8:	e28cca03 	add	ip, ip, #12288	; 0x3000
 9bc:	e5bcf620 	ldr	pc, [ip, #1568]!	; 0x620

000009c0 <testOnePara@plt>:
 9c0:	e28fc600 	add	ip, pc, #0, 12
 9c4:	e28cca03 	add	ip, ip, #12288	; 0x3000
 9c8:	e5bcf618 	ldr	pc, [ip, #1560]!	; 0x618

000009cc <testParameter@plt>:
 9cc:	e28fc600 	add	ip, pc, #0, 12
 9d0:	e28cca03 	add	ip, ip, #12288	; 0x3000
 9d4:	e5bcf610 	ldr	pc, [ip, #1552]!	; 0x610

000009d8 <getlogin@plt>:
 9d8:	e28fc600 	add	ip, pc, #0, 12
 9dc:	e28cca03 	add	ip, ip, #12288	; 0x3000
 9e0:	e5bcf608 	ldr	pc, [ip, #1544]!	; 0x608

000009e4 <__gnu_Unwind_Find_exidx@plt>:
 9e4:	e28fc600 	add	ip, pc, #0, 12
 9e8:	e28cca03 	add	ip, ip, #12288	; 0x3000
 9ec:	e5bcf600 	ldr	pc, [ip, #1536]!	; 0x600

000009f0 <abort@plt>:
 9f0:	e28fc600 	add	ip, pc, #0, 12
 9f4:	e28cca03 	add	ip, ip, #12288	; 0x3000
 9f8:	e5bcf5f8 	ldr	pc, [ip, #1528]!	; 0x5f8

000009fc <memcpy@plt>:
 9fc:	e28fc600 	add	ip, pc, #0, 12
 a00:	e28cca03 	add	ip, ip, #12288	; 0x3000
 a04:	e5bcf5f0 	ldr	pc, [ip, #1520]!	; 0x5f0

00000a08 <__cxa_begin_cleanup@plt>:
 a08:	e28fc600 	add	ip, pc, #0, 12
 a0c:	e28cca03 	add	ip, ip, #12288	; 0x3000
 a10:	e5bcf5e8 	ldr	pc, [ip, #1512]!	; 0x5e8

00000a14 <__cxa_type_match@plt>:
 a14:	e28fc600 	add	ip, pc, #0, 12
 a18:	e28cca03 	add	ip, ip, #12288	; 0x3000
 a1c:	e5bcf5e0 	ldr	pc, [ip, #1504]!	; 0x5e0

Disassembly of section .text:

00000a20 <__on_dlclose>:
     a20:	e59f0004 	ldr	r0, [pc, #4]	; a2c <__on_dlclose+0xc>
     a24:	e08f0000 	add	r0, pc, r0
     a28:	eaffffba 	b	918 <__cxa_finalize@plt>
     a2c:	000035d4 	ldrdeq	r3, [r0], -r4

00000a30 <__atexit_handler_wrapper>:
     a30:	e3500000 	cmp	r0, #0
     a34:	012fff1e 	bxeq	lr
     a38:	e12fff10 	bx	r0

00000a3c <atexit>:
     a3c:	e1a01000 	mov	r1, r0
     a40:	e59f200c 	ldr	r2, [pc, #12]	; a54 <atexit+0x18>
     a44:	e59f000c 	ldr	r0, [pc, #12]	; a58 <atexit+0x1c>
     a48:	e08f2002 	add	r2, pc, r2
     a4c:	e08f0000 	add	r0, pc, r0
     a50:	eaffffad 	b	90c <__cxa_atexit@plt>
     a54:	000035b0 			; <UNDEFINED> instruction: 0x000035b0
     a58:	ffffffdc 			; <UNDEFINED> instruction: 0xffffffdc

00000a5c <testcode6>:
#define ABI "armeabi-v7a"

extern JavaVM *gs_jvm;

void testcode6()
{
     a5c:	b580      	push	{r7, lr}
     a5e:	466f      	mov	r7, sp
     a60:	f5ad 6d04 	sub.w	sp, sp, #2112	; 0x840
     a64:	483d      	ldr	r0, [pc, #244]	; (b5c <testcode6+0x100>)
     a66:	4478      	add	r0, pc
     a68:	6800      	ldr	r0, [r0, #0]
     a6a:	6800      	ldr	r0, [r0, #0]
     a6c:	f847 0c04 	str.w	r0, [r7, #-4]
    FILE *stream;
    stream = popen("pwd", "r");
     a70:	483b      	ldr	r0, [pc, #236]	; (b60 <testcode6+0x104>)
     a72:	4478      	add	r0, pc
     a74:	493b      	ldr	r1, [pc, #236]	; (b64 <testcode6+0x108>)
     a76:	4479      	add	r1, pc
     a78:	910c      	str	r1, [sp, #48]	; 0x30
     a7a:	f7ff ef54 	blx	924 <popen@plt>
     a7e:	900e      	str	r0, [sp, #56]	; 0x38
    char ch[1024];
    fgets(ch, 1024, stream);
     a80:	9a0e      	ldr	r2, [sp, #56]	; 0x38
     a82:	f20d 403c 	addw	r0, sp, #1084	; 0x43c
     a86:	f44f 6180 	mov.w	r1, #1024	; 0x400
     a8a:	900b      	str	r0, [sp, #44]	; 0x2c
     a8c:	f7ff ef50 	blx	930 <fgets@plt>
    LOGW("pwd: %s",ch);
     a90:	4935      	ldr	r1, [pc, #212]	; (b68 <testcode6+0x10c>)
     a92:	4479      	add	r1, pc
     a94:	4a35      	ldr	r2, [pc, #212]	; (b6c <testcode6+0x110>)
     a96:	447a      	add	r2, pc
     a98:	f04f 0e05 	mov.w	lr, #5
     a9c:	900a      	str	r0, [sp, #40]	; 0x28
     a9e:	4670      	mov	r0, lr
     aa0:	9b0b      	ldr	r3, [sp, #44]	; 0x2c
     aa2:	f7ff ef4c 	blx	93c <__android_log_print@plt>
    pclose(stream);
     aa6:	990e      	ldr	r1, [sp, #56]	; 0x38
     aa8:	9009      	str	r0, [sp, #36]	; 0x24
     aaa:	4608      	mov	r0, r1
     aac:	f7ff ef4c 	blx	948 <pclose@plt>
    stream = popen("ls", "r");
     ab0:	492f      	ldr	r1, [pc, #188]	; (b70 <testcode6+0x114>)
     ab2:	4479      	add	r1, pc
     ab4:	9008      	str	r0, [sp, #32]
     ab6:	4608      	mov	r0, r1
     ab8:	990c      	ldr	r1, [sp, #48]	; 0x30
     aba:	f7ff ef34 	blx	924 <popen@plt>
     abe:	900e      	str	r0, [sp, #56]	; 0x38
    if( NULL == stream )
     ac0:	980e      	ldr	r0, [sp, #56]	; 0x38
     ac2:	2800      	cmp	r0, #0
     ac4:	d10f      	bne.n	ae6 <testcode6+0x8a>
     ac6:	e7ff      	b.n	ac8 <testcode6+0x6c>
    {
        LOGE("Unable to execute the command");
     ac8:	482e      	ldr	r0, [pc, #184]	; (b84 <testcode6+0x128>)
     aca:	4478      	add	r0, pc
     acc:	492e      	ldr	r1, [pc, #184]	; (b88 <testcode6+0x12c>)
     ace:	4479      	add	r1, pc
     ad0:	2206      	movs	r2, #6
     ad2:	9007      	str	r0, [sp, #28]
     ad4:	4610      	mov	r0, r2
     ad6:	9a07      	ldr	r2, [sp, #28]
     ad8:	9106      	str	r1, [sp, #24]
     ada:	4611      	mov	r1, r2
     adc:	9a06      	ldr	r2, [sp, #24]
     ade:	f7ff ef2e 	blx	93c <__android_log_print@plt>
    }
     ae2:	9005      	str	r0, [sp, #20]
     ae4:	e02c      	b.n	b40 <testcode6+0xe4>
    else
    {
        char buffer[1024];
        int status;
        while( NULL != fgets(buffer, 1024, stream))
     ae6:	e7ff      	b.n	ae8 <testcode6+0x8c>
     ae8:	9a0e      	ldr	r2, [sp, #56]	; 0x38
     aea:	a80f      	add	r0, sp, #60	; 0x3c
     aec:	f44f 6180 	mov.w	r1, #1024	; 0x400
     af0:	f7ff ef1e 	blx	930 <fgets@plt>
     af4:	2800      	cmp	r0, #0
     af6:	d010      	beq.n	b1a <testcode6+0xbe>
     af8:	e7ff      	b.n	afa <testcode6+0x9e>
        {
            LOGE("read: %s", buffer);
     afa:	4820      	ldr	r0, [pc, #128]	; (b7c <testcode6+0x120>)
     afc:	4478      	add	r0, pc
     afe:	4920      	ldr	r1, [pc, #128]	; (b80 <testcode6+0x124>)
     b00:	4479      	add	r1, pc
     b02:	2206      	movs	r2, #6
     b04:	ab0f      	add	r3, sp, #60	; 0x3c
     b06:	9004      	str	r0, [sp, #16]
     b08:	4610      	mov	r0, r2
     b0a:	9a04      	ldr	r2, [sp, #16]
     b0c:	9103      	str	r1, [sp, #12]
     b0e:	4611      	mov	r1, r2
     b10:	9a03      	ldr	r2, [sp, #12]
     b12:	f7ff ef14 	blx	93c <__android_log_print@plt>
        while( NULL != fgets(buffer, 1024, stream))
     b16:	9002      	str	r0, [sp, #8]
     b18:	e7e6      	b.n	ae8 <testcode6+0x8c>
        }
        status = pclose(stream);
     b1a:	980e      	ldr	r0, [sp, #56]	; 0x38
     b1c:	f7ff ef14 	blx	948 <pclose@plt>
     b20:	900d      	str	r0, [sp, #52]	; 0x34
        LOGW("process exited with status %d", status);
     b22:	9b0d      	ldr	r3, [sp, #52]	; 0x34
     b24:	4813      	ldr	r0, [pc, #76]	; (b74 <testcode6+0x118>)
     b26:	4478      	add	r0, pc
     b28:	f8df e04c 	ldr.w	lr, [pc, #76]	; b78 <testcode6+0x11c>
     b2c:	44fe      	add	lr, pc
     b2e:	2105      	movs	r1, #5
     b30:	9001      	str	r0, [sp, #4]
     b32:	4608      	mov	r0, r1
     b34:	9901      	ldr	r1, [sp, #4]
     b36:	4672      	mov	r2, lr
     b38:	f7ff ef00 	blx	93c <__android_log_print@plt>
     b3c:	9000      	str	r0, [sp, #0]
     b3e:	e7ff      	b.n	b40 <testcode6+0xe4>
     b40:	4812      	ldr	r0, [pc, #72]	; (b8c <testcode6+0x130>)
     b42:	4478      	add	r0, pc
     b44:	6800      	ldr	r0, [r0, #0]
     b46:	6800      	ldr	r0, [r0, #0]
     b48:	f857 1c04 	ldr.w	r1, [r7, #-4]
     b4c:	4288      	cmp	r0, r1
     b4e:	d103      	bne.n	b58 <testcode6+0xfc>
     b50:	e7ff      	b.n	b52 <testcode6+0xf6>
    }
}
     b52:	f50d 6d04 	add.w	sp, sp, #2112	; 0x840
     b56:	bd80      	pop	{r7, pc}
     b58:	f7ff eefc 	blx	954 <__stack_chk_fail@plt>
     b5c:	0000350a 	andeq	r3, r0, sl, lsl #10
     b60:	00001962 	andeq	r1, r0, r2, ror #18
     b64:	00001962 	andeq	r1, r0, r2, ror #18
     b68:	00001948 	andeq	r1, r0, r8, asr #18
     b6c:	00001949 	andeq	r1, r0, r9, asr #18
     b70:	00001935 	andeq	r1, r0, r5, lsr r9
     b74:	000018b4 			; <UNDEFINED> instruction: 0x000018b4
     b78:	000018e5 	andeq	r1, r0, r5, ror #17
     b7c:	000018de 	ldrdeq	r1, [r0], -lr
     b80:	00001908 	andeq	r1, r0, r8, lsl #18
     b84:	00001910 	andeq	r1, r0, r0, lsl r9
     b88:	0000191c 	andeq	r1, r0, ip, lsl r9
     b8c:	0000342e 	andeq	r3, r0, lr, lsr #8

00000b90 <testProperties>:

void testProperties()
{
     b90:	b580      	push	{r7, lr}
     b92:	466f      	mov	r7, sp
     b94:	b0c8      	sub	sp, #288	; 0x120
     b96:	483d      	ldr	r0, [pc, #244]	; (c8c <testProperties+0xfc>)
     b98:	4478      	add	r0, pc
     b9a:	6800      	ldr	r0, [r0, #0]
     b9c:	6800      	ldr	r0, [r0, #0]
     b9e:	9047      	str	r0, [sp, #284]	; 0x11c
    char value[PROP_VALUE_MAX];
    if(0 == __system_property_get("ro.product.model", value))
     ba0:	483b      	ldr	r0, [pc, #236]	; (c90 <testProperties+0x100>)
     ba2:	4478      	add	r0, pc
     ba4:	a930      	add	r1, sp, #192	; 0xc0
     ba6:	f7ff eedc 	blx	960 <__system_property_get@plt>
     baa:	2800      	cmp	r0, #0
     bac:	d10f      	bne.n	bce <testProperties+0x3e>
     bae:	e7ff      	b.n	bb0 <testProperties+0x20>
    {
        LOGE("error");
     bb0:	483a      	ldr	r0, [pc, #232]	; (c9c <testProperties+0x10c>)
     bb2:	4478      	add	r0, pc
     bb4:	493a      	ldr	r1, [pc, #232]	; (ca0 <testProperties+0x110>)
     bb6:	4479      	add	r1, pc
     bb8:	2206      	movs	r2, #6
     bba:	900f      	str	r0, [sp, #60]	; 0x3c
     bbc:	4610      	mov	r0, r2
     bbe:	9a0f      	ldr	r2, [sp, #60]	; 0x3c
     bc0:	910e      	str	r1, [sp, #56]	; 0x38
     bc2:	4611      	mov	r1, r2
     bc4:	9a0e      	ldr	r2, [sp, #56]	; 0x38
     bc6:	f7ff eeba 	blx	93c <__android_log_print@plt>
    }
     bca:	900d      	str	r0, [sp, #52]	; 0x34
     bcc:	e00f      	b.n	bee <testProperties+0x5e>
    else
    {
        LOGW("product model: %s", value);
     bce:	4831      	ldr	r0, [pc, #196]	; (c94 <testProperties+0x104>)
     bd0:	4478      	add	r0, pc
     bd2:	4931      	ldr	r1, [pc, #196]	; (c98 <testProperties+0x108>)
     bd4:	4479      	add	r1, pc
     bd6:	2205      	movs	r2, #5
     bd8:	ab30      	add	r3, sp, #192	; 0xc0
     bda:	900c      	str	r0, [sp, #48]	; 0x30
     bdc:	4610      	mov	r0, r2
     bde:	9a0c      	ldr	r2, [sp, #48]	; 0x30
     be0:	910b      	str	r1, [sp, #44]	; 0x2c
     be2:	4611      	mov	r1, r2
     be4:	9a0b      	ldr	r2, [sp, #44]	; 0x2c
     be6:	f7ff eeaa 	blx	93c <__android_log_print@plt>
     bea:	900a      	str	r0, [sp, #40]	; 0x28
     bec:	e7ff      	b.n	bee <testProperties+0x5e>
    }

    const prop_info *property;
    property = __system_property_find("ro.product.model");
     bee:	482d      	ldr	r0, [pc, #180]	; (ca4 <testProperties+0x114>)
     bf0:	4478      	add	r0, pc
     bf2:	f7ff eebc 	blx	96c <__system_property_find@plt>
     bf6:	9010      	str	r0, [sp, #64]	; 0x40
    if( NULL == property )
     bf8:	9810      	ldr	r0, [sp, #64]	; 0x40
     bfa:	2800      	cmp	r0, #0
     bfc:	d10f      	bne.n	c1e <testProperties+0x8e>
     bfe:	e7ff      	b.n	c00 <testProperties+0x70>
    {
        LOGE("error");
     c00:	482d      	ldr	r0, [pc, #180]	; (cb8 <testProperties+0x128>)
     c02:	4478      	add	r0, pc
     c04:	492d      	ldr	r1, [pc, #180]	; (cbc <testProperties+0x12c>)
     c06:	4479      	add	r1, pc
     c08:	2206      	movs	r2, #6
     c0a:	9009      	str	r0, [sp, #36]	; 0x24
     c0c:	4610      	mov	r0, r2
     c0e:	9a09      	ldr	r2, [sp, #36]	; 0x24
     c10:	9108      	str	r1, [sp, #32]
     c12:	4611      	mov	r1, r2
     c14:	9a08      	ldr	r2, [sp, #32]
     c16:	f7ff ee92 	blx	93c <__android_log_print@plt>
    }
     c1a:	9007      	str	r0, [sp, #28]
     c1c:	e02a      	b.n	c74 <testProperties+0xe4>
    else
    {
        char name[PROP_NAME_MAX];
        char value[PROP_VALUE_MAX];
        if( 0 == __system_property_read(property, name, value))
     c1e:	9810      	ldr	r0, [sp, #64]	; 0x40
     c20:	a928      	add	r1, sp, #160	; 0xa0
     c22:	aa11      	add	r2, sp, #68	; 0x44
     c24:	f7ff eea8 	blx	978 <__system_property_read@plt>
     c28:	2800      	cmp	r0, #0
     c2a:	d10f      	bne.n	c4c <testProperties+0xbc>
     c2c:	e7ff      	b.n	c2e <testProperties+0x9e>
        {
            LOGE("is empty");
     c2e:	4820      	ldr	r0, [pc, #128]	; (cb0 <testProperties+0x120>)
     c30:	4478      	add	r0, pc
     c32:	4920      	ldr	r1, [pc, #128]	; (cb4 <testProperties+0x124>)
     c34:	4479      	add	r1, pc
     c36:	2206      	movs	r2, #6
     c38:	9006      	str	r0, [sp, #24]
     c3a:	4610      	mov	r0, r2
     c3c:	9a06      	ldr	r2, [sp, #24]
     c3e:	9105      	str	r1, [sp, #20]
     c40:	4611      	mov	r1, r2
     c42:	9a05      	ldr	r2, [sp, #20]
     c44:	f7ff ee7a 	blx	93c <__android_log_print@plt>
        }
     c48:	9004      	str	r0, [sp, #16]
     c4a:	e012      	b.n	c72 <testProperties+0xe2>
        else
        {
            LOGW("%s, %s", name, value);
     c4c:	4668      	mov	r0, sp
     c4e:	a911      	add	r1, sp, #68	; 0x44
     c50:	6001      	str	r1, [r0, #0]
     c52:	4815      	ldr	r0, [pc, #84]	; (ca8 <testProperties+0x118>)
     c54:	4478      	add	r0, pc
     c56:	4915      	ldr	r1, [pc, #84]	; (cac <testProperties+0x11c>)
     c58:	4479      	add	r1, pc
     c5a:	2205      	movs	r2, #5
     c5c:	ab28      	add	r3, sp, #160	; 0xa0
     c5e:	9003      	str	r0, [sp, #12]
     c60:	4610      	mov	r0, r2
     c62:	9a03      	ldr	r2, [sp, #12]
     c64:	9102      	str	r1, [sp, #8]
     c66:	4611      	mov	r1, r2
     c68:	9a02      	ldr	r2, [sp, #8]
     c6a:	f7ff ee68 	blx	93c <__android_log_print@plt>
     c6e:	9001      	str	r0, [sp, #4]
     c70:	e7ff      	b.n	c72 <testProperties+0xe2>
     c72:	e7ff      	b.n	c74 <testProperties+0xe4>
     c74:	4812      	ldr	r0, [pc, #72]	; (cc0 <testProperties+0x130>)
     c76:	4478      	add	r0, pc
     c78:	6800      	ldr	r0, [r0, #0]
     c7a:	6800      	ldr	r0, [r0, #0]
     c7c:	9947      	ldr	r1, [sp, #284]	; 0x11c
     c7e:	4288      	cmp	r0, r1
     c80:	d102      	bne.n	c88 <testProperties+0xf8>
     c82:	e7ff      	b.n	c84 <testProperties+0xf4>
        }
    }
    return;
     c84:	b048      	add	sp, #288	; 0x120
     c86:	bd80      	pop	{r7, pc}
     c88:	f7ff ee64 	blx	954 <__stack_chk_fail@plt>
     c8c:	000033d8 	ldrdeq	r3, [r0], -r8
     c90:	0000188d 	andeq	r1, r0, sp, lsl #17
     c94:	0000180a 	andeq	r1, r0, sl, lsl #16
     c98:	00001872 	andeq	r1, r0, r2, ror r8
     c9c:	00001828 	andeq	r1, r0, r8, lsr #16
     ca0:	0000188a 	andeq	r1, r0, sl, lsl #17
     ca4:	0000183f 	andeq	r1, r0, pc, lsr r8
     ca8:	00001786 	andeq	r1, r0, r6, lsl #15
     cac:	00001809 	andeq	r1, r0, r9, lsl #16
     cb0:	000017aa 	andeq	r1, r0, sl, lsr #15
     cb4:	00001824 	andeq	r1, r0, r4, lsr #16
     cb8:	000017d8 	ldrdeq	r1, [r0], -r8
     cbc:	0000183a 	andeq	r1, r0, sl, lsr r8
     cc0:	000032fa 	strdeq	r3, [r0], -sl

00000cc4 <testNoPara>:
}

void testNoPara()
{
     cc4:	b580      	push	{r7, lr}
     cc6:	466f      	mov	r7, sp
     cc8:	b084      	sub	sp, #16
    LOGE(" %s", __FUNCTION__ );
     cca:	480b      	ldr	r0, [pc, #44]	; (cf8 <testNoPara+0x34>)
     ccc:	4478      	add	r0, pc
     cce:	490b      	ldr	r1, [pc, #44]	; (cfc <testNoPara+0x38>)
     cd0:	4479      	add	r1, pc
     cd2:	4a0b      	ldr	r2, [pc, #44]	; (d00 <testNoPara+0x3c>)
     cd4:	447a      	add	r2, pc
     cd6:	2306      	movs	r3, #6
     cd8:	9003      	str	r0, [sp, #12]
     cda:	4618      	mov	r0, r3
     cdc:	9b03      	ldr	r3, [sp, #12]
     cde:	9102      	str	r1, [sp, #8]
     ce0:	4619      	mov	r1, r3
     ce2:	f8dd c008 	ldr.w	ip, [sp, #8]
     ce6:	9201      	str	r2, [sp, #4]
     ce8:	4662      	mov	r2, ip
     cea:	9b01      	ldr	r3, [sp, #4]
     cec:	f7ff ee26 	blx	93c <__android_log_print@plt>
}
     cf0:	9000      	str	r0, [sp, #0]
     cf2:	b004      	add	sp, #16
     cf4:	bd80      	pop	{r7, pc}
     cf6:	bf00      	nop
     cf8:	0000170e 	andeq	r1, r0, lr, lsl #14
     cfc:	00001798 	muleq	r0, r8, r7
     d00:	00001798 	muleq	r0, r8, r7

00000d04 <testOnePara>:

void testOnePara(int a1 )
{
     d04:	b580      	push	{r7, lr}
     d06:	466f      	mov	r7, sp
     d08:	b086      	sub	sp, #24
     d0a:	4601      	mov	r1, r0
     d0c:	9005      	str	r0, [sp, #20]
    LOGE("%s, %d, ", __FUNCTION__, a1);
     d0e:	9805      	ldr	r0, [sp, #20]
     d10:	466a      	mov	r2, sp
     d12:	6010      	str	r0, [r2, #0]
     d14:	4809      	ldr	r0, [pc, #36]	; (d3c <testOnePara+0x38>)
     d16:	4478      	add	r0, pc
     d18:	4a09      	ldr	r2, [pc, #36]	; (d40 <testOnePara+0x3c>)
     d1a:	447a      	add	r2, pc
     d1c:	4b09      	ldr	r3, [pc, #36]	; (d44 <testOnePara+0x40>)
     d1e:	447b      	add	r3, pc
     d20:	f04f 0c06 	mov.w	ip, #6
     d24:	9004      	str	r0, [sp, #16]
     d26:	4660      	mov	r0, ip
     d28:	f8dd c010 	ldr.w	ip, [sp, #16]
     d2c:	9103      	str	r1, [sp, #12]
     d2e:	4661      	mov	r1, ip
     d30:	f7ff ee04 	blx	93c <__android_log_print@plt>
}
     d34:	9002      	str	r0, [sp, #8]
     d36:	b006      	add	sp, #24
     d38:	bd80      	pop	{r7, pc}
     d3a:	bf00      	nop
     d3c:	000016c4 	andeq	r1, r0, r4, asr #13
     d40:	0000175d 	andeq	r1, r0, sp, asr r7
     d44:	00001762 	andeq	r1, r0, r2, ror #14

00000d48 <testParameter>:
void testParameter(int a1,  int a2, int a3, int a4, int a5, int a6, int a7, int a8, int a9, int a10,
          int a11,  int a12, int a13, int a14, int a15, int a16, int a17, int a18, int a19, int a20,
          int a21, int a22, int a23, int a24, int a25, int a26, int a27, int a28, int a29, int a30,
          int a31, int a32, int a33, int a34, int a35, int a36, int a37, int a38, int a39, int a40,
          int a41, int a42, int a43, int a44, int a45, int a46, int a47, int a48, int a49, int a50)
{
     d48:	b5f0      	push	{r4, r5, r6, r7, lr}
     d4a:	af03      	add	r7, sp, #12
     d4c:	e92d 0f00 	stmdb	sp!, {r8, r9, sl, fp}
     d50:	f5ad 7d1b 	sub.w	sp, sp, #620	; 0x26c
     d54:	f8d7 c0bc 	ldr.w	ip, [r7, #188]	; 0xbc
     d58:	f8d7 e0b8 	ldr.w	lr, [r7, #184]	; 0xb8
     d5c:	f8d7 40b4 	ldr.w	r4, [r7, #180]	; 0xb4
     d60:	f8d7 50b0 	ldr.w	r5, [r7, #176]	; 0xb0
     d64:	f8d7 60ac 	ldr.w	r6, [r7, #172]	; 0xac
     d68:	f8d7 80a8 	ldr.w	r8, [r7, #168]	; 0xa8
     d6c:	f8d7 90a4 	ldr.w	r9, [r7, #164]	; 0xa4
     d70:	f8d7 a0a0 	ldr.w	sl, [r7, #160]	; 0xa0
     d74:	f8d7 b09c 	ldr.w	fp, [r7, #156]	; 0x9c
     d78:	9096      	str	r0, [sp, #600]	; 0x258
     d7a:	f8d7 0098 	ldr.w	r0, [r7, #152]	; 0x98
     d7e:	9095      	str	r0, [sp, #596]	; 0x254
     d80:	f8d7 0094 	ldr.w	r0, [r7, #148]	; 0x94
     d84:	9094      	str	r0, [sp, #592]	; 0x250
     d86:	f8d7 0090 	ldr.w	r0, [r7, #144]	; 0x90
     d8a:	9093      	str	r0, [sp, #588]	; 0x24c
     d8c:	f8d7 008c 	ldr.w	r0, [r7, #140]	; 0x8c
     d90:	9092      	str	r0, [sp, #584]	; 0x248
     d92:	f8d7 0088 	ldr.w	r0, [r7, #136]	; 0x88
     d96:	9091      	str	r0, [sp, #580]	; 0x244
     d98:	f8d7 0084 	ldr.w	r0, [r7, #132]	; 0x84
     d9c:	9090      	str	r0, [sp, #576]	; 0x240
     d9e:	f8d7 0080 	ldr.w	r0, [r7, #128]	; 0x80
     da2:	908f      	str	r0, [sp, #572]	; 0x23c
     da4:	6ff8      	ldr	r0, [r7, #124]	; 0x7c
     da6:	908e      	str	r0, [sp, #568]	; 0x238
     da8:	6fb8      	ldr	r0, [r7, #120]	; 0x78
     daa:	908d      	str	r0, [sp, #564]	; 0x234
     dac:	6f78      	ldr	r0, [r7, #116]	; 0x74
     dae:	908c      	str	r0, [sp, #560]	; 0x230
     db0:	6f38      	ldr	r0, [r7, #112]	; 0x70
     db2:	908b      	str	r0, [sp, #556]	; 0x22c
     db4:	6ef8      	ldr	r0, [r7, #108]	; 0x6c
     db6:	908a      	str	r0, [sp, #552]	; 0x228
     db8:	6eb8      	ldr	r0, [r7, #104]	; 0x68
     dba:	9089      	str	r0, [sp, #548]	; 0x224
     dbc:	6e78      	ldr	r0, [r7, #100]	; 0x64
     dbe:	9088      	str	r0, [sp, #544]	; 0x220
     dc0:	6e38      	ldr	r0, [r7, #96]	; 0x60
     dc2:	9087      	str	r0, [sp, #540]	; 0x21c
     dc4:	6df8      	ldr	r0, [r7, #92]	; 0x5c
     dc6:	9086      	str	r0, [sp, #536]	; 0x218
     dc8:	6db8      	ldr	r0, [r7, #88]	; 0x58
     dca:	9085      	str	r0, [sp, #532]	; 0x214
     dcc:	6d78      	ldr	r0, [r7, #84]	; 0x54
     dce:	9084      	str	r0, [sp, #528]	; 0x210
     dd0:	6d38      	ldr	r0, [r7, #80]	; 0x50
     dd2:	9083      	str	r0, [sp, #524]	; 0x20c
     dd4:	6cf8      	ldr	r0, [r7, #76]	; 0x4c
     dd6:	9082      	str	r0, [sp, #520]	; 0x208
     dd8:	6cb8      	ldr	r0, [r7, #72]	; 0x48
     dda:	9081      	str	r0, [sp, #516]	; 0x204
     ddc:	6c78      	ldr	r0, [r7, #68]	; 0x44
     dde:	9080      	str	r0, [sp, #512]	; 0x200
     de0:	6c38      	ldr	r0, [r7, #64]	; 0x40
     de2:	907f      	str	r0, [sp, #508]	; 0x1fc
     de4:	6bf8      	ldr	r0, [r7, #60]	; 0x3c
     de6:	907e      	str	r0, [sp, #504]	; 0x1f8
     de8:	6bb8      	ldr	r0, [r7, #56]	; 0x38
     dea:	907d      	str	r0, [sp, #500]	; 0x1f4
     dec:	6b78      	ldr	r0, [r7, #52]	; 0x34
     dee:	907c      	str	r0, [sp, #496]	; 0x1f0
     df0:	6b38      	ldr	r0, [r7, #48]	; 0x30
     df2:	907b      	str	r0, [sp, #492]	; 0x1ec
     df4:	6af8      	ldr	r0, [r7, #44]	; 0x2c
     df6:	907a      	str	r0, [sp, #488]	; 0x1e8
     df8:	6ab8      	ldr	r0, [r7, #40]	; 0x28
     dfa:	9079      	str	r0, [sp, #484]	; 0x1e4
     dfc:	6a78      	ldr	r0, [r7, #36]	; 0x24
     dfe:	9078      	str	r0, [sp, #480]	; 0x1e0
     e00:	6a38      	ldr	r0, [r7, #32]
     e02:	9077      	str	r0, [sp, #476]	; 0x1dc
     e04:	69f8      	ldr	r0, [r7, #28]
     e06:	9076      	str	r0, [sp, #472]	; 0x1d8
     e08:	69b8      	ldr	r0, [r7, #24]
     e0a:	9075      	str	r0, [sp, #468]	; 0x1d4
     e0c:	6978      	ldr	r0, [r7, #20]
     e0e:	9074      	str	r0, [sp, #464]	; 0x1d0
     e10:	6938      	ldr	r0, [r7, #16]
     e12:	9073      	str	r0, [sp, #460]	; 0x1cc
     e14:	68f8      	ldr	r0, [r7, #12]
     e16:	9072      	str	r0, [sp, #456]	; 0x1c8
     e18:	68b8      	ldr	r0, [r7, #8]
     e1a:	9071      	str	r0, [sp, #452]	; 0x1c4
     e1c:	4618      	mov	r0, r3
     e1e:	9070      	str	r0, [sp, #448]	; 0x1c0
     e20:	4610      	mov	r0, r2
     e22:	906f      	str	r0, [sp, #444]	; 0x1bc
     e24:	4608      	mov	r0, r1
     e26:	906e      	str	r0, [sp, #440]	; 0x1b8
     e28:	9896      	ldr	r0, [sp, #600]	; 0x258
     e2a:	906d      	str	r0, [sp, #436]	; 0x1b4
     e2c:	9896      	ldr	r0, [sp, #600]	; 0x258
     e2e:	909a      	str	r0, [sp, #616]	; 0x268
     e30:	9199      	str	r1, [sp, #612]	; 0x264
     e32:	9298      	str	r2, [sp, #608]	; 0x260
     e34:	9397      	str	r3, [sp, #604]	; 0x25c
    LOGE("%d, %d, %d, %d, %d, %d, %d, %d, %d, %d, \
     e36:	9b9a      	ldr	r3, [sp, #616]	; 0x268
     e38:	9999      	ldr	r1, [sp, #612]	; 0x264
     e3a:	9a98      	ldr	r2, [sp, #608]	; 0x260
     e3c:	9897      	ldr	r0, [sp, #604]	; 0x25c
     e3e:	906c      	str	r0, [sp, #432]	; 0x1b0
     e40:	68b8      	ldr	r0, [r7, #8]
     e42:	906b      	str	r0, [sp, #428]	; 0x1ac
     e44:	68f8      	ldr	r0, [r7, #12]
     e46:	906a      	str	r0, [sp, #424]	; 0x1a8
     e48:	6938      	ldr	r0, [r7, #16]
     e4a:	9069      	str	r0, [sp, #420]	; 0x1a4
     e4c:	6978      	ldr	r0, [r7, #20]
     e4e:	9068      	str	r0, [sp, #416]	; 0x1a0
     e50:	69b8      	ldr	r0, [r7, #24]
     e52:	9067      	str	r0, [sp, #412]	; 0x19c
     e54:	69f8      	ldr	r0, [r7, #28]
     e56:	9066      	str	r0, [sp, #408]	; 0x198
     e58:	6a38      	ldr	r0, [r7, #32]
     e5a:	9065      	str	r0, [sp, #404]	; 0x194
     e5c:	6a78      	ldr	r0, [r7, #36]	; 0x24
     e5e:	9064      	str	r0, [sp, #400]	; 0x190
     e60:	6ab8      	ldr	r0, [r7, #40]	; 0x28
     e62:	9063      	str	r0, [sp, #396]	; 0x18c
     e64:	6af8      	ldr	r0, [r7, #44]	; 0x2c
     e66:	9062      	str	r0, [sp, #392]	; 0x188
     e68:	6b38      	ldr	r0, [r7, #48]	; 0x30
     e6a:	9061      	str	r0, [sp, #388]	; 0x184
     e6c:	6b78      	ldr	r0, [r7, #52]	; 0x34
     e6e:	9060      	str	r0, [sp, #384]	; 0x180
     e70:	6bb8      	ldr	r0, [r7, #56]	; 0x38
     e72:	905f      	str	r0, [sp, #380]	; 0x17c
     e74:	6bf8      	ldr	r0, [r7, #60]	; 0x3c
     e76:	905e      	str	r0, [sp, #376]	; 0x178
     e78:	6c38      	ldr	r0, [r7, #64]	; 0x40
     e7a:	905d      	str	r0, [sp, #372]	; 0x174
     e7c:	6c78      	ldr	r0, [r7, #68]	; 0x44
     e7e:	905c      	str	r0, [sp, #368]	; 0x170
     e80:	6cb8      	ldr	r0, [r7, #72]	; 0x48
     e82:	905b      	str	r0, [sp, #364]	; 0x16c
     e84:	6cf8      	ldr	r0, [r7, #76]	; 0x4c
     e86:	905a      	str	r0, [sp, #360]	; 0x168
     e88:	6d38      	ldr	r0, [r7, #80]	; 0x50
     e8a:	9059      	str	r0, [sp, #356]	; 0x164
     e8c:	6d78      	ldr	r0, [r7, #84]	; 0x54
     e8e:	9058      	str	r0, [sp, #352]	; 0x160
     e90:	6db8      	ldr	r0, [r7, #88]	; 0x58
     e92:	9057      	str	r0, [sp, #348]	; 0x15c
     e94:	6df8      	ldr	r0, [r7, #92]	; 0x5c
     e96:	9056      	str	r0, [sp, #344]	; 0x158
     e98:	6e38      	ldr	r0, [r7, #96]	; 0x60
     e9a:	9055      	str	r0, [sp, #340]	; 0x154
     e9c:	6e78      	ldr	r0, [r7, #100]	; 0x64
     e9e:	9054      	str	r0, [sp, #336]	; 0x150
     ea0:	6eb8      	ldr	r0, [r7, #104]	; 0x68
     ea2:	9053      	str	r0, [sp, #332]	; 0x14c
     ea4:	6ef8      	ldr	r0, [r7, #108]	; 0x6c
     ea6:	9052      	str	r0, [sp, #328]	; 0x148
     ea8:	6f38      	ldr	r0, [r7, #112]	; 0x70
     eaa:	9051      	str	r0, [sp, #324]	; 0x144
     eac:	6f78      	ldr	r0, [r7, #116]	; 0x74
     eae:	9050      	str	r0, [sp, #320]	; 0x140
     eb0:	6fb8      	ldr	r0, [r7, #120]	; 0x78
     eb2:	904f      	str	r0, [sp, #316]	; 0x13c
     eb4:	6ff8      	ldr	r0, [r7, #124]	; 0x7c
     eb6:	904e      	str	r0, [sp, #312]	; 0x138
     eb8:	f8d7 0080 	ldr.w	r0, [r7, #128]	; 0x80
     ebc:	904d      	str	r0, [sp, #308]	; 0x134
     ebe:	f8d7 0084 	ldr.w	r0, [r7, #132]	; 0x84
     ec2:	904c      	str	r0, [sp, #304]	; 0x130
     ec4:	f8d7 0088 	ldr.w	r0, [r7, #136]	; 0x88
     ec8:	904b      	str	r0, [sp, #300]	; 0x12c
     eca:	f8d7 008c 	ldr.w	r0, [r7, #140]	; 0x8c
     ece:	904a      	str	r0, [sp, #296]	; 0x128
     ed0:	f8d7 0090 	ldr.w	r0, [r7, #144]	; 0x90
     ed4:	9049      	str	r0, [sp, #292]	; 0x124
     ed6:	f8d7 0094 	ldr.w	r0, [r7, #148]	; 0x94
     eda:	9048      	str	r0, [sp, #288]	; 0x120
     edc:	f8d7 0098 	ldr.w	r0, [r7, #152]	; 0x98
     ee0:	9047      	str	r0, [sp, #284]	; 0x11c
     ee2:	f8d7 009c 	ldr.w	r0, [r7, #156]	; 0x9c
     ee6:	9046      	str	r0, [sp, #280]	; 0x118
     ee8:	f8d7 00a0 	ldr.w	r0, [r7, #160]	; 0xa0
     eec:	9045      	str	r0, [sp, #276]	; 0x114
     eee:	f8d7 00a4 	ldr.w	r0, [r7, #164]	; 0xa4
     ef2:	9044      	str	r0, [sp, #272]	; 0x110
     ef4:	f8d7 00a8 	ldr.w	r0, [r7, #168]	; 0xa8
     ef8:	9043      	str	r0, [sp, #268]	; 0x10c
     efa:	f8d7 00ac 	ldr.w	r0, [r7, #172]	; 0xac
     efe:	9042      	str	r0, [sp, #264]	; 0x108
     f00:	f8d7 00b0 	ldr.w	r0, [r7, #176]	; 0xb0
     f04:	9041      	str	r0, [sp, #260]	; 0x104
     f06:	f8d7 00b4 	ldr.w	r0, [r7, #180]	; 0xb4
     f0a:	9040      	str	r0, [sp, #256]	; 0x100
     f0c:	f8d7 00b8 	ldr.w	r0, [r7, #184]	; 0xb8
     f10:	903f      	str	r0, [sp, #252]	; 0xfc
     f12:	f8d7 00bc 	ldr.w	r0, [r7, #188]	; 0xbc
     f16:	903e      	str	r0, [sp, #248]	; 0xf8
     f18:	4668      	mov	r0, sp
     f1a:	903d      	str	r0, [sp, #244]	; 0xf4
     f1c:	983e      	ldr	r0, [sp, #248]	; 0xf8
     f1e:	913c      	str	r1, [sp, #240]	; 0xf0
     f20:	993d      	ldr	r1, [sp, #244]	; 0xf4
     f22:	f8c1 00c0 	str.w	r0, [r1, #192]	; 0xc0
     f26:	983f      	ldr	r0, [sp, #252]	; 0xfc
     f28:	f8c1 00bc 	str.w	r0, [r1, #188]	; 0xbc
     f2c:	9840      	ldr	r0, [sp, #256]	; 0x100
     f2e:	f8c1 00b8 	str.w	r0, [r1, #184]	; 0xb8
     f32:	9841      	ldr	r0, [sp, #260]	; 0x104
     f34:	f8c1 00b4 	str.w	r0, [r1, #180]	; 0xb4
     f38:	9842      	ldr	r0, [sp, #264]	; 0x108
     f3a:	f8c1 00b0 	str.w	r0, [r1, #176]	; 0xb0
     f3e:	9843      	ldr	r0, [sp, #268]	; 0x10c
     f40:	f8c1 00ac 	str.w	r0, [r1, #172]	; 0xac
     f44:	9844      	ldr	r0, [sp, #272]	; 0x110
     f46:	f8c1 00a8 	str.w	r0, [r1, #168]	; 0xa8
     f4a:	9845      	ldr	r0, [sp, #276]	; 0x114
     f4c:	f8c1 00a4 	str.w	r0, [r1, #164]	; 0xa4
     f50:	9846      	ldr	r0, [sp, #280]	; 0x118
     f52:	f8c1 00a0 	str.w	r0, [r1, #160]	; 0xa0
     f56:	9847      	ldr	r0, [sp, #284]	; 0x11c
     f58:	f8c1 009c 	str.w	r0, [r1, #156]	; 0x9c
     f5c:	9848      	ldr	r0, [sp, #288]	; 0x120
     f5e:	f8c1 0098 	str.w	r0, [r1, #152]	; 0x98
     f62:	9849      	ldr	r0, [sp, #292]	; 0x124
     f64:	f8c1 0094 	str.w	r0, [r1, #148]	; 0x94
     f68:	984a      	ldr	r0, [sp, #296]	; 0x128
     f6a:	f8c1 0090 	str.w	r0, [r1, #144]	; 0x90
     f6e:	984b      	ldr	r0, [sp, #300]	; 0x12c
     f70:	f8c1 008c 	str.w	r0, [r1, #140]	; 0x8c
     f74:	984c      	ldr	r0, [sp, #304]	; 0x130
     f76:	f8c1 0088 	str.w	r0, [r1, #136]	; 0x88
     f7a:	984d      	ldr	r0, [sp, #308]	; 0x134
     f7c:	f8c1 0084 	str.w	r0, [r1, #132]	; 0x84
     f80:	984e      	ldr	r0, [sp, #312]	; 0x138
     f82:	f8c1 0080 	str.w	r0, [r1, #128]	; 0x80
     f86:	984f      	ldr	r0, [sp, #316]	; 0x13c
     f88:	67c8      	str	r0, [r1, #124]	; 0x7c
     f8a:	9850      	ldr	r0, [sp, #320]	; 0x140
     f8c:	6788      	str	r0, [r1, #120]	; 0x78
     f8e:	9851      	ldr	r0, [sp, #324]	; 0x144
     f90:	6748      	str	r0, [r1, #116]	; 0x74
     f92:	9852      	ldr	r0, [sp, #328]	; 0x148
     f94:	6708      	str	r0, [r1, #112]	; 0x70
     f96:	9853      	ldr	r0, [sp, #332]	; 0x14c
     f98:	66c8      	str	r0, [r1, #108]	; 0x6c
     f9a:	9854      	ldr	r0, [sp, #336]	; 0x150
     f9c:	6688      	str	r0, [r1, #104]	; 0x68
     f9e:	9855      	ldr	r0, [sp, #340]	; 0x154
     fa0:	6648      	str	r0, [r1, #100]	; 0x64
     fa2:	9856      	ldr	r0, [sp, #344]	; 0x158
     fa4:	6608      	str	r0, [r1, #96]	; 0x60
     fa6:	9857      	ldr	r0, [sp, #348]	; 0x15c
     fa8:	65c8      	str	r0, [r1, #92]	; 0x5c
     faa:	9858      	ldr	r0, [sp, #352]	; 0x160
     fac:	6588      	str	r0, [r1, #88]	; 0x58
     fae:	9859      	ldr	r0, [sp, #356]	; 0x164
     fb0:	6548      	str	r0, [r1, #84]	; 0x54
     fb2:	985a      	ldr	r0, [sp, #360]	; 0x168
     fb4:	6508      	str	r0, [r1, #80]	; 0x50
     fb6:	985b      	ldr	r0, [sp, #364]	; 0x16c
     fb8:	64c8      	str	r0, [r1, #76]	; 0x4c
     fba:	985c      	ldr	r0, [sp, #368]	; 0x170
     fbc:	6488      	str	r0, [r1, #72]	; 0x48
     fbe:	985d      	ldr	r0, [sp, #372]	; 0x174
     fc0:	6448      	str	r0, [r1, #68]	; 0x44
     fc2:	985e      	ldr	r0, [sp, #376]	; 0x178
     fc4:	6408      	str	r0, [r1, #64]	; 0x40
     fc6:	985f      	ldr	r0, [sp, #380]	; 0x17c
     fc8:	63c8      	str	r0, [r1, #60]	; 0x3c
     fca:	9860      	ldr	r0, [sp, #384]	; 0x180
     fcc:	6388      	str	r0, [r1, #56]	; 0x38
     fce:	9861      	ldr	r0, [sp, #388]	; 0x184
     fd0:	6348      	str	r0, [r1, #52]	; 0x34
     fd2:	9862      	ldr	r0, [sp, #392]	; 0x188
     fd4:	6308      	str	r0, [r1, #48]	; 0x30
     fd6:	9863      	ldr	r0, [sp, #396]	; 0x18c
     fd8:	62c8      	str	r0, [r1, #44]	; 0x2c
     fda:	9864      	ldr	r0, [sp, #400]	; 0x190
     fdc:	6288      	str	r0, [r1, #40]	; 0x28
     fde:	9865      	ldr	r0, [sp, #404]	; 0x194
     fe0:	6248      	str	r0, [r1, #36]	; 0x24
     fe2:	9866      	ldr	r0, [sp, #408]	; 0x198
     fe4:	6208      	str	r0, [r1, #32]
     fe6:	9867      	ldr	r0, [sp, #412]	; 0x19c
     fe8:	61c8      	str	r0, [r1, #28]
     fea:	9868      	ldr	r0, [sp, #416]	; 0x1a0
     fec:	6188      	str	r0, [r1, #24]
     fee:	9869      	ldr	r0, [sp, #420]	; 0x1a4
     ff0:	6148      	str	r0, [r1, #20]
     ff2:	986a      	ldr	r0, [sp, #424]	; 0x1a8
     ff4:	6108      	str	r0, [r1, #16]
     ff6:	986b      	ldr	r0, [sp, #428]	; 0x1ac
     ff8:	60c8      	str	r0, [r1, #12]
     ffa:	986c      	ldr	r0, [sp, #432]	; 0x1b0
     ffc:	6088      	str	r0, [r1, #8]
     ffe:	604a      	str	r2, [r1, #4]
    1000:	983c      	ldr	r0, [sp, #240]	; 0xf0
    1002:	6008      	str	r0, [r1, #0]
    1004:	480f      	ldr	r0, [pc, #60]	; (1044 <testParameter+0x2fc>)
    1006:	4478      	add	r0, pc
    1008:	4a0f      	ldr	r2, [pc, #60]	; (1048 <testParameter+0x300>)
    100a:	447a      	add	r2, pc
    100c:	2106      	movs	r1, #6
    100e:	903b      	str	r0, [sp, #236]	; 0xec
    1010:	4608      	mov	r0, r1
    1012:	993b      	ldr	r1, [sp, #236]	; 0xec
    1014:	f8cd 90e8 	str.w	r9, [sp, #232]	; 0xe8
    1018:	f8cd a0e4 	str.w	sl, [sp, #228]	; 0xe4
    101c:	f8cd b0e0 	str.w	fp, [sp, #224]	; 0xe0
    1020:	f8cd 80dc 	str.w	r8, [sp, #220]	; 0xdc
    1024:	f8cd c0d8 	str.w	ip, [sp, #216]	; 0xd8
    1028:	f8cd e0d4 	str.w	lr, [sp, #212]	; 0xd4
    102c:	9434      	str	r4, [sp, #208]	; 0xd0
    102e:	9533      	str	r5, [sp, #204]	; 0xcc
    1030:	9632      	str	r6, [sp, #200]	; 0xc8
    1032:	f7ff ec84 	blx	93c <__android_log_print@plt>
         a1,   a2, a3,  a4,  a5,  a6,  a7,  a8,  a9,  a10,
         a11,  a12, a13,  a14,  a15,  a16,  a17,  a18,  a19,  a20,
         a21,  a22, a23,  a24,  a25,  a26,  a27,  a28,  a29,  a30,
         a31,  a32, a33,  a34,  a35,  a36,  a37,  a38,  a39,  a40,
         a41,  a42, a43,  a44,  a45,  a46,  a47,  a48,  a49,  a50);
    return;
    1036:	9031      	str	r0, [sp, #196]	; 0xc4
    1038:	f50d 7d1b 	add.w	sp, sp, #620	; 0x26c
    103c:	e8bd 0f00 	ldmia.w	sp!, {r8, r9, sl, fp}
    1040:	bdf0      	pop	{r4, r5, r6, r7, pc}
    1042:	bf00      	nop
    1044:	000013d4 	ldrdeq	r1, [r0], -r4
    1048:	00001482 	andeq	r1, r0, r2, lsl #9

0000104c <willCrash>:
}

void willCrash()
{
    104c:	b580      	push	{r7, lr}
    104e:	466f      	mov	r7, sp
    1050:	b086      	sub	sp, #24
    1052:	2000      	movs	r0, #0
    int *p = NULL;
    1054:	9005      	str	r0, [sp, #20]
    *p = 10;
    1056:	9805      	ldr	r0, [sp, #20]
    1058:	210a      	movs	r1, #10
    105a:	6001      	str	r1, [r0, #0]
    LOGE("Fun : %s, Line : %d", __FUNCTION__, __LINE__ );
    105c:	4668      	mov	r0, sp
    105e:	2181      	movs	r1, #129	; 0x81
    1060:	6001      	str	r1, [r0, #0]
    1062:	480b      	ldr	r0, [pc, #44]	; (1090 <willCrash+0x44>)
    1064:	4478      	add	r0, pc
    1066:	490b      	ldr	r1, [pc, #44]	; (1094 <willCrash+0x48>)
    1068:	4479      	add	r1, pc
    106a:	4a0b      	ldr	r2, [pc, #44]	; (1098 <willCrash+0x4c>)
    106c:	447a      	add	r2, pc
    106e:	2306      	movs	r3, #6
    1070:	9004      	str	r0, [sp, #16]
    1072:	4618      	mov	r0, r3
    1074:	9b04      	ldr	r3, [sp, #16]
    1076:	9103      	str	r1, [sp, #12]
    1078:	4619      	mov	r1, r3
    107a:	f8dd c00c 	ldr.w	ip, [sp, #12]
    107e:	9202      	str	r2, [sp, #8]
    1080:	4662      	mov	r2, ip
    1082:	9b02      	ldr	r3, [sp, #8]
    1084:	f7ff ec5a 	blx	93c <__android_log_print@plt>
}
    1088:	9001      	str	r0, [sp, #4]
    108a:	b006      	add	sp, #24
    108c:	bd80      	pop	{r7, pc}
    108e:	bf00      	nop
    1090:	00001376 	andeq	r1, r0, r6, ror r3
    1094:	0000152f 	andeq	r1, r0, pc, lsr #10
    1098:	0000153f 	andeq	r1, r0, pc, lsr r5

0000109c <Java_com_crash_test_HelloJni_nativeMsg>:

JNIEXPORT void JNICALL
Java_com_crash_test_HelloJni_nativeMsg(JNIEnv* env, jobject thiz)
{
    109c:	b580      	push	{r7, lr}
    109e:	466f      	mov	r7, sp
    10a0:	b0c0      	sub	sp, #256	; 0x100
    10a2:	460a      	mov	r2, r1
    10a4:	4603      	mov	r3, r0
    10a6:	903f      	str	r0, [sp, #252]	; 0xfc
    10a8:	913e      	str	r1, [sp, #248]	; 0xf8
    10aa:	2000      	movs	r0, #0
    int result = 0;
    10ac:	903d      	str	r0, [sp, #244]	; 0xf4
//    system("pwd");
    result = system("mkdir /data/data/com.bar.hellojni/temp");
    10ae:	4884      	ldr	r0, [pc, #528]	; (12c0 <Java_com_crash_test_HelloJni_nativeMsg+0x224>)
    10b0:	4478      	add	r0, pc
    10b2:	9239      	str	r2, [sp, #228]	; 0xe4
    10b4:	9338      	str	r3, [sp, #224]	; 0xe0
    10b6:	f7ff ec66 	blx	984 <system@plt>
    10ba:	903d      	str	r0, [sp, #244]	; 0xf4
    if( -1 == result || 127 == result )
    10bc:	983d      	ldr	r0, [sp, #244]	; 0xf4
    10be:	3001      	adds	r0, #1
    10c0:	2800      	cmp	r0, #0
    10c2:	d004      	beq.n	10ce <Java_com_crash_test_HelloJni_nativeMsg+0x32>
    10c4:	e7ff      	b.n	10c6 <Java_com_crash_test_HelloJni_nativeMsg+0x2a>
    10c6:	983d      	ldr	r0, [sp, #244]	; 0xf4
    10c8:	287f      	cmp	r0, #127	; 0x7f
    10ca:	d10f      	bne.n	10ec <Java_com_crash_test_HelloJni_nativeMsg+0x50>
    10cc:	e7ff      	b.n	10ce <Java_com_crash_test_HelloJni_nativeMsg+0x32>
    {
        LOGE("error");
    10ce:	487d      	ldr	r0, [pc, #500]	; (12c4 <Java_com_crash_test_HelloJni_nativeMsg+0x228>)
    10d0:	4478      	add	r0, pc
    10d2:	497d      	ldr	r1, [pc, #500]	; (12c8 <Java_com_crash_test_HelloJni_nativeMsg+0x22c>)
    10d4:	4479      	add	r1, pc
    10d6:	2206      	movs	r2, #6
    10d8:	9037      	str	r0, [sp, #220]	; 0xdc
    10da:	4610      	mov	r0, r2
    10dc:	9a37      	ldr	r2, [sp, #220]	; 0xdc
    10de:	9136      	str	r1, [sp, #216]	; 0xd8
    10e0:	4611      	mov	r1, r2
    10e2:	9a36      	ldr	r2, [sp, #216]	; 0xd8
    10e4:	f7ff ec2a 	blx	93c <__android_log_print@plt>
    }
    10e8:	9035      	str	r0, [sp, #212]	; 0xd4
    10ea:	e7ff      	b.n	10ec <Java_com_crash_test_HelloJni_nativeMsg+0x50>

    willCrash();
    10ec:	f7ff ec50 	blx	990 <willCrash@plt>

    pid_t pid = getpid();
    10f0:	f7ff ec54 	blx	99c <getpid@plt>
    10f4:	903c      	str	r0, [sp, #240]	; 0xf0
    uid_t uid = getuid();
    10f6:	f7ff ec58 	blx	9a8 <getuid@plt>
    10fa:	903b      	str	r0, [sp, #236]	; 0xec

    testNoPara();
    10fc:	f7ff ec5a 	blx	9b4 <testNoPara@plt>
    testOnePara(2);
    1100:	2002      	movs	r0, #2
    1102:	9034      	str	r0, [sp, #208]	; 0xd0
    1104:	f7ff ec5c 	blx	9c0 <testOnePara@plt>
    testParameter(1, 2, 3, 4, 5, 6, 7, 8, 9, 10,
    1108:	4668      	mov	r0, sp
    110a:	f04f 0e32 	mov.w	lr, #50	; 0x32
    110e:	f8c0 e0b4 	str.w	lr, [r0, #180]	; 0xb4
    1112:	f04f 0e31 	mov.w	lr, #49	; 0x31
    1116:	f8c0 e0b0 	str.w	lr, [r0, #176]	; 0xb0
    111a:	f04f 0e30 	mov.w	lr, #48	; 0x30
    111e:	f8c0 e0ac 	str.w	lr, [r0, #172]	; 0xac
    1122:	f04f 0e2f 	mov.w	lr, #47	; 0x2f
    1126:	f8c0 e0a8 	str.w	lr, [r0, #168]	; 0xa8
    112a:	f04f 0e2e 	mov.w	lr, #46	; 0x2e
    112e:	f8c0 e0a4 	str.w	lr, [r0, #164]	; 0xa4
    1132:	f04f 0e2d 	mov.w	lr, #45	; 0x2d
    1136:	f8c0 e0a0 	str.w	lr, [r0, #160]	; 0xa0
    113a:	f04f 0e2c 	mov.w	lr, #44	; 0x2c
    113e:	f8c0 e09c 	str.w	lr, [r0, #156]	; 0x9c
    1142:	f04f 0e2b 	mov.w	lr, #43	; 0x2b
    1146:	f8c0 e098 	str.w	lr, [r0, #152]	; 0x98
    114a:	f04f 0e2a 	mov.w	lr, #42	; 0x2a
    114e:	f8c0 e094 	str.w	lr, [r0, #148]	; 0x94
    1152:	f04f 0e29 	mov.w	lr, #41	; 0x29
    1156:	f8c0 e090 	str.w	lr, [r0, #144]	; 0x90
    115a:	f04f 0e28 	mov.w	lr, #40	; 0x28
    115e:	f8c0 e08c 	str.w	lr, [r0, #140]	; 0x8c
    1162:	f04f 0e27 	mov.w	lr, #39	; 0x27
    1166:	f8c0 e088 	str.w	lr, [r0, #136]	; 0x88
    116a:	f04f 0e26 	mov.w	lr, #38	; 0x26
    116e:	f8c0 e084 	str.w	lr, [r0, #132]	; 0x84
    1172:	f04f 0e25 	mov.w	lr, #37	; 0x25
    1176:	f8c0 e080 	str.w	lr, [r0, #128]	; 0x80
    117a:	f04f 0e24 	mov.w	lr, #36	; 0x24
    117e:	f8c0 e07c 	str.w	lr, [r0, #124]	; 0x7c
    1182:	f04f 0e23 	mov.w	lr, #35	; 0x23
    1186:	f8c0 e078 	str.w	lr, [r0, #120]	; 0x78
    118a:	f04f 0e22 	mov.w	lr, #34	; 0x22
    118e:	f8c0 e074 	str.w	lr, [r0, #116]	; 0x74
    1192:	f04f 0e21 	mov.w	lr, #33	; 0x21
    1196:	f8c0 e070 	str.w	lr, [r0, #112]	; 0x70
    119a:	f04f 0e20 	mov.w	lr, #32
    119e:	f8c0 e06c 	str.w	lr, [r0, #108]	; 0x6c
    11a2:	f04f 0e1f 	mov.w	lr, #31
    11a6:	f8c0 e068 	str.w	lr, [r0, #104]	; 0x68
    11aa:	f04f 0e1e 	mov.w	lr, #30
    11ae:	f8c0 e064 	str.w	lr, [r0, #100]	; 0x64
    11b2:	f04f 0e1d 	mov.w	lr, #29
    11b6:	f8c0 e060 	str.w	lr, [r0, #96]	; 0x60
    11ba:	f04f 0e1c 	mov.w	lr, #28
    11be:	f8c0 e05c 	str.w	lr, [r0, #92]	; 0x5c
    11c2:	f04f 0e1b 	mov.w	lr, #27
    11c6:	f8c0 e058 	str.w	lr, [r0, #88]	; 0x58
    11ca:	f04f 0e1a 	mov.w	lr, #26
    11ce:	f8c0 e054 	str.w	lr, [r0, #84]	; 0x54
    11d2:	f04f 0e19 	mov.w	lr, #25
    11d6:	f8c0 e050 	str.w	lr, [r0, #80]	; 0x50
    11da:	f04f 0e18 	mov.w	lr, #24
    11de:	f8c0 e04c 	str.w	lr, [r0, #76]	; 0x4c
    11e2:	f04f 0e17 	mov.w	lr, #23
    11e6:	f8c0 e048 	str.w	lr, [r0, #72]	; 0x48
    11ea:	f04f 0e16 	mov.w	lr, #22
    11ee:	f8c0 e044 	str.w	lr, [r0, #68]	; 0x44
    11f2:	f04f 0e15 	mov.w	lr, #21
    11f6:	f8c0 e040 	str.w	lr, [r0, #64]	; 0x40
    11fa:	f04f 0e14 	mov.w	lr, #20
    11fe:	f8c0 e03c 	str.w	lr, [r0, #60]	; 0x3c
    1202:	f04f 0e13 	mov.w	lr, #19
    1206:	f8c0 e038 	str.w	lr, [r0, #56]	; 0x38
    120a:	f04f 0e12 	mov.w	lr, #18
    120e:	f8c0 e034 	str.w	lr, [r0, #52]	; 0x34
    1212:	f04f 0e11 	mov.w	lr, #17
    1216:	f8c0 e030 	str.w	lr, [r0, #48]	; 0x30
    121a:	f04f 0e10 	mov.w	lr, #16
    121e:	f8c0 e02c 	str.w	lr, [r0, #44]	; 0x2c
    1222:	f04f 0e0f 	mov.w	lr, #15
    1226:	f8c0 e028 	str.w	lr, [r0, #40]	; 0x28
    122a:	f04f 0e0e 	mov.w	lr, #14
    122e:	f8c0 e024 	str.w	lr, [r0, #36]	; 0x24
    1232:	f04f 0e0d 	mov.w	lr, #13
    1236:	f8c0 e020 	str.w	lr, [r0, #32]
    123a:	f04f 0e0c 	mov.w	lr, #12
    123e:	f8c0 e01c 	str.w	lr, [r0, #28]
    1242:	f04f 0e0b 	mov.w	lr, #11
    1246:	f8c0 e018 	str.w	lr, [r0, #24]
    124a:	f04f 0e0a 	mov.w	lr, #10
    124e:	f8c0 e014 	str.w	lr, [r0, #20]
    1252:	f04f 0e09 	mov.w	lr, #9
    1256:	f8c0 e010 	str.w	lr, [r0, #16]
    125a:	f04f 0e08 	mov.w	lr, #8
    125e:	f8c0 e00c 	str.w	lr, [r0, #12]
    1262:	f04f 0e07 	mov.w	lr, #7
    1266:	f8c0 e008 	str.w	lr, [r0, #8]
    126a:	f04f 0e06 	mov.w	lr, #6
    126e:	f8c0 e004 	str.w	lr, [r0, #4]
    1272:	2105      	movs	r1, #5
    1274:	6001      	str	r1, [r0, #0]
    1276:	2001      	movs	r0, #1
    1278:	2203      	movs	r2, #3
    127a:	2304      	movs	r3, #4
    127c:	9934      	ldr	r1, [sp, #208]	; 0xd0
    127e:	f8cd e0cc 	str.w	lr, [sp, #204]	; 0xcc
    1282:	f7ff eba4 	blx	9cc <testParameter@plt>
                  11, 12, 13, 14, 15, 16, 17, 18, 19, 20,
                  21, 22, 23, 24, 25, 26, 27, 28, 29, 30,
                  31, 32, 33, 34, 35, 36, 37, 38, 39, 40,
                  41, 42, 43, 44, 45, 46, 47, 48, 49 ,50);

    char *username = getlogin();
    1286:	f7ff eba8 	blx	9d8 <getlogin@plt>
    128a:	903a      	str	r0, [sp, #232]	; 0xe8
    LOGE("F:%s,%s", __FUNCTION__, username);
    128c:	983a      	ldr	r0, [sp, #232]	; 0xe8
    128e:	4669      	mov	r1, sp
    1290:	6008      	str	r0, [r1, #0]
    1292:	480e      	ldr	r0, [pc, #56]	; (12cc <Java_com_crash_test_HelloJni_nativeMsg+0x230>)
    1294:	4478      	add	r0, pc
    1296:	490e      	ldr	r1, [pc, #56]	; (12d0 <Java_com_crash_test_HelloJni_nativeMsg+0x234>)
    1298:	4479      	add	r1, pc
    129a:	4a0e      	ldr	r2, [pc, #56]	; (12d4 <Java_com_crash_test_HelloJni_nativeMsg+0x238>)
    129c:	447a      	add	r2, pc
    129e:	9b33      	ldr	r3, [sp, #204]	; 0xcc
    12a0:	9032      	str	r0, [sp, #200]	; 0xc8
    12a2:	4618      	mov	r0, r3
    12a4:	f8dd e0c8 	ldr.w	lr, [sp, #200]	; 0xc8
    12a8:	9131      	str	r1, [sp, #196]	; 0xc4
    12aa:	4671      	mov	r1, lr
    12ac:	f8dd c0c4 	ldr.w	ip, [sp, #196]	; 0xc4
    12b0:	9230      	str	r2, [sp, #192]	; 0xc0
    12b2:	4662      	mov	r2, ip
    12b4:	9b30      	ldr	r3, [sp, #192]	; 0xc0
    12b6:	f7ff eb42 	blx	93c <__android_log_print@plt>
}
    12ba:	902f      	str	r0, [sp, #188]	; 0xbc
    12bc:	b040      	add	sp, #256	; 0x100
    12be:	bd80      	pop	{r7, pc}
    12c0:	00001505 	andeq	r1, r0, r5, lsl #10
    12c4:	0000130a 	andeq	r1, r0, sl, lsl #6
    12c8:	0000136c 	andeq	r1, r0, ip, ror #6
    12cc:	00001146 	andeq	r1, r0, r6, asr #2
    12d0:	00001344 	andeq	r1, r0, r4, asr #6
    12d4:	00001348 	andeq	r1, r0, r8, asr #6

000012d8 <Java_com_crash_test_HelloJni_stringFromJNI>:

JNIEXPORT jstring JNICALL
Java_com_crash_test_HelloJni_stringFromJNI( JNIEnv* env,
                                                  jobject thiz )
{
    12d8:	b580      	push	{r7, lr}
    12da:	466f      	mov	r7, sp
    12dc:	b098      	sub	sp, #96	; 0x60
    12de:	460a      	mov	r2, r1
    12e0:	4603      	mov	r3, r0
    12e2:	9017      	str	r0, [sp, #92]	; 0x5c
    12e4:	9116      	str	r1, [sp, #88]	; 0x58

    LOGE(__FUNCTION__);
    12e6:	4845      	ldr	r0, [pc, #276]	; (13fc <Java_com_crash_test_HelloJni_stringFromJNI+0x124>)
    12e8:	4478      	add	r0, pc
    12ea:	4945      	ldr	r1, [pc, #276]	; (1400 <Java_com_crash_test_HelloJni_stringFromJNI+0x128>)
    12ec:	4479      	add	r1, pc
    12ee:	f04f 0c06 	mov.w	ip, #6
    12f2:	9011      	str	r0, [sp, #68]	; 0x44
    12f4:	4660      	mov	r0, ip
    12f6:	f8dd c044 	ldr.w	ip, [sp, #68]	; 0x44
    12fa:	9110      	str	r1, [sp, #64]	; 0x40
    12fc:	4661      	mov	r1, ip
    12fe:	f8dd e040 	ldr.w	lr, [sp, #64]	; 0x40
    1302:	920f      	str	r2, [sp, #60]	; 0x3c
    1304:	4672      	mov	r2, lr
    1306:	930e      	str	r3, [sp, #56]	; 0x38
    1308:	f7ff eb18 	blx	93c <__android_log_print@plt>
//    MY_LOG_DEBUG("env=%p thiz=%p", env, thiz);
//    MY_LOG_DEBUG("%s", "=========>test");
//    MY_LOG_ASSERT(0!=env, "JNIEnv cannot be NULL");
//    MY_LOG_INFO("REturning a new string");

    if( JNI_OK == (*env)->MonitorEnter(env, thiz)){
    130c:	9917      	ldr	r1, [sp, #92]	; 0x5c
    130e:	680a      	ldr	r2, [r1, #0]
    1310:	f8d2 2364 	ldr.w	r2, [r2, #868]	; 0x364
    1314:	9b16      	ldr	r3, [sp, #88]	; 0x58
    1316:	900d      	str	r0, [sp, #52]	; 0x34
    1318:	4608      	mov	r0, r1
    131a:	4619      	mov	r1, r3
    131c:	4790      	blx	r2
    131e:	2800      	cmp	r0, #0
    1320:	d10f      	bne.n	1342 <Java_com_crash_test_HelloJni_stringFromJNI+0x6a>
    1322:	e7ff      	b.n	1324 <Java_com_crash_test_HelloJni_stringFromJNI+0x4c>
        LOGE("MonitorEnterr");
    1324:	4837      	ldr	r0, [pc, #220]	; (1404 <Java_com_crash_test_HelloJni_stringFromJNI+0x12c>)
    1326:	4478      	add	r0, pc
    1328:	4937      	ldr	r1, [pc, #220]	; (1408 <Java_com_crash_test_HelloJni_stringFromJNI+0x130>)
    132a:	4479      	add	r1, pc
    132c:	2206      	movs	r2, #6
    132e:	900c      	str	r0, [sp, #48]	; 0x30
    1330:	4610      	mov	r0, r2
    1332:	9a0c      	ldr	r2, [sp, #48]	; 0x30
    1334:	910b      	str	r1, [sp, #44]	; 0x2c
    1336:	4611      	mov	r1, r2
    1338:	9a0b      	ldr	r2, [sp, #44]	; 0x2c
    133a:	f7ff eb00 	blx	93c <__android_log_print@plt>
    }
    133e:	900a      	str	r0, [sp, #40]	; 0x28
    1340:	e7ff      	b.n	1342 <Java_com_crash_test_HelloJni_stringFromJNI+0x6a>
    1342:	2000      	movs	r0, #0

    int result = 0;
    1344:	9015      	str	r0, [sp, #84]	; 0x54
//    system("pwd");
    result = system("mkdir /data/data/com.bar.hellojni/temp");
    1346:	4831      	ldr	r0, [pc, #196]	; (140c <Java_com_crash_test_HelloJni_stringFromJNI+0x134>)
    1348:	4478      	add	r0, pc
    134a:	f7ff eb1c 	blx	984 <system@plt>
    134e:	9015      	str	r0, [sp, #84]	; 0x54
    if( -1 == result || 127 == result )
    1350:	9815      	ldr	r0, [sp, #84]	; 0x54
    1352:	3001      	adds	r0, #1
    1354:	2800      	cmp	r0, #0
    1356:	d004      	beq.n	1362 <Java_com_crash_test_HelloJni_stringFromJNI+0x8a>
    1358:	e7ff      	b.n	135a <Java_com_crash_test_HelloJni_stringFromJNI+0x82>
    135a:	9815      	ldr	r0, [sp, #84]	; 0x54
    135c:	287f      	cmp	r0, #127	; 0x7f
    135e:	d10f      	bne.n	1380 <Java_com_crash_test_HelloJni_stringFromJNI+0xa8>
    1360:	e7ff      	b.n	1362 <Java_com_crash_test_HelloJni_stringFromJNI+0x8a>
    {
        LOGE("error");
    1362:	482b      	ldr	r0, [pc, #172]	; (1410 <Java_com_crash_test_HelloJni_stringFromJNI+0x138>)
    1364:	4478      	add	r0, pc
    1366:	492b      	ldr	r1, [pc, #172]	; (1414 <Java_com_crash_test_HelloJni_stringFromJNI+0x13c>)
    1368:	4479      	add	r1, pc
    136a:	2206      	movs	r2, #6
    136c:	9009      	str	r0, [sp, #36]	; 0x24
    136e:	4610      	mov	r0, r2
    1370:	9a09      	ldr	r2, [sp, #36]	; 0x24
    1372:	9108      	str	r1, [sp, #32]
    1374:	4611      	mov	r1, r2
    1376:	9a08      	ldr	r2, [sp, #32]
    1378:	f7ff eae0 	blx	93c <__android_log_print@plt>
    }
    137c:	9007      	str	r0, [sp, #28]
    137e:	e7ff      	b.n	1380 <Java_com_crash_test_HelloJni_stringFromJNI+0xa8>

    pid_t pid = getpid();
    1380:	f7ff eb0c 	blx	99c <getpid@plt>
    1384:	9014      	str	r0, [sp, #80]	; 0x50
    uid_t uid = getuid();
    1386:	f7ff eb10 	blx	9a8 <getuid@plt>
    138a:	9013      	str	r0, [sp, #76]	; 0x4c

    char *username = getlogin();
    138c:	f7ff eb24 	blx	9d8 <getlogin@plt>
    1390:	9012      	str	r0, [sp, #72]	; 0x48
    LOGE("%s", username);
    1392:	9b12      	ldr	r3, [sp, #72]	; 0x48
    1394:	4820      	ldr	r0, [pc, #128]	; (1418 <Java_com_crash_test_HelloJni_stringFromJNI+0x140>)
    1396:	4478      	add	r0, pc
    1398:	f8df e080 	ldr.w	lr, [pc, #128]	; 141c <Java_com_crash_test_HelloJni_stringFromJNI+0x144>
    139c:	44fe      	add	lr, pc
    139e:	2106      	movs	r1, #6
    13a0:	9006      	str	r0, [sp, #24]
    13a2:	4608      	mov	r0, r1
    13a4:	9906      	ldr	r1, [sp, #24]
    13a6:	4672      	mov	r2, lr
    13a8:	f7ff eac8 	blx	93c <__android_log_print@plt>
//    if( 0 != errno )
//    {
//        __android_log_assert("0!=errno","hello-jni", "There is an error.");
//    }

    if(JNI_OK == (*env)->MonitorExit(env, thiz)){
    13ac:	9917      	ldr	r1, [sp, #92]	; 0x5c
    13ae:	680a      	ldr	r2, [r1, #0]
    13b0:	f8d2 2368 	ldr.w	r2, [r2, #872]	; 0x368
    13b4:	9b16      	ldr	r3, [sp, #88]	; 0x58
    13b6:	9005      	str	r0, [sp, #20]
    13b8:	4608      	mov	r0, r1
    13ba:	4619      	mov	r1, r3
    13bc:	4790      	blx	r2
    13be:	2800      	cmp	r0, #0
    13c0:	d10f      	bne.n	13e2 <Java_com_crash_test_HelloJni_stringFromJNI+0x10a>
    13c2:	e7ff      	b.n	13c4 <Java_com_crash_test_HelloJni_stringFromJNI+0xec>
        LOGE("MonitorExit");
    13c4:	4816      	ldr	r0, [pc, #88]	; (1420 <Java_com_crash_test_HelloJni_stringFromJNI+0x148>)
    13c6:	4478      	add	r0, pc
    13c8:	4916      	ldr	r1, [pc, #88]	; (1424 <Java_com_crash_test_HelloJni_stringFromJNI+0x14c>)
    13ca:	4479      	add	r1, pc
    13cc:	2206      	movs	r2, #6
    13ce:	9004      	str	r0, [sp, #16]
    13d0:	4610      	mov	r0, r2
    13d2:	9a04      	ldr	r2, [sp, #16]
    13d4:	9103      	str	r1, [sp, #12]
    13d6:	4611      	mov	r1, r2
    13d8:	9a03      	ldr	r2, [sp, #12]
    13da:	f7ff eab0 	blx	93c <__android_log_print@plt>
    }
    13de:	9002      	str	r0, [sp, #8]
    13e0:	e7ff      	b.n	13e2 <Java_com_crash_test_HelloJni_stringFromJNI+0x10a>
//    (*env)->ExceptionClear(env);
    return (*env)->NewStringUTF(env, "Hello from JNI !  Compiled with ABI " ABI ".");
    13e2:	9817      	ldr	r0, [sp, #92]	; 0x5c
    13e4:	6801      	ldr	r1, [r0, #0]
    13e6:	f8d1 129c 	ldr.w	r1, [r1, #668]	; 0x29c
    13ea:	4a0f      	ldr	r2, [pc, #60]	; (1428 <Java_com_crash_test_HelloJni_stringFromJNI+0x150>)
    13ec:	447a      	add	r2, pc
    13ee:	9101      	str	r1, [sp, #4]
    13f0:	4611      	mov	r1, r2
    13f2:	9a01      	ldr	r2, [sp, #4]
    13f4:	4790      	blx	r2
    13f6:	b018      	add	sp, #96	; 0x60
    13f8:	bd80      	pop	{r7, pc}
    13fa:	bf00      	nop
    13fc:	000010f2 	strdeq	r1, [r0], -r2
    1400:	0000131f 	andeq	r1, r0, pc, lsl r3
    1404:	000010b4 	strheq	r1, [r0], -r4
    1408:	0000130c 	andeq	r1, r0, ip, lsl #6
    140c:	0000126d 	andeq	r1, r0, sp, ror #4
    1410:	00001076 	andeq	r1, r0, r6, ror r0
    1414:	000010d8 	ldrdeq	r1, [r0], -r8
    1418:	00001044 	andeq	r1, r0, r4, asr #32
    141c:	000012a8 	andeq	r1, r0, r8, lsr #5
    1420:	00001014 	andeq	r1, r0, r4, lsl r0
    1424:	0000127d 	andeq	r1, r0, sp, ror r2
    1428:	00001267 	andeq	r1, r0, r7, ror #4

0000142c <Java_com_crash_test_HelloJni_stringFromJNI_11>:
}

JNIEXPORT jstring JNICALL
Java_com_crash_test_HelloJni_stringFromJNI_11(
        JNIEnv* env, jobject thiz )
{
    142c:	b580      	push	{r7, lr}
    142e:	466f      	mov	r7, sp
    1430:	b086      	sub	sp, #24
    1432:	460a      	mov	r2, r1
    1434:	4603      	mov	r3, r0
    1436:	9005      	str	r0, [sp, #20]
    1438:	9104      	str	r1, [sp, #16]
    return (*env)->NewStringUTF(env, "stringFromJNI_11");
    143a:	9805      	ldr	r0, [sp, #20]
    143c:	6801      	ldr	r1, [r0, #0]
    143e:	f8d1 129c 	ldr.w	r1, [r1, #668]	; 0x29c
    1442:	f8df c018 	ldr.w	ip, [pc, #24]	; 145c <Java_com_crash_test_HelloJni_stringFromJNI_11+0x30>
    1446:	44fc      	add	ip, pc
    1448:	9103      	str	r1, [sp, #12]
    144a:	4661      	mov	r1, ip
    144c:	f8dd c00c 	ldr.w	ip, [sp, #12]
    1450:	9202      	str	r2, [sp, #8]
    1452:	9301      	str	r3, [sp, #4]
    1454:	47e0      	blx	ip
    1456:	b006      	add	sp, #24
    1458:	bd80      	pop	{r7, pc}
    145a:	bf00      	nop
    145c:	0000123e 	andeq	r1, r0, lr, lsr r2

00001460 <JNI_OnLoad>:

#include <jni.h>
#include <android/log.h>

JavaVM *gs_jvm=0;
jint JNI_OnLoad( JavaVM* vm, void *reserved){
    1460:	b085      	sub	sp, #20
    1462:	460a      	mov	r2, r1
    1464:	4603      	mov	r3, r0
    1466:	9004      	str	r0, [sp, #16]
    1468:	9103      	str	r1, [sp, #12]
    gs_jvm = vm;
    146a:	9804      	ldr	r0, [sp, #16]
    146c:	4906      	ldr	r1, [pc, #24]	; (1488 <JNI_OnLoad+0x28>)
    146e:	4479      	add	r1, pc
    1470:	6809      	ldr	r1, [r1, #0]
    1472:	6008      	str	r0, [r1, #0]

    jint result = JNI_VERSION_1_4;
    1474:	2004      	movs	r0, #4
    1476:	f2c0 0001 	movt	r0, #1
    147a:	9002      	str	r0, [sp, #8]
    return  result;
    147c:	9802      	ldr	r0, [sp, #8]
    147e:	9201      	str	r2, [sp, #4]
    1480:	9300      	str	r3, [sp, #0]
    1482:	b005      	add	sp, #20
    1484:	4770      	bx	lr
    1486:	bf00      	nop
    1488:	00002b06 	andeq	r2, r0, r6, lsl #22

0000148c <selfrel_offset31>:
    148c:	6803      	ldr	r3, [r0, #0]
    148e:	005a      	lsls	r2, r3, #1
    1490:	bf4c      	ite	mi
    1492:	f043 4300 	orrmi.w	r3, r3, #2147483648	; 0x80000000
    1496:	f023 4300 	bicpl.w	r3, r3, #2147483648	; 0x80000000
    149a:	4418      	add	r0, r3
    149c:	4770      	bx	lr

0000149e <search_EIT_table>:
    149e:	e92d 4ff7 	stmdb	sp!, {r0, r1, r2, r4, r5, r6, r7, r8, r9, sl, fp, lr}
    14a2:	4680      	mov	r8, r0
    14a4:	4692      	mov	sl, r2
    14a6:	b321      	cbz	r1, 14f2 <search_EIT_table+0x54>
    14a8:	1e4f      	subs	r7, r1, #1
    14aa:	f04f 0b00 	mov.w	fp, #0
    14ae:	46b9      	mov	r9, r7
    14b0:	eb0b 0409 	add.w	r4, fp, r9
    14b4:	eb04 74d4 	add.w	r4, r4, r4, lsr #31
    14b8:	1064      	asrs	r4, r4, #1
    14ba:	00e6      	lsls	r6, r4, #3
    14bc:	eb08 0506 	add.w	r5, r8, r6
    14c0:	4628      	mov	r0, r5
    14c2:	f7ff ffe3 	bl	148c <selfrel_offset31>
    14c6:	42bc      	cmp	r4, r7
    14c8:	d017      	beq.n	14fa <search_EIT_table+0x5c>
    14ca:	9001      	str	r0, [sp, #4]
    14cc:	f106 0008 	add.w	r0, r6, #8
    14d0:	4440      	add	r0, r8
    14d2:	f7ff ffdb 	bl	148c <selfrel_offset31>
    14d6:	9b01      	ldr	r3, [sp, #4]
    14d8:	459a      	cmp	sl, r3
    14da:	d204      	bcs.n	14e6 <search_EIT_table+0x48>
    14dc:	455c      	cmp	r4, fp
    14de:	d00a      	beq.n	14f6 <search_EIT_table+0x58>
    14e0:	f104 39ff 	add.w	r9, r4, #4294967295	; 0xffffffff
    14e4:	e7e4      	b.n	14b0 <search_EIT_table+0x12>
    14e6:	3801      	subs	r0, #1
    14e8:	4582      	cmp	sl, r0
    14ea:	d908      	bls.n	14fe <search_EIT_table+0x60>
    14ec:	f104 0b01 	add.w	fp, r4, #1
    14f0:	e7de      	b.n	14b0 <search_EIT_table+0x12>
    14f2:	460d      	mov	r5, r1
    14f4:	e003      	b.n	14fe <search_EIT_table+0x60>
    14f6:	2500      	movs	r5, #0
    14f8:	e001      	b.n	14fe <search_EIT_table+0x60>
    14fa:	4582      	cmp	sl, r0
    14fc:	d3ee      	bcc.n	14dc <search_EIT_table+0x3e>
    14fe:	4628      	mov	r0, r5
    1500:	b003      	add	sp, #12
    1502:	e8bd 8ff0 	ldmia.w	sp!, {r4, r5, r6, r7, r8, r9, sl, fp, pc}

00001506 <__gnu_unwind_get_pr_addr>:
    1506:	2801      	cmp	r0, #1
    1508:	d006      	beq.n	1518 <__gnu_unwind_get_pr_addr+0x12>
    150a:	2802      	cmp	r0, #2
    150c:	d008      	beq.n	1520 <__gnu_unwind_get_pr_addr+0x1a>
    150e:	b958      	cbnz	r0, 1528 <__gnu_unwind_get_pr_addr+0x22>
    1510:	4806      	ldr	r0, [pc, #24]	; (152c <__gnu_unwind_get_pr_addr+0x26>)
    1512:	4478      	add	r0, pc
    1514:	6800      	ldr	r0, [r0, #0]
    1516:	4770      	bx	lr
    1518:	4805      	ldr	r0, [pc, #20]	; (1530 <__gnu_unwind_get_pr_addr+0x2a>)
    151a:	4478      	add	r0, pc
    151c:	6800      	ldr	r0, [r0, #0]
    151e:	4770      	bx	lr
    1520:	4804      	ldr	r0, [pc, #16]	; (1534 <__gnu_unwind_get_pr_addr+0x2e>)
    1522:	4478      	add	r0, pc
    1524:	6800      	ldr	r0, [r0, #0]
    1526:	4770      	bx	lr
    1528:	2000      	movs	r0, #0
    152a:	4770      	bx	lr
    152c:	00002a66 	andeq	r2, r0, r6, ror #20
    1530:	00002a62 	andeq	r2, r0, r2, ror #20
    1534:	00002a5e 	andeq	r2, r0, lr, asr sl

00001538 <get_eit_entry>:
    1538:	4b24      	ldr	r3, [pc, #144]	; (15cc <get_eit_entry+0x94>)
    153a:	b537      	push	{r0, r1, r2, r4, r5, lr}
    153c:	447b      	add	r3, pc
    153e:	681b      	ldr	r3, [r3, #0]
    1540:	4604      	mov	r4, r0
    1542:	1e8d      	subs	r5, r1, #2
    1544:	b143      	cbz	r3, 1558 <get_eit_entry+0x20>
    1546:	4628      	mov	r0, r5
    1548:	a901      	add	r1, sp, #4
    154a:	f7ff ea4c 	blx	9e4 <__gnu_Unwind_Find_exidx@plt>
    154e:	b960      	cbnz	r0, 156a <get_eit_entry+0x32>
    1550:	2300      	movs	r3, #0
    1552:	2009      	movs	r0, #9
    1554:	6123      	str	r3, [r4, #16]
    1556:	e037      	b.n	15c8 <get_eit_entry+0x90>
    1558:	4b1d      	ldr	r3, [pc, #116]	; (15d0 <get_eit_entry+0x98>)
    155a:	481e      	ldr	r0, [pc, #120]	; (15d4 <get_eit_entry+0x9c>)
    155c:	447b      	add	r3, pc
    155e:	681b      	ldr	r3, [r3, #0]
    1560:	4478      	add	r0, pc
    1562:	6800      	ldr	r0, [r0, #0]
    1564:	1a1b      	subs	r3, r3, r0
    1566:	10db      	asrs	r3, r3, #3
    1568:	9301      	str	r3, [sp, #4]
    156a:	462a      	mov	r2, r5
    156c:	9901      	ldr	r1, [sp, #4]
    156e:	f7ff ff96 	bl	149e <search_EIT_table>
    1572:	4605      	mov	r5, r0
    1574:	2800      	cmp	r0, #0
    1576:	d0eb      	beq.n	1550 <get_eit_entry+0x18>
    1578:	f7ff ff88 	bl	148c <selfrel_offset31>
    157c:	686b      	ldr	r3, [r5, #4]
    157e:	2b01      	cmp	r3, #1
    1580:	64a0      	str	r0, [r4, #72]	; 0x48
    1582:	d103      	bne.n	158c <get_eit_entry+0x54>
    1584:	2300      	movs	r3, #0
    1586:	2005      	movs	r0, #5
    1588:	6123      	str	r3, [r4, #16]
    158a:	e01d      	b.n	15c8 <get_eit_entry+0x90>
    158c:	2b00      	cmp	r3, #0
    158e:	f105 0004 	add.w	r0, r5, #4
    1592:	da02      	bge.n	159a <get_eit_entry+0x62>
    1594:	64e0      	str	r0, [r4, #76]	; 0x4c
    1596:	2301      	movs	r3, #1
    1598:	e003      	b.n	15a2 <get_eit_entry+0x6a>
    159a:	f7ff ff77 	bl	148c <selfrel_offset31>
    159e:	2300      	movs	r3, #0
    15a0:	64e0      	str	r0, [r4, #76]	; 0x4c
    15a2:	6ce0      	ldr	r0, [r4, #76]	; 0x4c
    15a4:	6523      	str	r3, [r4, #80]	; 0x50
    15a6:	6803      	ldr	r3, [r0, #0]
    15a8:	2b00      	cmp	r3, #0
    15aa:	da09      	bge.n	15c0 <get_eit_entry+0x88>
    15ac:	f3c3 6003 	ubfx	r0, r3, #24, #4
    15b0:	f7ff ffa9 	bl	1506 <__gnu_unwind_get_pr_addr>
    15b4:	2800      	cmp	r0, #0
    15b6:	6120      	str	r0, [r4, #16]
    15b8:	bf0c      	ite	eq
    15ba:	2009      	moveq	r0, #9
    15bc:	2000      	movne	r0, #0
    15be:	e003      	b.n	15c8 <get_eit_entry+0x90>
    15c0:	f7ff ff64 	bl	148c <selfrel_offset31>
    15c4:	6120      	str	r0, [r4, #16]
    15c6:	2000      	movs	r0, #0
    15c8:	b003      	add	sp, #12
    15ca:	bd30      	pop	{r4, r5, pc}
    15cc:	00002a48 	andeq	r2, r0, r8, asr #20
    15d0:	00002a2c 	andeq	r2, r0, ip, lsr #20
    15d4:	00002a2c 	andeq	r2, r0, ip, lsr #20

000015d8 <restore_non_core_regs>:
    15d8:	6803      	ldr	r3, [r0, #0]
    15da:	b510      	push	{r4, lr}
    15dc:	4604      	mov	r4, r0
    15de:	07d8      	lsls	r0, r3, #31
    15e0:	d409      	bmi.n	15f6 <restore_non_core_regs+0x1e>
    15e2:	f013 0f02 	tst.w	r3, #2
    15e6:	f104 0048 	add.w	r0, r4, #72	; 0x48
    15ea:	d002      	beq.n	15f2 <restore_non_core_regs+0x1a>
    15ec:	f000 fbf8 	bl	1de0 <__gnu_Unwind_Restore_VFP_D>
    15f0:	e001      	b.n	15f6 <restore_non_core_regs+0x1e>
    15f2:	f000 fbed 	bl	1dd0 <__gnu_Unwind_Restore_VFP>
    15f6:	6823      	ldr	r3, [r4, #0]
    15f8:	0759      	lsls	r1, r3, #29
    15fa:	d403      	bmi.n	1604 <restore_non_core_regs+0x2c>
    15fc:	f104 00d0 	add.w	r0, r4, #208	; 0xd0
    1600:	f000 fbf6 	bl	1df0 <__gnu_Unwind_Restore_VFP_D_16_to_31>
    1604:	6823      	ldr	r3, [r4, #0]
    1606:	071a      	lsls	r2, r3, #28
    1608:	d403      	bmi.n	1612 <restore_non_core_regs+0x3a>
    160a:	f504 70a8 	add.w	r0, r4, #336	; 0x150
    160e:	f000 fbf7 	bl	1e00 <__gnu_Unwind_Restore_WMMXD>
    1612:	6823      	ldr	r3, [r4, #0]
    1614:	06db      	lsls	r3, r3, #27
    1616:	d405      	bmi.n	1624 <restore_non_core_regs+0x4c>
    1618:	f504 70e8 	add.w	r0, r4, #464	; 0x1d0
    161c:	e8bd 4010 	ldmia.w	sp!, {r4, lr}
    1620:	f000 bc32 	b.w	1e88 <__gnu_Unwind_Restore_WMMXC>
    1624:	bd10      	pop	{r4, pc}

00001626 <_Unwind_decode_typeinfo_ptr.isra.0>:
    1626:	6803      	ldr	r3, [r0, #0]
    1628:	b10b      	cbz	r3, 162e <_Unwind_decode_typeinfo_ptr.isra.0+0x8>
    162a:	5818      	ldr	r0, [r3, r0]
    162c:	4770      	bx	lr
    162e:	4618      	mov	r0, r3
    1630:	4770      	bx	lr

00001632 <__gnu_unwind_24bit.isra.1>:
    1632:	2009      	movs	r0, #9
    1634:	4770      	bx	lr

00001636 <_Unwind_DebugHook>:
    1636:	4770      	bx	lr

00001638 <unwind_phase2>:
    1638:	b570      	push	{r4, r5, r6, lr}
    163a:	4605      	mov	r5, r0
    163c:	460c      	mov	r4, r1
    163e:	4628      	mov	r0, r5
    1640:	6c21      	ldr	r1, [r4, #64]	; 0x40
    1642:	f7ff ff79 	bl	1538 <get_eit_entry>
    1646:	4606      	mov	r6, r0
    1648:	b108      	cbz	r0, 164e <unwind_phase2+0x16>
    164a:	f7ff e9d2 	blx	9f0 <abort@plt>
    164e:	6c23      	ldr	r3, [r4, #64]	; 0x40
    1650:	2001      	movs	r0, #1
    1652:	4629      	mov	r1, r5
    1654:	4622      	mov	r2, r4
    1656:	616b      	str	r3, [r5, #20]
    1658:	692b      	ldr	r3, [r5, #16]
    165a:	4798      	blx	r3
    165c:	2808      	cmp	r0, #8
    165e:	d0ee      	beq.n	163e <unwind_phase2+0x6>
    1660:	2807      	cmp	r0, #7
    1662:	d1f2      	bne.n	164a <unwind_phase2+0x12>
    1664:	4630      	mov	r0, r6
    1666:	6c21      	ldr	r1, [r4, #64]	; 0x40
    1668:	f7ff ffe5 	bl	1636 <_Unwind_DebugHook>
    166c:	1d20      	adds	r0, r4, #4
    166e:	f000 fba3 	bl	1db8 <__restore_core_regs>

00001672 <unwind_phase2_forced>:
    1672:	e92d 4ff0 	stmdb	sp!, {r4, r5, r6, r7, r8, r9, sl, fp, lr}
    1676:	1d0d      	adds	r5, r1, #4
    1678:	f8d0 800c 	ldr.w	r8, [r0, #12]
    167c:	4607      	mov	r7, r0
    167e:	f8d0 9018 	ldr.w	r9, [r0, #24]
    1682:	4692      	mov	sl, r2
    1684:	cd0f      	ldmia	r5!, {r0, r1, r2, r3}
    1686:	f5ad 7d73 	sub.w	sp, sp, #972	; 0x3cc
    168a:	ac03      	add	r4, sp, #12
    168c:	ae02      	add	r6, sp, #8
    168e:	f50d 7bf4 	add.w	fp, sp, #488	; 0x1e8
    1692:	c40f      	stmia	r4!, {r0, r1, r2, r3}
    1694:	cd0f      	ldmia	r5!, {r0, r1, r2, r3}
    1696:	c40f      	stmia	r4!, {r0, r1, r2, r3}
    1698:	cd0f      	ldmia	r5!, {r0, r1, r2, r3}
    169a:	c40f      	stmia	r4!, {r0, r1, r2, r3}
    169c:	e895 000f 	ldmia.w	r5, {r0, r1, r2, r3}
    16a0:	2500      	movs	r5, #0
    16a2:	e884 000f 	stmia.w	r4, {r0, r1, r2, r3}
    16a6:	6035      	str	r5, [r6, #0]
    16a8:	4638      	mov	r0, r7
    16aa:	6c31      	ldr	r1, [r6, #64]	; 0x40
    16ac:	f7ff ff44 	bl	1538 <get_eit_entry>
    16b0:	f1ba 0f00 	cmp.w	sl, #0
    16b4:	bf0c      	ite	eq
    16b6:	f04f 0a09 	moveq.w	sl, #9
    16ba:	f04f 0a0a 	movne.w	sl, #10
    16be:	4604      	mov	r4, r0
    16c0:	b980      	cbnz	r0, 16e4 <unwind_phase2_forced+0x72>
    16c2:	6c33      	ldr	r3, [r6, #64]	; 0x40
    16c4:	4631      	mov	r1, r6
    16c6:	f44f 72f0 	mov.w	r2, #480	; 0x1e0
    16ca:	4658      	mov	r0, fp
    16cc:	617b      	str	r3, [r7, #20]
    16ce:	f7ff e996 	blx	9fc <memcpy@plt>
    16d2:	693b      	ldr	r3, [r7, #16]
    16d4:	4650      	mov	r0, sl
    16d6:	4639      	mov	r1, r7
    16d8:	465a      	mov	r2, fp
    16da:	4798      	blx	r3
    16dc:	f8db 3038 	ldr.w	r3, [fp, #56]	; 0x38
    16e0:	4605      	mov	r5, r0
    16e2:	e002      	b.n	16ea <unwind_phase2_forced+0x78>
    16e4:	6bb3      	ldr	r3, [r6, #56]	; 0x38
    16e6:	f04a 0a10 	orr.w	sl, sl, #16
    16ea:	6473      	str	r3, [r6, #68]	; 0x44
    16ec:	2001      	movs	r0, #1
    16ee:	e88d 0240 	stmia.w	sp, {r6, r9}
    16f2:	4651      	mov	r1, sl
    16f4:	463a      	mov	r2, r7
    16f6:	463b      	mov	r3, r7
    16f8:	47c0      	blx	r8
    16fa:	b990      	cbnz	r0, 1722 <unwind_phase2_forced+0xb0>
    16fc:	b99c      	cbnz	r4, 1726 <unwind_phase2_forced+0xb4>
    16fe:	4630      	mov	r0, r6
    1700:	4659      	mov	r1, fp
    1702:	f44f 72f0 	mov.w	r2, #480	; 0x1e0
    1706:	46a2      	mov	sl, r4
    1708:	f7ff e978 	blx	9fc <memcpy@plt>
    170c:	2d08      	cmp	r5, #8
    170e:	d0cb      	beq.n	16a8 <unwind_phase2_forced+0x36>
    1710:	2d07      	cmp	r5, #7
    1712:	d106      	bne.n	1722 <unwind_phase2_forced+0xb0>
    1714:	4620      	mov	r0, r4
    1716:	6c31      	ldr	r1, [r6, #64]	; 0x40
    1718:	f7ff ff8d 	bl	1636 <_Unwind_DebugHook>
    171c:	a803      	add	r0, sp, #12
    171e:	f000 fb4b 	bl	1db8 <__restore_core_regs>
    1722:	2009      	movs	r0, #9
    1724:	e000      	b.n	1728 <unwind_phase2_forced+0xb6>
    1726:	4620      	mov	r0, r4
    1728:	f50d 7d73 	add.w	sp, sp, #972	; 0x3cc
    172c:	e8bd 8ff0 	ldmia.w	sp!, {r4, r5, r6, r7, r8, r9, sl, fp, pc}

00001730 <_Unwind_GetCFA>:
    1730:	6c40      	ldr	r0, [r0, #68]	; 0x44
    1732:	4770      	bx	lr

00001734 <__gnu_Unwind_RaiseException>:
    1734:	6bcb      	ldr	r3, [r1, #60]	; 0x3c
    1736:	e92d 41f0 	stmdb	sp!, {r4, r5, r6, r7, r8, lr}
    173a:	1d0d      	adds	r5, r1, #4
    173c:	640b      	str	r3, [r1, #64]	; 0x40
    173e:	4607      	mov	r7, r0
    1740:	460e      	mov	r6, r1
    1742:	b0f8      	sub	sp, #480	; 0x1e0
    1744:	cd0f      	ldmia	r5!, {r0, r1, r2, r3}
    1746:	ac01      	add	r4, sp, #4
    1748:	46e8      	mov	r8, sp
    174a:	c40f      	stmia	r4!, {r0, r1, r2, r3}
    174c:	cd0f      	ldmia	r5!, {r0, r1, r2, r3}
    174e:	c40f      	stmia	r4!, {r0, r1, r2, r3}
    1750:	cd0f      	ldmia	r5!, {r0, r1, r2, r3}
    1752:	c40f      	stmia	r4!, {r0, r1, r2, r3}
    1754:	e895 000f 	ldmia.w	r5, {r0, r1, r2, r3}
    1758:	e884 000f 	stmia.w	r4, {r0, r1, r2, r3}
    175c:	f04f 33ff 	mov.w	r3, #4294967295	; 0xffffffff
    1760:	9300      	str	r3, [sp, #0]
    1762:	4638      	mov	r0, r7
    1764:	f8d8 1040 	ldr.w	r1, [r8, #64]	; 0x40
    1768:	f7ff fee6 	bl	1538 <get_eit_entry>
    176c:	b978      	cbnz	r0, 178e <__gnu_Unwind_RaiseException+0x5a>
    176e:	693b      	ldr	r3, [r7, #16]
    1770:	4639      	mov	r1, r7
    1772:	4642      	mov	r2, r8
    1774:	4798      	blx	r3
    1776:	2808      	cmp	r0, #8
    1778:	4604      	mov	r4, r0
    177a:	d0f2      	beq.n	1762 <__gnu_Unwind_RaiseException+0x2e>
    177c:	4640      	mov	r0, r8
    177e:	f7ff ff2b 	bl	15d8 <restore_non_core_regs>
    1782:	2c06      	cmp	r4, #6
    1784:	d103      	bne.n	178e <__gnu_Unwind_RaiseException+0x5a>
    1786:	4638      	mov	r0, r7
    1788:	4631      	mov	r1, r6
    178a:	f7ff ff55 	bl	1638 <unwind_phase2>
    178e:	2009      	movs	r0, #9
    1790:	b078      	add	sp, #480	; 0x1e0
    1792:	e8bd 81f0 	ldmia.w	sp!, {r4, r5, r6, r7, r8, pc}

00001796 <__gnu_Unwind_ForcedUnwind>:
    1796:	b510      	push	{r4, lr}
    1798:	6182      	str	r2, [r0, #24]
    179a:	6bda      	ldr	r2, [r3, #60]	; 0x3c
    179c:	60c1      	str	r1, [r0, #12]
    179e:	4619      	mov	r1, r3
    17a0:	e8bd 4010 	ldmia.w	sp!, {r4, lr}
    17a4:	641a      	str	r2, [r3, #64]	; 0x40
    17a6:	2200      	movs	r2, #0
    17a8:	e763      	b.n	1672 <unwind_phase2_forced>

000017aa <__gnu_Unwind_Resume>:
    17aa:	b570      	push	{r4, r5, r6, lr}
    17ac:	4605      	mov	r5, r0
    17ae:	6943      	ldr	r3, [r0, #20]
    17b0:	460c      	mov	r4, r1
    17b2:	68c6      	ldr	r6, [r0, #12]
    17b4:	640b      	str	r3, [r1, #64]	; 0x40
    17b6:	b11e      	cbz	r6, 17c0 <__gnu_Unwind_Resume+0x16>
    17b8:	2201      	movs	r2, #1
    17ba:	f7ff ff5a 	bl	1672 <unwind_phase2_forced>
    17be:	e013      	b.n	17e8 <__gnu_Unwind_Resume+0x3e>
    17c0:	6903      	ldr	r3, [r0, #16]
    17c2:	4629      	mov	r1, r5
    17c4:	2002      	movs	r0, #2
    17c6:	4622      	mov	r2, r4
    17c8:	4798      	blx	r3
    17ca:	2807      	cmp	r0, #7
    17cc:	d005      	beq.n	17da <__gnu_Unwind_Resume+0x30>
    17ce:	2808      	cmp	r0, #8
    17d0:	d10a      	bne.n	17e8 <__gnu_Unwind_Resume+0x3e>
    17d2:	4628      	mov	r0, r5
    17d4:	4621      	mov	r1, r4
    17d6:	f7ff ff2f 	bl	1638 <unwind_phase2>
    17da:	4630      	mov	r0, r6
    17dc:	6c21      	ldr	r1, [r4, #64]	; 0x40
    17de:	f7ff ff2a 	bl	1636 <_Unwind_DebugHook>
    17e2:	1d20      	adds	r0, r4, #4
    17e4:	f000 fae8 	bl	1db8 <__restore_core_regs>
    17e8:	f7ff e902 	blx	9f0 <abort@plt>

000017ec <__gnu_Unwind_Resume_or_Rethrow>:
    17ec:	68c2      	ldr	r2, [r0, #12]
    17ee:	b90a      	cbnz	r2, 17f4 <__gnu_Unwind_Resume_or_Rethrow+0x8>
    17f0:	f7ff bfa0 	b.w	1734 <__gnu_Unwind_RaiseException>
    17f4:	6bca      	ldr	r2, [r1, #60]	; 0x3c
    17f6:	640a      	str	r2, [r1, #64]	; 0x40
    17f8:	2200      	movs	r2, #0
    17fa:	e73a      	b.n	1672 <unwind_phase2_forced>

000017fc <_Unwind_Complete>:
    17fc:	4770      	bx	lr

000017fe <_Unwind_DeleteException>:
    17fe:	6883      	ldr	r3, [r0, #8]
    1800:	4601      	mov	r1, r0
    1802:	b10b      	cbz	r3, 1808 <_Unwind_DeleteException+0xa>
    1804:	2001      	movs	r0, #1
    1806:	4718      	bx	r3
    1808:	4770      	bx	lr

0000180a <_Unwind_VRS_Get>:
    180a:	b500      	push	{lr}
    180c:	2904      	cmp	r1, #4
    180e:	d810      	bhi.n	1832 <_Unwind_VRS_Get+0x28>
    1810:	e8df f001 	tbb	[pc, r1]
    1814:	0d0f0d03 	stceq	13, cr0, [pc, #-12]	; 1810 <_Unwind_VRS_Get+0x6>
    1818:	b953000d 	ldmdblt	r3, {r0, r2, r3}^
    181c:	2a0f      	cmp	r2, #15
    181e:	d808      	bhi.n	1832 <_Unwind_VRS_Get+0x28>
    1820:	eb00 0082 	add.w	r0, r0, r2, lsl #2
    1824:	9a01      	ldr	r2, [sp, #4]
    1826:	6841      	ldr	r1, [r0, #4]
    1828:	4618      	mov	r0, r3
    182a:	6011      	str	r1, [r2, #0]
    182c:	e002      	b.n	1834 <_Unwind_VRS_Get+0x2a>
    182e:	2001      	movs	r0, #1
    1830:	e000      	b.n	1834 <_Unwind_VRS_Get+0x2a>
    1832:	2002      	movs	r0, #2
    1834:	f85d fb04 	ldr.w	pc, [sp], #4

00001838 <_Unwind_GetGR>:
    1838:	b51f      	push	{r0, r1, r2, r3, r4, lr}
    183a:	460a      	mov	r2, r1
    183c:	2100      	movs	r1, #0
    183e:	ab03      	add	r3, sp, #12
    1840:	9300      	str	r3, [sp, #0]
    1842:	460b      	mov	r3, r1
    1844:	f7ff ffe1 	bl	180a <_Unwind_VRS_Get>
    1848:	9803      	ldr	r0, [sp, #12]
    184a:	b005      	add	sp, #20
    184c:	f85d fb04 	ldr.w	pc, [sp], #4

00001850 <_Unwind_VRS_Set>:
    1850:	b500      	push	{lr}
    1852:	2904      	cmp	r1, #4
    1854:	d810      	bhi.n	1878 <_Unwind_VRS_Set+0x28>
    1856:	e8df f001 	tbb	[pc, r1]
    185a:	0d0f0d03 	stceq	13, cr0, [pc, #-12]	; 1854 <_Unwind_VRS_Set+0x4>
    185e:	b953000d 	ldmdblt	r3, {r0, r2, r3}^
    1862:	2a0f      	cmp	r2, #15
    1864:	d808      	bhi.n	1878 <_Unwind_VRS_Set+0x28>
    1866:	9901      	ldr	r1, [sp, #4]
    1868:	eb00 0082 	add.w	r0, r0, r2, lsl #2
    186c:	6809      	ldr	r1, [r1, #0]
    186e:	6041      	str	r1, [r0, #4]
    1870:	4618      	mov	r0, r3
    1872:	e002      	b.n	187a <_Unwind_VRS_Set+0x2a>
    1874:	2001      	movs	r0, #1
    1876:	e000      	b.n	187a <_Unwind_VRS_Set+0x2a>
    1878:	2002      	movs	r0, #2
    187a:	f85d fb04 	ldr.w	pc, [sp], #4

0000187e <_Unwind_SetGR>:
    187e:	b51f      	push	{r0, r1, r2, r3, r4, lr}
    1880:	460c      	mov	r4, r1
    1882:	ab04      	add	r3, sp, #16
    1884:	2100      	movs	r1, #0
    1886:	f843 2d04 	str.w	r2, [r3, #-4]!
    188a:	4622      	mov	r2, r4
    188c:	9300      	str	r3, [sp, #0]
    188e:	460b      	mov	r3, r1
    1890:	f7ff ffde 	bl	1850 <_Unwind_VRS_Set>
    1894:	b004      	add	sp, #16
    1896:	bd10      	pop	{r4, pc}

00001898 <__gnu_Unwind_Backtrace>:
    1898:	6bd3      	ldr	r3, [r2, #60]	; 0x3c
    189a:	e92d 41f0 	stmdb	sp!, {r4, r5, r6, r7, r8, lr}
    189e:	1d14      	adds	r4, r2, #4
    18a0:	6413      	str	r3, [r2, #64]	; 0x40
    18a2:	4607      	mov	r7, r0
    18a4:	4688      	mov	r8, r1
    18a6:	f5ad 7d0e 	sub.w	sp, sp, #568	; 0x238
    18aa:	cc0f      	ldmia	r4!, {r0, r1, r2, r3}
    18ac:	ad17      	add	r5, sp, #92	; 0x5c
    18ae:	ae16      	add	r6, sp, #88	; 0x58
    18b0:	c50f      	stmia	r5!, {r0, r1, r2, r3}
    18b2:	cc0f      	ldmia	r4!, {r0, r1, r2, r3}
    18b4:	c50f      	stmia	r5!, {r0, r1, r2, r3}
    18b6:	cc0f      	ldmia	r4!, {r0, r1, r2, r3}
    18b8:	c50f      	stmia	r5!, {r0, r1, r2, r3}
    18ba:	e894 000f 	ldmia.w	r4, {r0, r1, r2, r3}
    18be:	e885 000f 	stmia.w	r5, {r0, r1, r2, r3}
    18c2:	466d      	mov	r5, sp
    18c4:	f04f 33ff 	mov.w	r3, #4294967295	; 0xffffffff
    18c8:	6033      	str	r3, [r6, #0]
    18ca:	4628      	mov	r0, r5
    18cc:	6c31      	ldr	r1, [r6, #64]	; 0x40
    18ce:	f7ff fe33 	bl	1538 <get_eit_entry>
    18d2:	b108      	cbz	r0, 18d8 <__gnu_Unwind_Backtrace+0x40>
    18d4:	2409      	movs	r4, #9
    18d6:	e014      	b.n	1902 <__gnu_Unwind_Backtrace+0x6a>
    18d8:	4630      	mov	r0, r6
    18da:	210c      	movs	r1, #12
    18dc:	462a      	mov	r2, r5
    18de:	f7ff ffce 	bl	187e <_Unwind_SetGR>
    18e2:	4630      	mov	r0, r6
    18e4:	4641      	mov	r1, r8
    18e6:	47b8      	blx	r7
    18e8:	2800      	cmp	r0, #0
    18ea:	d1f3      	bne.n	18d4 <__gnu_Unwind_Backtrace+0x3c>
    18ec:	692b      	ldr	r3, [r5, #16]
    18ee:	2008      	movs	r0, #8
    18f0:	4629      	mov	r1, r5
    18f2:	4632      	mov	r2, r6
    18f4:	4798      	blx	r3
    18f6:	2805      	cmp	r0, #5
    18f8:	4604      	mov	r4, r0
    18fa:	d002      	beq.n	1902 <__gnu_Unwind_Backtrace+0x6a>
    18fc:	2809      	cmp	r0, #9
    18fe:	d1e4      	bne.n	18ca <__gnu_Unwind_Backtrace+0x32>
    1900:	e7e8      	b.n	18d4 <__gnu_Unwind_Backtrace+0x3c>
    1902:	4630      	mov	r0, r6
    1904:	f7ff fe68 	bl	15d8 <restore_non_core_regs>
    1908:	4620      	mov	r0, r4
    190a:	f50d 7d0e 	add.w	sp, sp, #568	; 0x238
    190e:	e8bd 81f0 	ldmia.w	sp!, {r4, r5, r6, r7, r8, pc}

00001912 <__gnu_unwind_pr_common>:
    1912:	e92d 4ff0 	stmdb	sp!, {r4, r5, r6, r7, r8, r9, sl, fp, lr}
    1916:	4617      	mov	r7, r2
    1918:	6cca      	ldr	r2, [r1, #76]	; 0x4c
    191a:	b089      	sub	sp, #36	; 0x24
    191c:	460d      	mov	r5, r1
    191e:	f000 0803 	and.w	r8, r0, #3
    1922:	1d14      	adds	r4, r2, #4
    1924:	9002      	str	r0, [sp, #8]
    1926:	6812      	ldr	r2, [r2, #0]
    1928:	4699      	mov	r9, r3
    192a:	9406      	str	r4, [sp, #24]
    192c:	9205      	str	r2, [sp, #20]
    192e:	b93b      	cbnz	r3, 1940 <__gnu_unwind_pr_common+0x2e>
    1930:	0212      	lsls	r2, r2, #8
    1932:	f88d 301d 	strb.w	r3, [sp, #29]
    1936:	9205      	str	r2, [sp, #20]
    1938:	2303      	movs	r3, #3
    193a:	f88d 301c 	strb.w	r3, [sp, #28]
    193e:	e00c      	b.n	195a <__gnu_unwind_pr_common+0x48>
    1940:	2b02      	cmp	r3, #2
    1942:	dc0a      	bgt.n	195a <__gnu_unwind_pr_common+0x48>
    1944:	0c13      	lsrs	r3, r2, #16
    1946:	f88d 301d 	strb.w	r3, [sp, #29]
    194a:	0412      	lsls	r2, r2, #16
    194c:	9205      	str	r2, [sp, #20]
    194e:	b2db      	uxtb	r3, r3
    1950:	2202      	movs	r2, #2
    1952:	f88d 201c 	strb.w	r2, [sp, #28]
    1956:	eb04 0483 	add.w	r4, r4, r3, lsl #2
    195a:	f1b8 0f02 	cmp.w	r8, #2
    195e:	6d2b      	ldr	r3, [r5, #80]	; 0x50
    1960:	bf08      	it	eq
    1962:	6bac      	ldreq	r4, [r5, #56]	; 0x38
    1964:	f013 0301 	ands.w	r3, r3, #1
    1968:	f040 80d4 	bne.w	1b14 <__gnu_unwind_pr_common+0x202>
    196c:	9301      	str	r3, [sp, #4]
    196e:	f8d4 a000 	ldr.w	sl, [r4]
    1972:	f1ba 0f00 	cmp.w	sl, #0
    1976:	f000 80cf 	beq.w	1b18 <__gnu_unwind_pr_common+0x206>
    197a:	f1b9 0f02 	cmp.w	r9, #2
    197e:	6ca8      	ldr	r0, [r5, #72]	; 0x48
    1980:	bf0a      	itet	eq
    1982:	f104 0608 	addeq.w	r6, r4, #8
    1986:	1d26      	addne	r6, r4, #4
    1988:	f8d4 b004 	ldreq.w	fp, [r4, #4]
    198c:	f04f 010f 	mov.w	r1, #15
    1990:	bf1c      	itt	ne
    1992:	f8b4 b002 	ldrhne.w	fp, [r4, #2]
    1996:	f8b4 a000 	ldrhne.w	sl, [r4]
    199a:	f02b 0401 	bic.w	r4, fp, #1
    199e:	4404      	add	r4, r0
    19a0:	4638      	mov	r0, r7
    19a2:	f7ff ff49 	bl	1838 <_Unwind_GetGR>
    19a6:	4284      	cmp	r4, r0
    19a8:	d807      	bhi.n	19ba <__gnu_unwind_pr_common+0xa8>
    19aa:	f02a 0301 	bic.w	r3, sl, #1
    19ae:	4423      	add	r3, r4
    19b0:	4298      	cmp	r0, r3
    19b2:	bf2c      	ite	cs
    19b4:	2000      	movcs	r0, #0
    19b6:	2001      	movcc	r0, #1
    19b8:	e000      	b.n	19bc <__gnu_unwind_pr_common+0xaa>
    19ba:	2000      	movs	r0, #0
    19bc:	f00b 0b01 	and.w	fp, fp, #1
    19c0:	f00a 0401 	and.w	r4, sl, #1
    19c4:	ea44 044b 	orr.w	r4, r4, fp, lsl #1
    19c8:	2c01      	cmp	r4, #1
    19ca:	d018      	beq.n	19fe <__gnu_unwind_pr_common+0xec>
    19cc:	d302      	bcc.n	19d4 <__gnu_unwind_pr_common+0xc2>
    19ce:	2c02      	cmp	r4, #2
    19d0:	d04d      	beq.n	1a6e <__gnu_unwind_pr_common+0x15c>
    19d2:	e0c2      	b.n	1b5a <__gnu_unwind_pr_common+0x248>
    19d4:	1d34      	adds	r4, r6, #4
    19d6:	f1b8 0f00 	cmp.w	r8, #0
    19da:	d0c8      	beq.n	196e <__gnu_unwind_pr_common+0x5c>
    19dc:	2800      	cmp	r0, #0
    19de:	d0c6      	beq.n	196e <__gnu_unwind_pr_common+0x5c>
    19e0:	4630      	mov	r0, r6
    19e2:	f7ff fd53 	bl	148c <selfrel_offset31>
    19e6:	63ac      	str	r4, [r5, #56]	; 0x38
    19e8:	4606      	mov	r6, r0
    19ea:	4628      	mov	r0, r5
    19ec:	f7ff e80c 	blx	a08 <__cxa_begin_cleanup@plt>
    19f0:	2800      	cmp	r0, #0
    19f2:	f000 80b2 	beq.w	1b5a <__gnu_unwind_pr_common+0x248>
    19f6:	4638      	mov	r0, r7
    19f8:	210f      	movs	r1, #15
    19fa:	4632      	mov	r2, r6
    19fc:	e0a9      	b.n	1b52 <__gnu_unwind_pr_common+0x240>
    19fe:	f1b8 0f00 	cmp.w	r8, #0
    1a02:	d125      	bne.n	1a50 <__gnu_unwind_pr_common+0x13e>
    1a04:	b380      	cbz	r0, 1a68 <__gnu_unwind_pr_common+0x156>
    1a06:	6832      	ldr	r2, [r6, #0]
    1a08:	6873      	ldr	r3, [r6, #4]
    1a0a:	ea4f 7ad2 	mov.w	sl, r2, lsr #31
    1a0e:	1c9a      	adds	r2, r3, #2
    1a10:	f000 80a3 	beq.w	1b5a <__gnu_unwind_pr_common+0x248>
    1a14:	3301      	adds	r3, #1
    1a16:	f105 0258 	add.w	r2, r5, #88	; 0x58
    1a1a:	9204      	str	r2, [sp, #16]
    1a1c:	d00a      	beq.n	1a34 <__gnu_unwind_pr_common+0x122>
    1a1e:	1d30      	adds	r0, r6, #4
    1a20:	f7ff fe01 	bl	1626 <_Unwind_decode_typeinfo_ptr.isra.0>
    1a24:	4652      	mov	r2, sl
    1a26:	ab04      	add	r3, sp, #16
    1a28:	4601      	mov	r1, r0
    1a2a:	4628      	mov	r0, r5
    1a2c:	f7fe eff2 	blx	a14 <__cxa_type_match@plt>
    1a30:	4604      	mov	r4, r0
    1a32:	b1c8      	cbz	r0, 1a68 <__gnu_unwind_pr_common+0x156>
    1a34:	4638      	mov	r0, r7
    1a36:	210d      	movs	r1, #13
    1a38:	f7ff fefe 	bl	1838 <_Unwind_GetGR>
    1a3c:	2c02      	cmp	r4, #2
    1a3e:	9a04      	ldr	r2, [sp, #16]
    1a40:	bf0c      	ite	eq
    1a42:	462b      	moveq	r3, r5
    1a44:	4613      	movne	r3, r2
    1a46:	6228      	str	r0, [r5, #32]
    1a48:	bf08      	it	eq
    1a4a:	f843 2f2c 	streq.w	r2, [r3, #44]!
    1a4e:	e08c      	b.n	1b6a <__gnu_unwind_pr_common+0x258>
    1a50:	4638      	mov	r0, r7
    1a52:	210d      	movs	r1, #13
    1a54:	6a2c      	ldr	r4, [r5, #32]
    1a56:	f7ff feef 	bl	1838 <_Unwind_GetGR>
    1a5a:	4284      	cmp	r4, r0
    1a5c:	d104      	bne.n	1a68 <__gnu_unwind_pr_common+0x156>
    1a5e:	6aab      	ldr	r3, [r5, #40]	; 0x28
    1a60:	429e      	cmp	r6, r3
    1a62:	d101      	bne.n	1a68 <__gnu_unwind_pr_common+0x156>
    1a64:	4630      	mov	r0, r6
    1a66:	e040      	b.n	1aea <__gnu_unwind_pr_common+0x1d8>
    1a68:	f106 0408 	add.w	r4, r6, #8
    1a6c:	e77f      	b.n	196e <__gnu_unwind_pr_common+0x5c>
    1a6e:	6834      	ldr	r4, [r6, #0]
    1a70:	f024 4400 	bic.w	r4, r4, #2147483648	; 0x80000000
    1a74:	f1b8 0f00 	cmp.w	r8, #0
    1a78:	d11f      	bne.n	1aba <__gnu_unwind_pr_common+0x1a8>
    1a7a:	2800      	cmp	r0, #0
    1a7c:	d042      	beq.n	1b04 <__gnu_unwind_pr_common+0x1f2>
    1a7e:	9b02      	ldr	r3, [sp, #8]
    1a80:	071b      	lsls	r3, r3, #28
    1a82:	d501      	bpl.n	1a88 <__gnu_unwind_pr_common+0x176>
    1a84:	2c00      	cmp	r4, #0
    1a86:	d13d      	bne.n	1b04 <__gnu_unwind_pr_common+0x1f2>
    1a88:	f10d 0b10 	add.w	fp, sp, #16
    1a8c:	46c2      	mov	sl, r8
    1a8e:	f105 0358 	add.w	r3, r5, #88	; 0x58
    1a92:	9303      	str	r3, [sp, #12]
    1a94:	45a2      	cmp	sl, r4
    1a96:	d062      	beq.n	1b5e <__gnu_unwind_pr_common+0x24c>
    1a98:	9b03      	ldr	r3, [sp, #12]
    1a9a:	f10a 0a01 	add.w	sl, sl, #1
    1a9e:	eb06 008a 	add.w	r0, r6, sl, lsl #2
    1aa2:	9304      	str	r3, [sp, #16]
    1aa4:	f7ff fdbf 	bl	1626 <_Unwind_decode_typeinfo_ptr.isra.0>
    1aa8:	2200      	movs	r2, #0
    1aaa:	465b      	mov	r3, fp
    1aac:	4601      	mov	r1, r0
    1aae:	4628      	mov	r0, r5
    1ab0:	f7fe efb0 	blx	a14 <__cxa_type_match@plt>
    1ab4:	2800      	cmp	r0, #0
    1ab6:	d0ed      	beq.n	1a94 <__gnu_unwind_pr_common+0x182>
    1ab8:	e024      	b.n	1b04 <__gnu_unwind_pr_common+0x1f2>
    1aba:	4638      	mov	r0, r7
    1abc:	210d      	movs	r1, #13
    1abe:	f8d5 a020 	ldr.w	sl, [r5, #32]
    1ac2:	f7ff feb9 	bl	1838 <_Unwind_GetGR>
    1ac6:	4582      	cmp	sl, r0
    1ac8:	d11c      	bne.n	1b04 <__gnu_unwind_pr_common+0x1f2>
    1aca:	6aab      	ldr	r3, [r5, #40]	; 0x28
    1acc:	429e      	cmp	r6, r3
    1ace:	d119      	bne.n	1b04 <__gnu_unwind_pr_common+0x1f2>
    1ad0:	2300      	movs	r3, #0
    1ad2:	62eb      	str	r3, [r5, #44]	; 0x2c
    1ad4:	2304      	movs	r3, #4
    1ad6:	62ac      	str	r4, [r5, #40]	; 0x28
    1ad8:	632b      	str	r3, [r5, #48]	; 0x30
    1ada:	18f3      	adds	r3, r6, r3
    1adc:	636b      	str	r3, [r5, #52]	; 0x34
    1ade:	6833      	ldr	r3, [r6, #0]
    1ae0:	2b00      	cmp	r3, #0
    1ae2:	da0d      	bge.n	1b00 <__gnu_unwind_pr_common+0x1ee>
    1ae4:	1c60      	adds	r0, r4, #1
    1ae6:	eb06 0080 	add.w	r0, r6, r0, lsl #2
    1aea:	f7ff fccf 	bl	148c <selfrel_offset31>
    1aee:	210f      	movs	r1, #15
    1af0:	4602      	mov	r2, r0
    1af2:	4638      	mov	r0, r7
    1af4:	f7ff fec3 	bl	187e <_Unwind_SetGR>
    1af8:	4638      	mov	r0, r7
    1afa:	2100      	movs	r1, #0
    1afc:	462a      	mov	r2, r5
    1afe:	e028      	b.n	1b52 <__gnu_unwind_pr_common+0x240>
    1b00:	2301      	movs	r3, #1
    1b02:	9301      	str	r3, [sp, #4]
    1b04:	6833      	ldr	r3, [r6, #0]
    1b06:	3401      	adds	r4, #1
    1b08:	2b00      	cmp	r3, #0
    1b0a:	bfb8      	it	lt
    1b0c:	3604      	addlt	r6, #4
    1b0e:	eb06 0484 	add.w	r4, r6, r4, lsl #2
    1b12:	e72c      	b.n	196e <__gnu_unwind_pr_common+0x5c>
    1b14:	2300      	movs	r3, #0
    1b16:	9301      	str	r3, [sp, #4]
    1b18:	f1b9 0f02 	cmp.w	r9, #2
    1b1c:	dd02      	ble.n	1b24 <__gnu_unwind_pr_common+0x212>
    1b1e:	f7ff fd88 	bl	1632 <__gnu_unwind_24bit.isra.1>
    1b22:	e003      	b.n	1b2c <__gnu_unwind_pr_common+0x21a>
    1b24:	4638      	mov	r0, r7
    1b26:	a905      	add	r1, sp, #20
    1b28:	f000 fa3f 	bl	1faa <__gnu_unwind_execute>
    1b2c:	b9a8      	cbnz	r0, 1b5a <__gnu_unwind_pr_common+0x248>
    1b2e:	9b01      	ldr	r3, [sp, #4]
    1b30:	b90b      	cbnz	r3, 1b36 <__gnu_unwind_pr_common+0x224>
    1b32:	2008      	movs	r0, #8
    1b34:	e01c      	b.n	1b70 <__gnu_unwind_pr_common+0x25e>
    1b36:	210f      	movs	r1, #15
    1b38:	4638      	mov	r0, r7
    1b3a:	f7ff fe7d 	bl	1838 <_Unwind_GetGR>
    1b3e:	210e      	movs	r1, #14
    1b40:	4602      	mov	r2, r0
    1b42:	4638      	mov	r0, r7
    1b44:	f7ff fe9b 	bl	187e <_Unwind_SetGR>
    1b48:	4a0b      	ldr	r2, [pc, #44]	; (1b78 <__gnu_unwind_pr_common+0x266>)
    1b4a:	210f      	movs	r1, #15
    1b4c:	4638      	mov	r0, r7
    1b4e:	447a      	add	r2, pc
    1b50:	6812      	ldr	r2, [r2, #0]
    1b52:	f7ff fe94 	bl	187e <_Unwind_SetGR>
    1b56:	2007      	movs	r0, #7
    1b58:	e00a      	b.n	1b70 <__gnu_unwind_pr_common+0x25e>
    1b5a:	2009      	movs	r0, #9
    1b5c:	e008      	b.n	1b70 <__gnu_unwind_pr_common+0x25e>
    1b5e:	4638      	mov	r0, r7
    1b60:	210d      	movs	r1, #13
    1b62:	f7ff fe69 	bl	1838 <_Unwind_GetGR>
    1b66:	9b04      	ldr	r3, [sp, #16]
    1b68:	6228      	str	r0, [r5, #32]
    1b6a:	2006      	movs	r0, #6
    1b6c:	626b      	str	r3, [r5, #36]	; 0x24
    1b6e:	62ae      	str	r6, [r5, #40]	; 0x28
    1b70:	b009      	add	sp, #36	; 0x24
    1b72:	e8bd 8ff0 	ldmia.w	sp!, {r4, r5, r6, r7, r8, r9, sl, fp, pc}
    1b76:	bf00      	nop
    1b78:	00002442 	andeq	r2, r0, r2, asr #8

00001b7c <__aeabi_unwind_cpp_pr0>:
    1b7c:	2300      	movs	r3, #0
    1b7e:	e6c8      	b.n	1912 <__gnu_unwind_pr_common>

00001b80 <__aeabi_unwind_cpp_pr1>:
    1b80:	2301      	movs	r3, #1
    1b82:	e6c6      	b.n	1912 <__gnu_unwind_pr_common>

00001b84 <__aeabi_unwind_cpp_pr2>:
    1b84:	2302      	movs	r3, #2
    1b86:	e6c4      	b.n	1912 <__gnu_unwind_pr_common>

00001b88 <_Unwind_VRS_Pop>:
    1b88:	e92d 41f0 	stmdb	sp!, {r4, r5, r6, r7, r8, lr}
    1b8c:	4605      	mov	r5, r0
    1b8e:	b0c2      	sub	sp, #264	; 0x108
    1b90:	4614      	mov	r4, r2
    1b92:	461f      	mov	r7, r3
    1b94:	2904      	cmp	r1, #4
    1b96:	d877      	bhi.n	1c88 <_Unwind_VRS_Pop+0x100>
    1b98:	e8df f001 	tbb	[pc, r1]
    1b9c:	26761a03 	ldrbtcs	r1, [r6], -r3, lsl #20
    1ba0:	2f00004d 	svccs	0x0000004d
    1ba4:	d170      	bne.n	1c88 <_Unwind_VRS_Pop+0x100>
    1ba6:	2301      	movs	r3, #1
    1ba8:	b2a1      	uxth	r1, r4
    1baa:	6b82      	ldr	r2, [r0, #56]	; 0x38
    1bac:	4618      	mov	r0, r3
    1bae:	1e5e      	subs	r6, r3, #1
    1bb0:	fa00 f606 	lsl.w	r6, r0, r6
    1bb4:	420e      	tst	r6, r1
    1bb6:	bf1e      	ittt	ne
    1bb8:	6816      	ldrne	r6, [r2, #0]
    1bba:	3204      	addne	r2, #4
    1bbc:	f845 6023 	strne.w	r6, [r5, r3, lsl #2]
    1bc0:	3301      	adds	r3, #1
    1bc2:	2b11      	cmp	r3, #17
    1bc4:	d1f3      	bne.n	1bae <_Unwind_VRS_Pop+0x26>
    1bc6:	f414 5000 	ands.w	r0, r4, #8192	; 0x2000
    1bca:	d168      	bne.n	1c9e <_Unwind_VRS_Pop+0x116>
    1bcc:	63aa      	str	r2, [r5, #56]	; 0x38
    1bce:	e0ef      	b.n	1db0 <_Unwind_VRS_Pop+0x228>
    1bd0:	f027 0304 	bic.w	r3, r7, #4
    1bd4:	2b01      	cmp	r3, #1
    1bd6:	d157      	bne.n	1c88 <_Unwind_VRS_Pop+0x100>
    1bd8:	2f01      	cmp	r7, #1
    1bda:	ea4f 4814 	mov.w	r8, r4, lsr #16
    1bde:	b2a4      	uxth	r4, r4
    1be0:	eb04 0608 	add.w	r6, r4, r8
    1be4:	d15d      	bne.n	1ca2 <_Unwind_VRS_Pop+0x11a>
    1be6:	e04a      	b.n	1c7e <_Unwind_VRS_Pop+0xf6>
    1be8:	2f03      	cmp	r7, #3
    1bea:	d14d      	bne.n	1c88 <_Unwind_VRS_Pop+0x100>
    1bec:	0c26      	lsrs	r6, r4, #16
    1bee:	b2a4      	uxth	r4, r4
    1bf0:	19a3      	adds	r3, r4, r6
    1bf2:	2b10      	cmp	r3, #16
    1bf4:	d848      	bhi.n	1c88 <_Unwind_VRS_Pop+0x100>
    1bf6:	6803      	ldr	r3, [r0, #0]
    1bf8:	0719      	lsls	r1, r3, #28
    1bfa:	d506      	bpl.n	1c0a <_Unwind_VRS_Pop+0x82>
    1bfc:	f023 0308 	bic.w	r3, r3, #8
    1c00:	6003      	str	r3, [r0, #0]
    1c02:	f500 70a8 	add.w	r0, r0, #336	; 0x150
    1c06:	f000 f91d 	bl	1e44 <__gnu_Unwind_Save_WMMXD>
    1c0a:	af20      	add	r7, sp, #128	; 0x80
    1c0c:	eb07 06c6 	add.w	r6, r7, r6, lsl #3
    1c10:	4638      	mov	r0, r7
    1c12:	3e04      	subs	r6, #4
    1c14:	f000 f916 	bl	1e44 <__gnu_Unwind_Save_WMMXD>
    1c18:	6bab      	ldr	r3, [r5, #56]	; 0x38
    1c1a:	eb03 04c4 	add.w	r4, r3, r4, lsl #3
    1c1e:	42a3      	cmp	r3, r4
    1c20:	d004      	beq.n	1c2c <_Unwind_VRS_Pop+0xa4>
    1c22:	f853 2b04 	ldr.w	r2, [r3], #4
    1c26:	f846 2f04 	str.w	r2, [r6, #4]!
    1c2a:	e7f8      	b.n	1c1e <_Unwind_VRS_Pop+0x96>
    1c2c:	63ab      	str	r3, [r5, #56]	; 0x38
    1c2e:	4638      	mov	r0, r7
    1c30:	f000 f8e6 	bl	1e00 <__gnu_Unwind_Restore_WMMXD>
    1c34:	e033      	b.n	1c9e <_Unwind_VRS_Pop+0x116>
    1c36:	bb3f      	cbnz	r7, 1c88 <_Unwind_VRS_Pop+0x100>
    1c38:	2c10      	cmp	r4, #16
    1c3a:	d825      	bhi.n	1c88 <_Unwind_VRS_Pop+0x100>
    1c3c:	6803      	ldr	r3, [r0, #0]
    1c3e:	06da      	lsls	r2, r3, #27
    1c40:	d506      	bpl.n	1c50 <_Unwind_VRS_Pop+0xc8>
    1c42:	f023 0310 	bic.w	r3, r3, #16
    1c46:	6003      	str	r3, [r0, #0]
    1c48:	f500 70e8 	add.w	r0, r0, #464	; 0x1d0
    1c4c:	f000 f926 	bl	1e9c <__gnu_Unwind_Save_WMMXC>
    1c50:	ae20      	add	r6, sp, #128	; 0x80
    1c52:	4630      	mov	r0, r6
    1c54:	f000 f922 	bl	1e9c <__gnu_Unwind_Save_WMMXC>
    1c58:	6baa      	ldr	r2, [r5, #56]	; 0x38
    1c5a:	2300      	movs	r3, #0
    1c5c:	2101      	movs	r1, #1
    1c5e:	fa01 f003 	lsl.w	r0, r1, r3
    1c62:	4220      	tst	r0, r4
    1c64:	bf1e      	ittt	ne
    1c66:	6810      	ldrne	r0, [r2, #0]
    1c68:	3204      	addne	r2, #4
    1c6a:	f846 0023 	strne.w	r0, [r6, r3, lsl #2]
    1c6e:	3301      	adds	r3, #1
    1c70:	2b04      	cmp	r3, #4
    1c72:	d1f4      	bne.n	1c5e <_Unwind_VRS_Pop+0xd6>
    1c74:	63aa      	str	r2, [r5, #56]	; 0x38
    1c76:	4630      	mov	r0, r6
    1c78:	f000 f906 	bl	1e88 <__gnu_Unwind_Restore_WMMXC>
    1c7c:	e00f      	b.n	1c9e <_Unwind_VRS_Pop+0x116>
    1c7e:	2e10      	cmp	r6, #16
    1c80:	d802      	bhi.n	1c88 <_Unwind_VRS_Pop+0x100>
    1c82:	f1b8 0f0f 	cmp.w	r8, #15
    1c86:	d97e      	bls.n	1d86 <_Unwind_VRS_Pop+0x1fe>
    1c88:	2002      	movs	r0, #2
    1c8a:	e091      	b.n	1db0 <_Unwind_VRS_Pop+0x228>
    1c8c:	2f01      	cmp	r7, #1
    1c8e:	bf08      	it	eq
    1c90:	3304      	addeq	r3, #4
    1c92:	2f01      	cmp	r7, #1
    1c94:	63ab      	str	r3, [r5, #56]	; 0x38
    1c96:	d14f      	bne.n	1d38 <_Unwind_VRS_Pop+0x1b0>
    1c98:	a820      	add	r0, sp, #128	; 0x80
    1c9a:	f000 f899 	bl	1dd0 <__gnu_Unwind_Restore_VFP>
    1c9e:	2000      	movs	r0, #0
    1ca0:	e086      	b.n	1db0 <_Unwind_VRS_Pop+0x228>
    1ca2:	2e20      	cmp	r6, #32
    1ca4:	d8f0      	bhi.n	1c88 <_Unwind_VRS_Pop+0x100>
    1ca6:	f1b8 0f0f 	cmp.w	r8, #15
    1caa:	d902      	bls.n	1cb2 <_Unwind_VRS_Pop+0x12a>
    1cac:	2c00      	cmp	r4, #0
    1cae:	d16c      	bne.n	1d8a <_Unwind_VRS_Pop+0x202>
    1cb0:	e01a      	b.n	1ce8 <_Unwind_VRS_Pop+0x160>
    1cb2:	2e10      	cmp	r6, #16
    1cb4:	d967      	bls.n	1d86 <_Unwind_VRS_Pop+0x1fe>
    1cb6:	2f05      	cmp	r7, #5
    1cb8:	d1e6      	bne.n	1c88 <_Unwind_VRS_Pop+0x100>
    1cba:	3e10      	subs	r6, #16
    1cbc:	682b      	ldr	r3, [r5, #0]
    1cbe:	07da      	lsls	r2, r3, #31
    1cc0:	d54b      	bpl.n	1d5a <_Unwind_VRS_Pop+0x1d2>
    1cc2:	2f05      	cmp	r7, #5
    1cc4:	4628      	mov	r0, r5
    1cc6:	f023 0201 	bic.w	r2, r3, #1
    1cca:	f840 2b48 	str.w	r2, [r0], #72
    1cce:	d13f      	bne.n	1d50 <_Unwind_VRS_Pop+0x1c8>
    1cd0:	f042 0202 	orr.w	r2, r2, #2
    1cd4:	602a      	str	r2, [r5, #0]
    1cd6:	f000 f887 	bl	1de8 <__gnu_Unwind_Save_VFP_D>
    1cda:	2e00      	cmp	r6, #0
    1cdc:	d13e      	bne.n	1d5c <_Unwind_VRS_Pop+0x1d4>
    1cde:	a820      	add	r0, sp, #128	; 0x80
    1ce0:	f000 f882 	bl	1de8 <__gnu_Unwind_Save_VFP_D>
    1ce4:	2e00      	cmp	r6, #0
    1ce6:	d148      	bne.n	1d7a <_Unwind_VRS_Pop+0x1f2>
    1ce8:	2600      	movs	r6, #0
    1cea:	6baa      	ldr	r2, [r5, #56]	; 0x38
    1cec:	2c00      	cmp	r4, #0
    1cee:	4613      	mov	r3, r2
    1cf0:	dd0e      	ble.n	1d10 <_Unwind_VRS_Pop+0x188>
    1cf2:	a820      	add	r0, sp, #128	; 0x80
    1cf4:	0064      	lsls	r4, r4, #1
    1cf6:	eb00 00c8 	add.w	r0, r0, r8, lsl #3
    1cfa:	2300      	movs	r3, #0
    1cfc:	42a3      	cmp	r3, r4
    1cfe:	d005      	beq.n	1d0c <_Unwind_VRS_Pop+0x184>
    1d00:	f852 1023 	ldr.w	r1, [r2, r3, lsl #2]
    1d04:	f840 1023 	str.w	r1, [r0, r3, lsl #2]
    1d08:	3301      	adds	r3, #1
    1d0a:	e7f7      	b.n	1cfc <_Unwind_VRS_Pop+0x174>
    1d0c:	eb02 0383 	add.w	r3, r2, r3, lsl #2
    1d10:	2e00      	cmp	r6, #0
    1d12:	d0bb      	beq.n	1c8c <_Unwind_VRS_Pop+0x104>
    1d14:	4642      	mov	r2, r8
    1d16:	2a10      	cmp	r2, #16
    1d18:	bf38      	it	cc
    1d1a:	2210      	movcc	r2, #16
    1d1c:	a942      	add	r1, sp, #264	; 0x108
    1d1e:	eb01 02c2 	add.w	r2, r1, r2, lsl #3
    1d22:	eb03 01c6 	add.w	r1, r3, r6, lsl #3
    1d26:	f5a2 72c6 	sub.w	r2, r2, #396	; 0x18c
    1d2a:	428b      	cmp	r3, r1
    1d2c:	d0ae      	beq.n	1c8c <_Unwind_VRS_Pop+0x104>
    1d2e:	f853 0b04 	ldr.w	r0, [r3], #4
    1d32:	f842 0f04 	str.w	r0, [r2, #4]!
    1d36:	e7f8      	b.n	1d2a <_Unwind_VRS_Pop+0x1a2>
    1d38:	f1b8 0f0f 	cmp.w	r8, #15
    1d3c:	d802      	bhi.n	1d44 <_Unwind_VRS_Pop+0x1bc>
    1d3e:	a820      	add	r0, sp, #128	; 0x80
    1d40:	f000 f84e 	bl	1de0 <__gnu_Unwind_Restore_VFP_D>
    1d44:	2e00      	cmp	r6, #0
    1d46:	d0aa      	beq.n	1c9e <_Unwind_VRS_Pop+0x116>
    1d48:	4668      	mov	r0, sp
    1d4a:	f000 f851 	bl	1df0 <__gnu_Unwind_Restore_VFP_D_16_to_31>
    1d4e:	e7a6      	b.n	1c9e <_Unwind_VRS_Pop+0x116>
    1d50:	f023 0303 	bic.w	r3, r3, #3
    1d54:	602b      	str	r3, [r5, #0]
    1d56:	f000 f83f 	bl	1dd8 <__gnu_Unwind_Save_VFP>
    1d5a:	b1fe      	cbz	r6, 1d9c <_Unwind_VRS_Pop+0x214>
    1d5c:	682b      	ldr	r3, [r5, #0]
    1d5e:	0758      	lsls	r0, r3, #29
    1d60:	d506      	bpl.n	1d70 <_Unwind_VRS_Pop+0x1e8>
    1d62:	4628      	mov	r0, r5
    1d64:	f023 0304 	bic.w	r3, r3, #4
    1d68:	f840 3bd0 	str.w	r3, [r0], #208
    1d6c:	f000 f844 	bl	1df8 <__gnu_Unwind_Save_VFP_D_16_to_31>
    1d70:	2f01      	cmp	r7, #1
    1d72:	d00f      	beq.n	1d94 <_Unwind_VRS_Pop+0x20c>
    1d74:	f1b8 0f0f 	cmp.w	r8, #15
    1d78:	d9b1      	bls.n	1cde <_Unwind_VRS_Pop+0x156>
    1d7a:	4668      	mov	r0, sp
    1d7c:	f000 f83c 	bl	1df8 <__gnu_Unwind_Save_VFP_D_16_to_31>
    1d80:	f1c8 0410 	rsb	r4, r8, #16
    1d84:	e7b1      	b.n	1cea <_Unwind_VRS_Pop+0x162>
    1d86:	2600      	movs	r6, #0
    1d88:	e798      	b.n	1cbc <_Unwind_VRS_Pop+0x134>
    1d8a:	2f05      	cmp	r7, #5
    1d8c:	f47f af7c 	bne.w	1c88 <_Unwind_VRS_Pop+0x100>
    1d90:	4626      	mov	r6, r4
    1d92:	e7e3      	b.n	1d5c <_Unwind_VRS_Pop+0x1d4>
    1d94:	a820      	add	r0, sp, #128	; 0x80
    1d96:	f000 f81f 	bl	1dd8 <__gnu_Unwind_Save_VFP>
    1d9a:	e7f1      	b.n	1d80 <_Unwind_VRS_Pop+0x1f8>
    1d9c:	2f01      	cmp	r7, #1
    1d9e:	d103      	bne.n	1da8 <_Unwind_VRS_Pop+0x220>
    1da0:	a820      	add	r0, sp, #128	; 0x80
    1da2:	f000 f819 	bl	1dd8 <__gnu_Unwind_Save_VFP>
    1da6:	e79f      	b.n	1ce8 <_Unwind_VRS_Pop+0x160>
    1da8:	f1b8 0f0f 	cmp.w	r8, #15
    1dac:	d997      	bls.n	1cde <_Unwind_VRS_Pop+0x156>
    1dae:	e79b      	b.n	1ce8 <_Unwind_VRS_Pop+0x160>
    1db0:	b042      	add	sp, #264	; 0x108
    1db2:	e8bd 81f0 	ldmia.w	sp!, {r4, r5, r6, r7, r8, pc}
    1db6:	bf00      	nop

00001db8 <__restore_core_regs>:
    1db8:	f100 0134 	add.w	r1, r0, #52	; 0x34
    1dbc:	e891 0038 	ldmia.w	r1, {r3, r4, r5}
    1dc0:	469c      	mov	ip, r3
    1dc2:	46a6      	mov	lr, r4
    1dc4:	f84c 5d04 	str.w	r5, [ip, #-4]!
    1dc8:	e890 0fff 	ldmia.w	r0, {r0, r1, r2, r3, r4, r5, r6, r7, r8, r9, sl, fp}
    1dcc:	46e5      	mov	sp, ip
    1dce:	bd00      	pop	{pc}

00001dd0 <__gnu_Unwind_Restore_VFP>:
    1dd0:	ec90 0b21 	fldmiax	r0, {d0-d15}	;@ Deprecated
    1dd4:	4770      	bx	lr
    1dd6:	bf00      	nop

00001dd8 <__gnu_Unwind_Save_VFP>:
    1dd8:	ec80 0b21 	fstmiax	r0, {d0-d15}	;@ Deprecated
    1ddc:	4770      	bx	lr
    1dde:	bf00      	nop

00001de0 <__gnu_Unwind_Restore_VFP_D>:
    1de0:	ec90 0b20 	vldmia	r0, {d0-d15}
    1de4:	4770      	bx	lr
    1de6:	bf00      	nop

00001de8 <__gnu_Unwind_Save_VFP_D>:
    1de8:	ec80 0b20 	vstmia	r0, {d0-d15}
    1dec:	4770      	bx	lr
    1dee:	bf00      	nop

00001df0 <__gnu_Unwind_Restore_VFP_D_16_to_31>:
    1df0:	ecd0 0b20 	vldmia	r0, {d16-d31}
    1df4:	4770      	bx	lr
    1df6:	bf00      	nop

00001df8 <__gnu_Unwind_Save_VFP_D_16_to_31>:
    1df8:	ecc0 0b20 	vstmia	r0, {d16-d31}
    1dfc:	4770      	bx	lr
    1dfe:	bf00      	nop

00001e00 <__gnu_Unwind_Restore_WMMXD>:
    1e00:	ecf0 0102 	ldfe	f0, [r0], #8
    1e04:	ecf0 1102 	ldfe	f1, [r0], #8
    1e08:	ecf0 2102 	ldfe	f2, [r0], #8
    1e0c:	ecf0 3102 	ldfe	f3, [r0], #8
    1e10:	ecf0 4102 	ldfe	f4, [r0], #8
    1e14:	ecf0 5102 	ldfe	f5, [r0], #8
    1e18:	ecf0 6102 	ldfe	f6, [r0], #8
    1e1c:	ecf0 7102 	ldfe	f7, [r0], #8
    1e20:	ecf0 8102 	ldfp	f0, [r0], #8
    1e24:	ecf0 9102 	ldfp	f1, [r0], #8
    1e28:	ecf0 a102 	ldfp	f2, [r0], #8
    1e2c:	ecf0 b102 	ldfp	f3, [r0], #8
    1e30:	ecf0 c102 	ldfp	f4, [r0], #8
    1e34:	ecf0 d102 	ldfp	f5, [r0], #8
    1e38:	ecf0 e102 	ldfp	f6, [r0], #8
    1e3c:	ecf0 f102 	ldfp	f7, [r0], #8
    1e40:	4770      	bx	lr
    1e42:	bf00      	nop

00001e44 <__gnu_Unwind_Save_WMMXD>:
    1e44:	ece0 0102 	stfe	f0, [r0], #8
    1e48:	ece0 1102 	stfe	f1, [r0], #8
    1e4c:	ece0 2102 	stfe	f2, [r0], #8
    1e50:	ece0 3102 	stfe	f3, [r0], #8
    1e54:	ece0 4102 	stfe	f4, [r0], #8
    1e58:	ece0 5102 	stfe	f5, [r0], #8
    1e5c:	ece0 6102 	stfe	f6, [r0], #8
    1e60:	ece0 7102 	stfe	f7, [r0], #8
    1e64:	ece0 8102 	stfp	f0, [r0], #8
    1e68:	ece0 9102 	stfp	f1, [r0], #8
    1e6c:	ece0 a102 	stfp	f2, [r0], #8
    1e70:	ece0 b102 	stfp	f3, [r0], #8
    1e74:	ece0 c102 	stfp	f4, [r0], #8
    1e78:	ece0 d102 	stfp	f5, [r0], #8
    1e7c:	ece0 e102 	stfp	f6, [r0], #8
    1e80:	ece0 f102 	stfp	f7, [r0], #8
    1e84:	4770      	bx	lr
    1e86:	bf00      	nop

00001e88 <__gnu_Unwind_Restore_WMMXC>:
    1e88:	fcb0 8101 	ldc2	1, cr8, [r0], #4
    1e8c:	fcb0 9101 	ldc2	1, cr9, [r0], #4
    1e90:	fcb0 a101 	ldc2	1, cr10, [r0], #4
    1e94:	fcb0 b101 	ldc2	1, cr11, [r0], #4
    1e98:	4770      	bx	lr
    1e9a:	bf00      	nop

00001e9c <__gnu_Unwind_Save_WMMXC>:
    1e9c:	fca0 8101 	stc2	1, cr8, [r0], #4
    1ea0:	fca0 9101 	stc2	1, cr9, [r0], #4
    1ea4:	fca0 a101 	stc2	1, cr10, [r0], #4
    1ea8:	fca0 b101 	stc2	1, cr11, [r0], #4
    1eac:	4770      	bx	lr
    1eae:	bf00      	nop

00001eb0 <_Unwind_RaiseException>:
    1eb0:	46ec      	mov	ip, sp
    1eb2:	b500      	push	{lr}
    1eb4:	e92d 5000 	stmdb	sp!, {ip, lr}
    1eb8:	e92d 1fff 	stmdb	sp!, {r0, r1, r2, r3, r4, r5, r6, r7, r8, r9, sl, fp, ip}
    1ebc:	f04f 0300 	mov.w	r3, #0
    1ec0:	e92d 000c 	stmdb	sp!, {r2, r3}
    1ec4:	a901      	add	r1, sp, #4
    1ec6:	f7ff fc35 	bl	1734 <__gnu_Unwind_RaiseException>
    1eca:	f8dd e040 	ldr.w	lr, [sp, #64]	; 0x40
    1ece:	b012      	add	sp, #72	; 0x48
    1ed0:	4770      	bx	lr
    1ed2:	bf00      	nop

00001ed4 <_Unwind_Resume>:
    1ed4:	46ec      	mov	ip, sp
    1ed6:	b500      	push	{lr}
    1ed8:	e92d 5000 	stmdb	sp!, {ip, lr}
    1edc:	e92d 1fff 	stmdb	sp!, {r0, r1, r2, r3, r4, r5, r6, r7, r8, r9, sl, fp, ip}
    1ee0:	f04f 0300 	mov.w	r3, #0
    1ee4:	e92d 000c 	stmdb	sp!, {r2, r3}
    1ee8:	a901      	add	r1, sp, #4
    1eea:	f7ff fc5e 	bl	17aa <__gnu_Unwind_Resume>
    1eee:	f8dd e040 	ldr.w	lr, [sp, #64]	; 0x40
    1ef2:	b012      	add	sp, #72	; 0x48
    1ef4:	4770      	bx	lr
    1ef6:	bf00      	nop

00001ef8 <_Unwind_Resume_or_Rethrow>:
    1ef8:	46ec      	mov	ip, sp
    1efa:	b500      	push	{lr}
    1efc:	e92d 5000 	stmdb	sp!, {ip, lr}
    1f00:	e92d 1fff 	stmdb	sp!, {r0, r1, r2, r3, r4, r5, r6, r7, r8, r9, sl, fp, ip}
    1f04:	f04f 0300 	mov.w	r3, #0
    1f08:	e92d 000c 	stmdb	sp!, {r2, r3}
    1f0c:	a901      	add	r1, sp, #4
    1f0e:	f7ff fc6d 	bl	17ec <__gnu_Unwind_Resume_or_Rethrow>
    1f12:	f8dd e040 	ldr.w	lr, [sp, #64]	; 0x40
    1f16:	b012      	add	sp, #72	; 0x48
    1f18:	4770      	bx	lr
    1f1a:	bf00      	nop

00001f1c <_Unwind_ForcedUnwind>:
    1f1c:	46ec      	mov	ip, sp
    1f1e:	b500      	push	{lr}
    1f20:	e92d 5000 	stmdb	sp!, {ip, lr}
    1f24:	e92d 1fff 	stmdb	sp!, {r0, r1, r2, r3, r4, r5, r6, r7, r8, r9, sl, fp, ip}
    1f28:	f04f 0300 	mov.w	r3, #0
    1f2c:	e92d 000c 	stmdb	sp!, {r2, r3}
    1f30:	ab01      	add	r3, sp, #4
    1f32:	f7ff fc30 	bl	1796 <__gnu_Unwind_ForcedUnwind>
    1f36:	f8dd e040 	ldr.w	lr, [sp, #64]	; 0x40
    1f3a:	b012      	add	sp, #72	; 0x48
    1f3c:	4770      	bx	lr
    1f3e:	bf00      	nop

00001f40 <_Unwind_Backtrace>:
    1f40:	46ec      	mov	ip, sp
    1f42:	b500      	push	{lr}
    1f44:	e92d 5000 	stmdb	sp!, {ip, lr}
    1f48:	e92d 1fff 	stmdb	sp!, {r0, r1, r2, r3, r4, r5, r6, r7, r8, r9, sl, fp, ip}
    1f4c:	f04f 0300 	mov.w	r3, #0
    1f50:	e92d 000c 	stmdb	sp!, {r2, r3}
    1f54:	aa01      	add	r2, sp, #4
    1f56:	f7ff fc9f 	bl	1898 <__gnu_Unwind_Backtrace>
    1f5a:	f8dd e040 	ldr.w	lr, [sp, #64]	; 0x40
    1f5e:	b012      	add	sp, #72	; 0x48
    1f60:	4770      	bx	lr
    1f62:	bf00      	nop

00001f64 <next_unwind_byte>:
    1f64:	7a03      	ldrb	r3, [r0, #8]
    1f66:	b953      	cbnz	r3, 1f7e <next_unwind_byte+0x1a>
    1f68:	7a43      	ldrb	r3, [r0, #9]
    1f6a:	b17b      	cbz	r3, 1f8c <next_unwind_byte+0x28>
    1f6c:	3b01      	subs	r3, #1
    1f6e:	7243      	strb	r3, [r0, #9]
    1f70:	6843      	ldr	r3, [r0, #4]
    1f72:	1d1a      	adds	r2, r3, #4
    1f74:	6042      	str	r2, [r0, #4]
    1f76:	681b      	ldr	r3, [r3, #0]
    1f78:	6003      	str	r3, [r0, #0]
    1f7a:	2303      	movs	r3, #3
    1f7c:	e000      	b.n	1f80 <next_unwind_byte+0x1c>
    1f7e:	3b01      	subs	r3, #1
    1f80:	7203      	strb	r3, [r0, #8]
    1f82:	6803      	ldr	r3, [r0, #0]
    1f84:	021a      	lsls	r2, r3, #8
    1f86:	6002      	str	r2, [r0, #0]
    1f88:	0e18      	lsrs	r0, r3, #24
    1f8a:	4770      	bx	lr
    1f8c:	20b0      	movs	r0, #176	; 0xb0
    1f8e:	4770      	bx	lr

00001f90 <_Unwind_GetGR.constprop.0>:
    1f90:	b51f      	push	{r0, r1, r2, r3, r4, lr}
    1f92:	2100      	movs	r1, #0
    1f94:	ab03      	add	r3, sp, #12
    1f96:	220c      	movs	r2, #12
    1f98:	9300      	str	r3, [sp, #0]
    1f9a:	460b      	mov	r3, r1
    1f9c:	f7ff fc35 	bl	180a <_Unwind_VRS_Get>
    1fa0:	9803      	ldr	r0, [sp, #12]
    1fa2:	b005      	add	sp, #20
    1fa4:	f85d fb04 	ldr.w	pc, [sp], #4

00001fa8 <unwind_UCB_from_context>:
    1fa8:	e7f2      	b.n	1f90 <_Unwind_GetGR.constprop.0>

00001faa <__gnu_unwind_execute>:
    1faa:	e92d 43f0 	stmdb	sp!, {r4, r5, r6, r7, r8, r9, lr}
    1fae:	2600      	movs	r6, #0
    1fb0:	b085      	sub	sp, #20
    1fb2:	4605      	mov	r5, r0
    1fb4:	460f      	mov	r7, r1
    1fb6:	4638      	mov	r0, r7
    1fb8:	f7ff ffd4 	bl	1f64 <next_unwind_byte>
    1fbc:	28b0      	cmp	r0, #176	; 0xb0
    1fbe:	4604      	mov	r4, r0
    1fc0:	d112      	bne.n	1fe8 <__gnu_unwind_execute+0x3e>
    1fc2:	2e00      	cmp	r6, #0
    1fc4:	f040 8128 	bne.w	2218 <__gnu_unwind_execute+0x26e>
    1fc8:	ac03      	add	r4, sp, #12
    1fca:	4631      	mov	r1, r6
    1fcc:	4633      	mov	r3, r6
    1fce:	9400      	str	r4, [sp, #0]
    1fd0:	4628      	mov	r0, r5
    1fd2:	220e      	movs	r2, #14
    1fd4:	f7ff fc19 	bl	180a <_Unwind_VRS_Get>
    1fd8:	9400      	str	r4, [sp, #0]
    1fda:	4628      	mov	r0, r5
    1fdc:	4631      	mov	r1, r6
    1fde:	220f      	movs	r2, #15
    1fe0:	4633      	mov	r3, r6
    1fe2:	f7ff fc35 	bl	1850 <_Unwind_VRS_Set>
    1fe6:	e117      	b.n	2218 <__gnu_unwind_execute+0x26e>
    1fe8:	f020 017f 	bic.w	r1, r0, #127	; 0x7f
    1fec:	f011 01ff 	ands.w	r1, r1, #255	; 0xff
    1ff0:	d119      	bne.n	2026 <__gnu_unwind_execute+0x7c>
    1ff2:	ea4f 0880 	mov.w	r8, r0, lsl #2
    1ff6:	f10d 090c 	add.w	r9, sp, #12
    1ffa:	460b      	mov	r3, r1
    1ffc:	f8cd 9000 	str.w	r9, [sp]
    2000:	4628      	mov	r0, r5
    2002:	220d      	movs	r2, #13
    2004:	f7ff fc01 	bl	180a <_Unwind_VRS_Get>
    2008:	9b03      	ldr	r3, [sp, #12]
    200a:	fa5f f888 	uxtb.w	r8, r8
    200e:	f014 0f40 	tst.w	r4, #64	; 0x40
    2012:	f108 0804 	add.w	r8, r8, #4
    2016:	f8cd 9000 	str.w	r9, [sp]
    201a:	bf14      	ite	ne
    201c:	ebc8 0303 	rsbne	r3, r8, r3
    2020:	4443      	addeq	r3, r8
    2022:	9303      	str	r3, [sp, #12]
    2024:	e02e      	b.n	2084 <__gnu_unwind_execute+0xda>
    2026:	f000 03f0 	and.w	r3, r0, #240	; 0xf0
    202a:	2b80      	cmp	r3, #128	; 0x80
    202c:	d117      	bne.n	205e <__gnu_unwind_execute+0xb4>
    202e:	0204      	lsls	r4, r0, #8
    2030:	4638      	mov	r0, r7
    2032:	f7ff ff97 	bl	1f64 <next_unwind_byte>
    2036:	4320      	orrs	r0, r4
    2038:	f5b0 4f00 	cmp.w	r0, #32768	; 0x8000
    203c:	d101      	bne.n	2042 <__gnu_unwind_execute+0x98>
    203e:	2009      	movs	r0, #9
    2040:	e0eb      	b.n	221a <__gnu_unwind_execute+0x270>
    2042:	0104      	lsls	r4, r0, #4
    2044:	2100      	movs	r1, #0
    2046:	4628      	mov	r0, r5
    2048:	b2a2      	uxth	r2, r4
    204a:	460b      	mov	r3, r1
    204c:	f7ff fd9c 	bl	1b88 <_Unwind_VRS_Pop>
    2050:	2800      	cmp	r0, #0
    2052:	d1f4      	bne.n	203e <__gnu_unwind_execute+0x94>
    2054:	f414 4f00 	tst.w	r4, #32768	; 0x8000
    2058:	bf18      	it	ne
    205a:	2601      	movne	r6, #1
    205c:	e7ab      	b.n	1fb6 <__gnu_unwind_execute+0xc>
    205e:	2b90      	cmp	r3, #144	; 0x90
    2060:	d117      	bne.n	2092 <__gnu_unwind_execute+0xe8>
    2062:	f000 030d 	and.w	r3, r0, #13
    2066:	2b0d      	cmp	r3, #13
    2068:	d0e9      	beq.n	203e <__gnu_unwind_execute+0x94>
    206a:	2100      	movs	r1, #0
    206c:	f10d 080c 	add.w	r8, sp, #12
    2070:	4628      	mov	r0, r5
    2072:	f8cd 8000 	str.w	r8, [sp]
    2076:	f004 020f 	and.w	r2, r4, #15
    207a:	460b      	mov	r3, r1
    207c:	f7ff fbc5 	bl	180a <_Unwind_VRS_Get>
    2080:	f8cd 8000 	str.w	r8, [sp]
    2084:	2100      	movs	r1, #0
    2086:	4628      	mov	r0, r5
    2088:	220d      	movs	r2, #13
    208a:	460b      	mov	r3, r1
    208c:	f7ff fbe0 	bl	1850 <_Unwind_VRS_Set>
    2090:	e791      	b.n	1fb6 <__gnu_unwind_execute+0xc>
    2092:	2ba0      	cmp	r3, #160	; 0xa0
    2094:	d10e      	bne.n	20b4 <__gnu_unwind_execute+0x10a>
    2096:	f44f 627f 	mov.w	r2, #4080	; 0xff0
    209a:	43c3      	mvns	r3, r0
    209c:	f003 0307 	and.w	r3, r3, #7
    20a0:	2100      	movs	r1, #0
    20a2:	411a      	asrs	r2, r3
    20a4:	0703      	lsls	r3, r0, #28
    20a6:	f402 627f 	and.w	r2, r2, #4080	; 0xff0
    20aa:	4628      	mov	r0, r5
    20ac:	bf48      	it	mi
    20ae:	f442 4280 	orrmi.w	r2, r2, #16384	; 0x4000
    20b2:	e00d      	b.n	20d0 <__gnu_unwind_execute+0x126>
    20b4:	2bb0      	cmp	r3, #176	; 0xb0
    20b6:	d14f      	bne.n	2158 <__gnu_unwind_execute+0x1ae>
    20b8:	28b1      	cmp	r0, #177	; 0xb1
    20ba:	d10b      	bne.n	20d4 <__gnu_unwind_execute+0x12a>
    20bc:	4638      	mov	r0, r7
    20be:	f7ff ff51 	bl	1f64 <next_unwind_byte>
    20c2:	4602      	mov	r2, r0
    20c4:	2800      	cmp	r0, #0
    20c6:	d0ba      	beq.n	203e <__gnu_unwind_execute+0x94>
    20c8:	f010 01f0 	ands.w	r1, r0, #240	; 0xf0
    20cc:	d1b7      	bne.n	203e <__gnu_unwind_execute+0x94>
    20ce:	4628      	mov	r0, r5
    20d0:	460b      	mov	r3, r1
    20d2:	e09b      	b.n	220c <__gnu_unwind_execute+0x262>
    20d4:	28b2      	cmp	r0, #178	; 0xb2
    20d6:	d125      	bne.n	2124 <__gnu_unwind_execute+0x17a>
    20d8:	2100      	movs	r1, #0
    20da:	220d      	movs	r2, #13
    20dc:	ac03      	add	r4, sp, #12
    20de:	4628      	mov	r0, r5
    20e0:	460b      	mov	r3, r1
    20e2:	9400      	str	r4, [sp, #0]
    20e4:	f7ff fb91 	bl	180a <_Unwind_VRS_Get>
    20e8:	4638      	mov	r0, r7
    20ea:	f7ff ff3b 	bl	1f64 <next_unwind_byte>
    20ee:	f04f 0802 	mov.w	r8, #2
    20f2:	f010 0180 	ands.w	r1, r0, #128	; 0x80
    20f6:	9b03      	ldr	r3, [sp, #12]
    20f8:	f000 007f 	and.w	r0, r0, #127	; 0x7f
    20fc:	d009      	beq.n	2112 <__gnu_unwind_execute+0x168>
    20fe:	fa00 f008 	lsl.w	r0, r0, r8
    2102:	f108 0807 	add.w	r8, r8, #7
    2106:	4418      	add	r0, r3
    2108:	9003      	str	r0, [sp, #12]
    210a:	4638      	mov	r0, r7
    210c:	f7ff ff2a 	bl	1f64 <next_unwind_byte>
    2110:	e7ef      	b.n	20f2 <__gnu_unwind_execute+0x148>
    2112:	f503 7301 	add.w	r3, r3, #516	; 0x204
    2116:	fa00 f008 	lsl.w	r0, r0, r8
    211a:	4418      	add	r0, r3
    211c:	9400      	str	r4, [sp, #0]
    211e:	9003      	str	r0, [sp, #12]
    2120:	4628      	mov	r0, r5
    2122:	e7b1      	b.n	2088 <__gnu_unwind_execute+0xde>
    2124:	28b3      	cmp	r0, #179	; 0xb3
    2126:	d10a      	bne.n	213e <__gnu_unwind_execute+0x194>
    2128:	4638      	mov	r0, r7
    212a:	f7ff ff1b 	bl	1f64 <next_unwind_byte>
    212e:	2101      	movs	r1, #1
    2130:	f000 020f 	and.w	r2, r0, #15
    2134:	f000 03f0 	and.w	r3, r0, #240	; 0xf0
    2138:	3201      	adds	r2, #1
    213a:	4628      	mov	r0, r5
    213c:	e01a      	b.n	2174 <__gnu_unwind_execute+0x1ca>
    213e:	f000 03fc 	and.w	r3, r0, #252	; 0xfc
    2142:	2bb4      	cmp	r3, #180	; 0xb4
    2144:	f43f af7b 	beq.w	203e <__gnu_unwind_execute+0x94>
    2148:	f000 0207 	and.w	r2, r0, #7
    214c:	2101      	movs	r1, #1
    214e:	3201      	adds	r2, #1
    2150:	4628      	mov	r0, r5
    2152:	f442 2200 	orr.w	r2, r2, #524288	; 0x80000
    2156:	e7bb      	b.n	20d0 <__gnu_unwind_execute+0x126>
    2158:	2bc0      	cmp	r3, #192	; 0xc0
    215a:	d14a      	bne.n	21f2 <__gnu_unwind_execute+0x248>
    215c:	28c6      	cmp	r0, #198	; 0xc6
    215e:	d10c      	bne.n	217a <__gnu_unwind_execute+0x1d0>
    2160:	4638      	mov	r0, r7
    2162:	f7ff feff 	bl	1f64 <next_unwind_byte>
    2166:	2103      	movs	r1, #3
    2168:	f000 020f 	and.w	r2, r0, #15
    216c:	f000 03f0 	and.w	r3, r0, #240	; 0xf0
    2170:	3201      	adds	r2, #1
    2172:	4628      	mov	r0, r5
    2174:	ea42 3203 	orr.w	r2, r2, r3, lsl #12
    2178:	e7aa      	b.n	20d0 <__gnu_unwind_execute+0x126>
    217a:	28c7      	cmp	r0, #199	; 0xc7
    217c:	d10d      	bne.n	219a <__gnu_unwind_execute+0x1f0>
    217e:	4638      	mov	r0, r7
    2180:	f7ff fef0 	bl	1f64 <next_unwind_byte>
    2184:	4602      	mov	r2, r0
    2186:	2800      	cmp	r0, #0
    2188:	f43f af59 	beq.w	203e <__gnu_unwind_execute+0x94>
    218c:	f010 03f0 	ands.w	r3, r0, #240	; 0xf0
    2190:	f47f af55 	bne.w	203e <__gnu_unwind_execute+0x94>
    2194:	4628      	mov	r0, r5
    2196:	2104      	movs	r1, #4
    2198:	e038      	b.n	220c <__gnu_unwind_execute+0x262>
    219a:	f000 03f8 	and.w	r3, r0, #248	; 0xf8
    219e:	2bc0      	cmp	r3, #192	; 0xc0
    21a0:	d107      	bne.n	21b2 <__gnu_unwind_execute+0x208>
    21a2:	f000 020f 	and.w	r2, r0, #15
    21a6:	2103      	movs	r1, #3
    21a8:	3201      	adds	r2, #1
    21aa:	4628      	mov	r0, r5
    21ac:	f442 2220 	orr.w	r2, r2, #655360	; 0xa0000
    21b0:	e78e      	b.n	20d0 <__gnu_unwind_execute+0x126>
    21b2:	28c8      	cmp	r0, #200	; 0xc8
    21b4:	d10d      	bne.n	21d2 <__gnu_unwind_execute+0x228>
    21b6:	4638      	mov	r0, r7
    21b8:	f7ff fed4 	bl	1f64 <next_unwind_byte>
    21bc:	2101      	movs	r1, #1
    21be:	f000 02f0 	and.w	r2, r0, #240	; 0xf0
    21c2:	f000 000f 	and.w	r0, r0, #15
    21c6:	3210      	adds	r2, #16
    21c8:	1c43      	adds	r3, r0, #1
    21ca:	4628      	mov	r0, r5
    21cc:	ea43 3202 	orr.w	r2, r3, r2, lsl #12
    21d0:	e01b      	b.n	220a <__gnu_unwind_execute+0x260>
    21d2:	28c9      	cmp	r0, #201	; 0xc9
    21d4:	f47f af33 	bne.w	203e <__gnu_unwind_execute+0x94>
    21d8:	4638      	mov	r0, r7
    21da:	f7ff fec3 	bl	1f64 <next_unwind_byte>
    21de:	2101      	movs	r1, #1
    21e0:	f000 020f 	and.w	r2, r0, #15
    21e4:	f000 03f0 	and.w	r3, r0, #240	; 0xf0
    21e8:	3201      	adds	r2, #1
    21ea:	4628      	mov	r0, r5
    21ec:	ea42 3203 	orr.w	r2, r2, r3, lsl #12
    21f0:	e00b      	b.n	220a <__gnu_unwind_execute+0x260>
    21f2:	f000 03f8 	and.w	r3, r0, #248	; 0xf8
    21f6:	2bd0      	cmp	r3, #208	; 0xd0
    21f8:	f47f af21 	bne.w	203e <__gnu_unwind_execute+0x94>
    21fc:	f000 0207 	and.w	r2, r0, #7
    2200:	2101      	movs	r1, #1
    2202:	3201      	adds	r2, #1
    2204:	4628      	mov	r0, r5
    2206:	f442 2200 	orr.w	r2, r2, #524288	; 0x80000
    220a:	2305      	movs	r3, #5
    220c:	f7ff fcbc 	bl	1b88 <_Unwind_VRS_Pop>
    2210:	2800      	cmp	r0, #0
    2212:	f47f af14 	bne.w	203e <__gnu_unwind_execute+0x94>
    2216:	e6ce      	b.n	1fb6 <__gnu_unwind_execute+0xc>
    2218:	2000      	movs	r0, #0
    221a:	b005      	add	sp, #20
    221c:	e8bd 83f0 	ldmia.w	sp!, {r4, r5, r6, r7, r8, r9, pc}

00002220 <__gnu_unwind_frame>:
    2220:	b51f      	push	{r0, r1, r2, r3, r4, lr}
    2222:	6cc3      	ldr	r3, [r0, #76]	; 0x4c
    2224:	4608      	mov	r0, r1
    2226:	a901      	add	r1, sp, #4
    2228:	685a      	ldr	r2, [r3, #4]
    222a:	0212      	lsls	r2, r2, #8
    222c:	9201      	str	r2, [sp, #4]
    222e:	f103 0208 	add.w	r2, r3, #8
    2232:	9202      	str	r2, [sp, #8]
    2234:	2203      	movs	r2, #3
    2236:	f88d 200c 	strb.w	r2, [sp, #12]
    223a:	79db      	ldrb	r3, [r3, #7]
    223c:	f88d 300d 	strb.w	r3, [sp, #13]
    2240:	f7ff feb3 	bl	1faa <__gnu_unwind_execute>
    2244:	b005      	add	sp, #20
    2246:	f85d fb04 	ldr.w	pc, [sp], #4

0000224a <_Unwind_GetRegionStart>:
    224a:	b508      	push	{r3, lr}
    224c:	f7ff feac 	bl	1fa8 <unwind_UCB_from_context>
    2250:	6c80      	ldr	r0, [r0, #72]	; 0x48
    2252:	bd08      	pop	{r3, pc}

00002254 <_Unwind_GetLanguageSpecificData>:
    2254:	b508      	push	{r3, lr}
    2256:	f7ff fea7 	bl	1fa8 <unwind_UCB_from_context>
    225a:	6cc3      	ldr	r3, [r0, #76]	; 0x4c
    225c:	79d8      	ldrb	r0, [r3, #7]
    225e:	eb03 0080 	add.w	r0, r3, r0, lsl #2
    2262:	3008      	adds	r0, #8
    2264:	bd08      	pop	{r3, pc}

00002266 <_Unwind_GetDataRelBase>:
    2266:	b508      	push	{r3, lr}
    2268:	f7fe ebc2 	blx	9f0 <abort@plt>

0000226c <_Unwind_GetTextRelBase>:
    226c:	b508      	push	{r3, lr}
    226e:	f7fe ebc0 	blx	9f0 <abort@plt>
